
Discarded input sections

 .bss           0x0000000000000000        0x0 build/src/rom_header/rom_header.o
 .reginfo       0x0000000000000000       0x18 build/src/rom_header/rom_header.o
 .note          0x0000000000000000       0x14 build/src/rom_header/rom_header.o
 .comment       0x0000000000000000       0x12 build/src/rom_header/rom_header.o
 .data          0x0000000000000000        0x0 build/src/entry/entry.o
 .bss           0x0000000000000000        0x0 build/src/entry/entry.o
 .reginfo       0x0000000000000000       0x18 build/src/entry/entry.o
 .MIPS.abiflags
                0x0000000000000000       0x18 build/src/entry/entry.o
 .pdr           0x0000000000000000       0x20 build/src/entry/entry.o
 .gnu.attributes
                0x0000000000000000       0x10 build/src/entry/entry.o
 .bss           0x0000000000000000        0x0 build/src/boot/boot_main.o
 .reginfo       0x0000000000000000       0x18 build/src/boot/boot_main.o
 .note          0x0000000000000000       0x14 build/src/boot/boot_main.o
 .comment       0x0000000000000000       0x12 build/src/boot/boot_main.o
 .bss           0x0000000000000000        0x0 build/src/boot/dmadata.o
 .reginfo       0x0000000000000000       0x18 build/src/boot/dmadata.o
 .note          0x0000000000000000       0x14 build/src/boot/dmadata.o
 .comment       0x0000000000000000       0x12 build/src/boot/dmadata.o
 .data          0x0000000000000000        0x0 build/src/gzip/inflate.o
 .bss           0x0000000000000000        0x0 build/src/gzip/inflate.o
 .reginfo       0x0000000000000000       0x18 build/src/gzip/inflate.o
 .note          0x0000000000000000       0x14 build/src/gzip/inflate.o
 .comment       0x0000000000000000       0x12 build/src/gzip/inflate.o
 .data          0x0000000000000000        0x0 build/src/gzip/unzip.o
 .bss           0x0000000000000000        0x0 build/src/gzip/unzip.o
 .reginfo       0x0000000000000000       0x18 build/src/gzip/unzip.o
 .note          0x0000000000000000       0x14 build/src/gzip/unzip.o
 .comment       0x0000000000000000       0x12 build/src/gzip/unzip.o
 .data          0x0000000000000000        0x0 build/src/boot/util.o
 .bss           0x0000000000000000        0x0 build/src/boot/util.o
 .reginfo       0x0000000000000000       0x18 build/src/boot/util.o
 .note          0x0000000000000000       0x14 build/src/boot/util.o
 .comment       0x0000000000000000       0x12 build/src/boot/util.o
 .bss           0x0000000000000000        0x0 build/src/boot/rom_offsets.o
 .reginfo       0x0000000000000000       0x18 build/src/boot/rom_offsets.o
 .note          0x0000000000000000       0x14 build/src/boot/rom_offsets.o
 .comment       0x0000000000000000       0x12 build/src/boot/rom_offsets.o
 .data          0x0000000000000000        0x0 build/asm/us/libultra/io/conteepprobe.o
 .bss           0x0000000000000000        0x0 build/asm/us/libultra/io/conteepprobe.o
 .reginfo       0x0000000000000000       0x18 build/asm/us/libultra/io/conteepprobe.o
 .MIPS.abiflags
                0x0000000000000000       0x18 build/asm/us/libultra/io/conteepprobe.o
 .pdr           0x0000000000000000        0x0 build/asm/us/libultra/io/conteepprobe.o
 .gnu.attributes
                0x0000000000000000       0x10 build/asm/us/libultra/io/conteepprobe.o
 .data          0x0000000000000000        0x0 build/lib/ultralib/src/io/conteeplongwrite.o
 .bss           0x0000000000000000        0x0 build/lib/ultralib/src/io/conteeplongwrite.o
 .reginfo       0x0000000000000000       0x18 build/lib/ultralib/src/io/conteeplongwrite.o
 .note          0x0000000000000000       0x14 build/lib/ultralib/src/io/conteeplongwrite.o
 .comment       0x0000000000000000       0x12 build/lib/ultralib/src/io/conteeplongwrite.o
 .data          0x0000000000000000        0x0 build/lib/ultralib/src/io/conteeplongread.o
 .bss           0x0000000000000000        0x0 build/lib/ultralib/src/io/conteeplongread.o
 .reginfo       0x0000000000000000       0x18 build/lib/ultralib/src/io/conteeplongread.o
 .note          0x0000000000000000       0x14 build/lib/ultralib/src/io/conteeplongread.o
 .comment       0x0000000000000000       0x12 build/lib/ultralib/src/io/conteeplongread.o
 .data          0x0000000000000000        0x0 build/asm/us/libultra/io/pimgr.o
 .bss           0x0000000000000000        0x0 build/asm/us/libultra/io/pimgr.o
 .reginfo       0x0000000000000000       0x18 build/asm/us/libultra/io/pimgr.o
 .MIPS.abiflags
                0x0000000000000000       0x18 build/asm/us/libultra/io/pimgr.o
 .pdr           0x0000000000000000        0x0 build/asm/us/libultra/io/pimgr.o
 .gnu.attributes
                0x0000000000000000       0x10 build/asm/us/libultra/io/pimgr.o
 .data          0x0000000000000000        0x0 build/lib/ultralib/src/io/epirawdma.o
 .bss           0x0000000000000000        0x0 build/lib/ultralib/src/io/epirawdma.o
 .reginfo       0x0000000000000000       0x18 build/lib/ultralib/src/io/epirawdma.o
 .note          0x0000000000000000       0x14 build/lib/ultralib/src/io/epirawdma.o
 .comment       0x0000000000000000       0x24 build/lib/ultralib/src/io/epirawdma.o
 .data          0x0000000000000000        0x0 build/lib/ultralib/src/io/epidma.o
 .bss           0x0000000000000000        0x0 build/lib/ultralib/src/io/epidma.o
 .reginfo       0x0000000000000000       0x18 build/lib/ultralib/src/io/epidma.o
 .note          0x0000000000000000       0x14 build/lib/ultralib/src/io/epidma.o
 .comment       0x0000000000000000       0x12 build/lib/ultralib/src/io/epidma.o
 .data          0x0000000000000000        0x0 build/asm/us/libultra/io/cartrominit.o
 .bss           0x0000000000000000        0x0 build/asm/us/libultra/io/cartrominit.o
 .reginfo       0x0000000000000000       0x18 build/asm/us/libultra/io/cartrominit.o
 .MIPS.abiflags
                0x0000000000000000       0x18 build/asm/us/libultra/io/cartrominit.o
 .pdr           0x0000000000000000        0x0 build/asm/us/libultra/io/cartrominit.o
 .gnu.attributes
                0x0000000000000000       0x10 build/asm/us/libultra/io/cartrominit.o
 .data          0x0000000000000000        0x0 build/lib/ultralib/src/io/devmgr.o
 .bss           0x0000000000000000        0x0 build/lib/ultralib/src/io/devmgr.o
 .reginfo       0x0000000000000000       0x18 build/lib/ultralib/src/io/devmgr.o
 .note          0x0000000000000000       0x14 build/lib/ultralib/src/io/devmgr.o
 .comment       0x0000000000000000       0x12 build/lib/ultralib/src/io/devmgr.o
 .data          0x0000000000000000        0x0 build/asm/us/libultra/io/piacs.o
 .bss           0x0000000000000000        0x0 build/asm/us/libultra/io/piacs.o
 .reginfo       0x0000000000000000       0x18 build/asm/us/libultra/io/piacs.o
 .MIPS.abiflags
                0x0000000000000000       0x18 build/asm/us/libultra/io/piacs.o
 .pdr           0x0000000000000000        0x0 build/asm/us/libultra/io/piacs.o
 .gnu.attributes
                0x0000000000000000       0x10 build/asm/us/libultra/io/piacs.o
 .data          0x0000000000000000        0x0 build/lib/ultralib/src/io/pidma.o
 .bss           0x0000000000000000        0x0 build/lib/ultralib/src/io/pidma.o
 .reginfo       0x0000000000000000       0x18 build/lib/ultralib/src/io/pidma.o
 .note          0x0000000000000000       0x14 build/lib/ultralib/src/io/pidma.o
 .comment       0x0000000000000000       0x12 build/lib/ultralib/src/io/pidma.o
 .data          0x0000000000000000        0x0 build/lib/ultralib/src/io/aigetlen.o
 .bss           0x0000000000000000        0x0 build/lib/ultralib/src/io/aigetlen.o
 .reginfo       0x0000000000000000       0x18 build/lib/ultralib/src/io/aigetlen.o
 .note          0x0000000000000000       0x14 build/lib/ultralib/src/io/aigetlen.o
 .comment       0x0000000000000000       0x24 build/lib/ultralib/src/io/aigetlen.o
 .data          0x0000000000000000        0x0 build/lib/ultralib/src/io/aigetstat.o
 .bss           0x0000000000000000        0x0 build/lib/ultralib/src/io/aigetstat.o
 .reginfo       0x0000000000000000       0x18 build/lib/ultralib/src/io/aigetstat.o
 .note          0x0000000000000000       0x14 build/lib/ultralib/src/io/aigetstat.o
 .comment       0x0000000000000000       0x24 build/lib/ultralib/src/io/aigetstat.o
 .data          0x0000000000000000        0x0 build/lib/ultralib/src/io/aisetfreq.o
 .bss           0x0000000000000000        0x0 build/lib/ultralib/src/io/aisetfreq.o
 .reginfo       0x0000000000000000       0x18 build/lib/ultralib/src/io/aisetfreq.o
 .note          0x0000000000000000       0x14 build/lib/ultralib/src/io/aisetfreq.o
 .comment       0x0000000000000000       0x24 build/lib/ultralib/src/io/aisetfreq.o
 .bss           0x0000000000000000        0x0 build/lib/ultralib/src/io/aisetnextbuf.o
 .reginfo       0x0000000000000000       0x18 build/lib/ultralib/src/io/aisetnextbuf.o
 .note          0x0000000000000000       0x14 build/lib/ultralib/src/io/aisetnextbuf.o
 .comment       0x0000000000000000       0x24 build/lib/ultralib/src/io/aisetnextbuf.o
 .bss           0x0000000000000000        0x0 build/lib/ultralib/src/audio/env.o
 .reginfo       0x0000000000000000       0x18 build/lib/ultralib/src/audio/env.o
 .note          0x0000000000000000       0x14 build/lib/ultralib/src/audio/env.o
 .comment       0x0000000000000000       0x36 build/lib/ultralib/src/audio/env.o
 .bss           0x0000000000000000        0x0 build/lib/ultralib/src/audio/sl.o
 .reginfo       0x0000000000000000       0x18 build/lib/ultralib/src/audio/sl.o
 .note          0x0000000000000000       0x14 build/lib/ultralib/src/audio/sl.o
 .comment       0x0000000000000000       0x12 build/lib/ultralib/src/audio/sl.o
 .data          0x0000000000000000        0x0 build/lib/ultralib/src/audio/heapinit.o
 .bss           0x0000000000000000        0x0 build/lib/ultralib/src/audio/heapinit.o
 .reginfo       0x0000000000000000       0x18 build/lib/ultralib/src/audio/heapinit.o
 .note          0x0000000000000000       0x14 build/lib/ultralib/src/audio/heapinit.o
 .comment       0x0000000000000000       0x12 build/lib/ultralib/src/audio/heapinit.o
 .data          0x0000000000000000        0x0 build/lib/ultralib/src/audio/synthesizer.o
 .bss           0x0000000000000000        0x0 build/lib/ultralib/src/audio/synthesizer.o
 .reginfo       0x0000000000000000       0x18 build/lib/ultralib/src/audio/synthesizer.o
 .note          0x0000000000000000       0x14 build/lib/ultralib/src/audio/synthesizer.o
 .comment       0x0000000000000000       0x24 build/lib/ultralib/src/audio/synthesizer.o
 .data          0x0000000000000000        0x0 build/lib/ultralib/src/audio/syndelete.o
 .bss           0x0000000000000000        0x0 build/lib/ultralib/src/audio/syndelete.o
 .reginfo       0x0000000000000000       0x18 build/lib/ultralib/src/audio/syndelete.o
 .note          0x0000000000000000       0x14 build/lib/ultralib/src/audio/syndelete.o
 .comment       0x0000000000000000       0x12 build/lib/ultralib/src/audio/syndelete.o
 .data          0x0000000000000000        0x0 build/lib/ultralib/src/audio/synaddplayer.o
 .bss           0x0000000000000000        0x0 build/lib/ultralib/src/audio/synaddplayer.o
 .reginfo       0x0000000000000000       0x18 build/lib/ultralib/src/audio/synaddplayer.o
 .note          0x0000000000000000       0x14 build/lib/ultralib/src/audio/synaddplayer.o
 .comment       0x0000000000000000       0x12 build/lib/ultralib/src/audio/synaddplayer.o
 .data          0x0000000000000000        0x0 build/lib/ultralib/src/audio/synallocvoice.o
 .bss           0x0000000000000000        0x0 build/lib/ultralib/src/audio/synallocvoice.o
 .reginfo       0x0000000000000000       0x18 build/lib/ultralib/src/audio/synallocvoice.o
 .note          0x0000000000000000       0x14 build/lib/ultralib/src/audio/synallocvoice.o
 .comment       0x0000000000000000       0x12 build/lib/ultralib/src/audio/synallocvoice.o
 .data          0x0000000000000000        0x0 build/lib/ultralib/src/audio/synstopvoice.o
 .bss           0x0000000000000000        0x0 build/lib/ultralib/src/audio/synstopvoice.o
 .reginfo       0x0000000000000000       0x18 build/lib/ultralib/src/audio/synstopvoice.o
 .note          0x0000000000000000       0x14 build/lib/ultralib/src/audio/synstopvoice.o
 .comment       0x0000000000000000       0x12 build/lib/ultralib/src/audio/synstopvoice.o
 .data          0x0000000000000000        0x0 build/lib/ultralib/src/audio/synstartvoice.o
 .bss           0x0000000000000000        0x0 build/lib/ultralib/src/audio/synstartvoice.o
 .reginfo       0x0000000000000000       0x18 build/lib/ultralib/src/audio/synstartvoice.o
 .note          0x0000000000000000       0x14 build/lib/ultralib/src/audio/synstartvoice.o
 .comment       0x0000000000000000       0x12 build/lib/ultralib/src/audio/synstartvoice.o
 .data          0x0000000000000000        0x0 build/lib/ultralib/src/audio/synsetpitch.o
 .bss           0x0000000000000000        0x0 build/lib/ultralib/src/audio/synsetpitch.o
 .reginfo       0x0000000000000000       0x18 build/lib/ultralib/src/audio/synsetpitch.o
 .note          0x0000000000000000       0x14 build/lib/ultralib/src/audio/synsetpitch.o
 .comment       0x0000000000000000       0x12 build/lib/ultralib/src/audio/synsetpitch.o
 .data          0x0000000000000000        0x0 build/lib/ultralib/src/audio/synsetvol.o
 .bss           0x0000000000000000        0x0 build/lib/ultralib/src/audio/synsetvol.o
 .reginfo       0x0000000000000000       0x18 build/lib/ultralib/src/audio/synsetvol.o
 .note          0x0000000000000000       0x14 build/lib/ultralib/src/audio/synsetvol.o
 .comment       0x0000000000000000       0x12 build/lib/ultralib/src/audio/synsetvol.o
 .data          0x0000000000000000        0x0 build/lib/ultralib/src/audio/synsetfxmix.o
 .bss           0x0000000000000000        0x0 build/lib/ultralib/src/audio/synsetfxmix.o
 .reginfo       0x0000000000000000       0x18 build/lib/ultralib/src/audio/synsetfxmix.o
 .note          0x0000000000000000       0x14 build/lib/ultralib/src/audio/synsetfxmix.o
 .comment       0x0000000000000000       0x12 build/lib/ultralib/src/audio/synsetfxmix.o
 .data          0x0000000000000000        0x0 build/lib/ultralib/src/audio/synsetpan.o
 .bss           0x0000000000000000        0x0 build/lib/ultralib/src/audio/synsetpan.o
 .reginfo       0x0000000000000000       0x18 build/lib/ultralib/src/audio/synsetpan.o
 .note          0x0000000000000000       0x14 build/lib/ultralib/src/audio/synsetpan.o
 .comment       0x0000000000000000       0x12 build/lib/ultralib/src/audio/synsetpan.o
 .data          0x0000000000000000        0x0 build/lib/ultralib/src/audio/synallocfx.o
 .bss           0x0000000000000000        0x0 build/lib/ultralib/src/audio/synallocfx.o
 .reginfo       0x0000000000000000       0x18 build/lib/ultralib/src/audio/synallocfx.o
 .note          0x0000000000000000       0x14 build/lib/ultralib/src/audio/synallocfx.o
 .comment       0x0000000000000000       0x12 build/lib/ultralib/src/audio/synallocfx.o
 .data          0x0000000000000000        0x0 build/lib/ultralib/src/os/invaldcache.o
 .bss           0x0000000000000000        0x0 build/lib/ultralib/src/os/invaldcache.o
 .reginfo       0x0000000000000000       0x18 build/lib/ultralib/src/os/invaldcache.o
 .data          0x0000000000000000        0x0 build/lib/ultralib/src/os/writebackdcacheall.o
 .bss           0x0000000000000000        0x0 build/lib/ultralib/src/os/writebackdcacheall.o
 .reginfo       0x0000000000000000       0x18 build/lib/ultralib/src/os/writebackdcacheall.o
 .data          0x0000000000000000        0x0 build/lib/ultralib/src/io/contquery.o
 .bss           0x0000000000000000        0x0 build/lib/ultralib/src/io/contquery.o
 .reginfo       0x0000000000000000       0x18 build/lib/ultralib/src/io/contquery.o
 .note          0x0000000000000000       0x14 build/lib/ultralib/src/io/contquery.o
 .comment       0x0000000000000000       0x12 build/lib/ultralib/src/io/contquery.o
 .data          0x0000000000000000        0x0 build/lib/ultralib/src/io/contreaddata.o
 .bss           0x0000000000000000        0x0 build/lib/ultralib/src/io/contreaddata.o
 .reginfo       0x0000000000000000       0x18 build/lib/ultralib/src/io/contreaddata.o
 .note          0x0000000000000000       0x14 build/lib/ultralib/src/io/contreaddata.o
 .comment       0x0000000000000000       0x12 build/lib/ultralib/src/io/contreaddata.o
 .data          0x0000000000000000        0x0 build/asm/us/libultra/io/controller.o
 .bss           0x0000000000000000        0x0 build/asm/us/libultra/io/controller.o
 .reginfo       0x0000000000000000       0x18 build/asm/us/libultra/io/controller.o
 .MIPS.abiflags
                0x0000000000000000       0x18 build/asm/us/libultra/io/controller.o
 .pdr           0x0000000000000000        0x0 build/asm/us/libultra/io/controller.o
 .gnu.attributes
                0x0000000000000000       0x10 build/asm/us/libultra/io/controller.o
 .data          0x0000000000000000        0x0 build/lib/ultralib/src/io/contsetch.o
 .bss           0x0000000000000000        0x0 build/lib/ultralib/src/io/contsetch.o
 .reginfo       0x0000000000000000       0x18 build/lib/ultralib/src/io/contsetch.o
 .note          0x0000000000000000       0x14 build/lib/ultralib/src/io/contsetch.o
 .comment       0x0000000000000000       0x12 build/lib/ultralib/src/io/contsetch.o
 .data          0x0000000000000000        0x0 build/lib/ultralib/src/os/virtualtophysical.o
 .bss           0x0000000000000000        0x0 build/lib/ultralib/src/os/virtualtophysical.o
 .reginfo       0x0000000000000000       0x18 build/lib/ultralib/src/os/virtualtophysical.o
 .note          0x0000000000000000       0x14 build/lib/ultralib/src/os/virtualtophysical.o
 .comment       0x0000000000000000       0x12 build/lib/ultralib/src/os/virtualtophysical.o
 .data          0x0000000000000000        0x0 build/lib/ultralib/src/gu/sqrtf.o
 .bss           0x0000000000000000        0x0 build/lib/ultralib/src/gu/sqrtf.o
 .reginfo       0x0000000000000000       0x18 build/lib/ultralib/src/gu/sqrtf.o
 .data          0x0000000000000000        0x0 build/lib/ultralib/src/gu/cosf.o
 .bss           0x0000000000000000        0x0 build/lib/ultralib/src/gu/cosf.o
 .reginfo       0x0000000000000000       0x18 build/lib/ultralib/src/gu/cosf.o
 .note          0x0000000000000000       0x14 build/lib/ultralib/src/gu/cosf.o
 .comment       0x0000000000000000       0x12 build/lib/ultralib/src/gu/cosf.o
 .data          0x0000000000000000        0x0 build/lib/ultralib/src/gu/ortho.o
 .bss           0x0000000000000000        0x0 build/lib/ultralib/src/gu/ortho.o
 .reginfo       0x0000000000000000       0x18 build/lib/ultralib/src/gu/ortho.o
 .note          0x0000000000000000       0x14 build/lib/ultralib/src/gu/ortho.o
 .comment       0x0000000000000000       0x12 build/lib/ultralib/src/gu/ortho.o
 .data          0x0000000000000000        0x0 build/lib/ultralib/src/gu/perspective.o
 .bss           0x0000000000000000        0x0 build/lib/ultralib/src/gu/perspective.o
 .reginfo       0x0000000000000000       0x18 build/lib/ultralib/src/gu/perspective.o
 .note          0x0000000000000000       0x14 build/lib/ultralib/src/gu/perspective.o
 .comment       0x0000000000000000       0x12 build/lib/ultralib/src/gu/perspective.o
 .bss           0x0000000000000000        0x0 build/lib/ultralib/src/gu/rotaterpy.o
 .reginfo       0x0000000000000000       0x18 build/lib/ultralib/src/gu/rotaterpy.o
 .note          0x0000000000000000       0x14 build/lib/ultralib/src/gu/rotaterpy.o
 .comment       0x0000000000000000       0x12 build/lib/ultralib/src/gu/rotaterpy.o
 .data          0x0000000000000000        0x0 build/lib/ultralib/src/gu/sinf.o
 .bss           0x0000000000000000        0x0 build/lib/ultralib/src/gu/sinf.o
 .reginfo       0x0000000000000000       0x18 build/lib/ultralib/src/gu/sinf.o
 .note          0x0000000000000000       0x14 build/lib/ultralib/src/gu/sinf.o
 .comment       0x0000000000000000       0x12 build/lib/ultralib/src/gu/sinf.o
 .bss           0x0000000000000000        0x0 build/lib/ultralib/src/gu/sins.o
 .reginfo       0x0000000000000000       0x18 build/lib/ultralib/src/gu/sins.o
 .note          0x0000000000000000       0x14 build/lib/ultralib/src/gu/sins.o
 .comment       0x0000000000000000       0x12 build/lib/ultralib/src/gu/sins.o
 .data          0x0000000000000000        0x0 build/lib/ultralib/src/libc/bcmp.o
 .bss           0x0000000000000000        0x0 build/lib/ultralib/src/libc/bcmp.o
 .reginfo       0x0000000000000000       0x18 build/lib/ultralib/src/libc/bcmp.o
 .data          0x0000000000000000        0x0 build/lib/ultralib/src/libc/bcopy.o
 .bss           0x0000000000000000        0x0 build/lib/ultralib/src/libc/bcopy.o
 .reginfo       0x0000000000000000       0x18 build/lib/ultralib/src/libc/bcopy.o
 .data          0x0000000000000000        0x0 build/lib/ultralib/src/libc/bzero.o
 .bss           0x0000000000000000        0x0 build/lib/ultralib/src/libc/bzero.o
 .reginfo       0x0000000000000000       0x18 build/lib/ultralib/src/libc/bzero.o
 .data          0x0000000000000000        0x0 build/lib/ultralib/src/libc/string.o
 .bss           0x0000000000000000        0x0 build/lib/ultralib/src/libc/string.o
 .reginfo       0x0000000000000000       0x18 build/lib/ultralib/src/libc/string.o
 .note          0x0000000000000000       0x14 build/lib/ultralib/src/libc/string.o
 .comment       0x0000000000000000       0x24 build/lib/ultralib/src/libc/string.o
 .data          0x0000000000000000        0x0 build/lib/ultralib/src/os/createmesgqueue.o
 .bss           0x0000000000000000        0x0 build/lib/ultralib/src/os/createmesgqueue.o
 .reginfo       0x0000000000000000       0x18 build/lib/ultralib/src/os/createmesgqueue.o
 .note          0x0000000000000000       0x14 build/lib/ultralib/src/os/createmesgqueue.o
 .comment       0x0000000000000000       0x12 build/lib/ultralib/src/os/createmesgqueue.o
 .data          0x0000000000000000        0x0 build/lib/ultralib/src/os/jammesg.o
 .bss           0x0000000000000000        0x0 build/lib/ultralib/src/os/jammesg.o
 .reginfo       0x0000000000000000       0x18 build/lib/ultralib/src/os/jammesg.o
 .note          0x0000000000000000       0x14 build/lib/ultralib/src/os/jammesg.o
 .comment       0x0000000000000000       0x12 build/lib/ultralib/src/os/jammesg.o
 .data          0x0000000000000000        0x0 build/lib/ultralib/src/os/recvmesg.o
 .bss           0x0000000000000000        0x0 build/lib/ultralib/src/os/recvmesg.o
 .reginfo       0x0000000000000000       0x18 build/lib/ultralib/src/os/recvmesg.o
 .note          0x0000000000000000       0x14 build/lib/ultralib/src/os/recvmesg.o
 .comment       0x0000000000000000       0x12 build/lib/ultralib/src/os/recvmesg.o
 .data          0x0000000000000000        0x0 build/lib/ultralib/src/os/sendmesg.o
 .bss           0x0000000000000000        0x0 build/lib/ultralib/src/os/sendmesg.o
 .reginfo       0x0000000000000000       0x18 build/lib/ultralib/src/os/sendmesg.o
 .note          0x0000000000000000       0x14 build/lib/ultralib/src/os/sendmesg.o
 .comment       0x0000000000000000       0x12 build/lib/ultralib/src/os/sendmesg.o
 .data          0x0000000000000000        0x0 build/asm/us/libultra/os/seteventmesg.o
 .bss           0x0000000000000000        0x0 build/asm/us/libultra/os/seteventmesg.o
 .reginfo       0x0000000000000000       0x18 build/asm/us/libultra/os/seteventmesg.o
 .MIPS.abiflags
                0x0000000000000000       0x18 build/asm/us/libultra/os/seteventmesg.o
 .pdr           0x0000000000000000        0x0 build/asm/us/libultra/os/seteventmesg.o
 .gnu.attributes
                0x0000000000000000       0x10 build/asm/us/libultra/os/seteventmesg.o
 .data          0x0000000000000000        0x0 build/asm/us/libultra/io/sptask.o
 .bss           0x0000000000000000        0x0 build/asm/us/libultra/io/sptask.o
 .reginfo       0x0000000000000000       0x18 build/asm/us/libultra/io/sptask.o
 .MIPS.abiflags
                0x0000000000000000       0x18 build/asm/us/libultra/io/sptask.o
 .pdr           0x0000000000000000        0x0 build/asm/us/libultra/io/sptask.o
 .gnu.attributes
                0x0000000000000000       0x10 build/asm/us/libultra/io/sptask.o
 .data          0x0000000000000000        0x0 build/lib/ultralib/src/io/sptaskyield.o
 .bss           0x0000000000000000        0x0 build/lib/ultralib/src/io/sptaskyield.o
 .reginfo       0x0000000000000000       0x18 build/lib/ultralib/src/io/sptaskyield.o
 .note          0x0000000000000000       0x14 build/lib/ultralib/src/io/sptaskyield.o
 .comment       0x0000000000000000       0x12 build/lib/ultralib/src/io/sptaskyield.o
 .data          0x0000000000000000        0x0 build/lib/ultralib/src/io/sptaskyielded.o
 .bss           0x0000000000000000        0x0 build/lib/ultralib/src/io/sptaskyielded.o
 .reginfo       0x0000000000000000       0x18 build/lib/ultralib/src/io/sptaskyielded.o
 .note          0x0000000000000000       0x14 build/lib/ultralib/src/io/sptaskyielded.o
 .comment       0x0000000000000000       0x12 build/lib/ultralib/src/io/sptaskyielded.o
 .bss           0x0000000000000000        0x0 build/lib/ultralib/src/sched/sched.o
 .reginfo       0x0000000000000000       0x18 build/lib/ultralib/src/sched/sched.o
 .note          0x0000000000000000       0x14 build/lib/ultralib/src/sched/sched.o
 .comment       0x0000000000000000       0x24 build/lib/ultralib/src/sched/sched.o
 .data          0x0000000000000000        0x0 build/lib/ultralib/src/io/sirawdma.o
 .bss           0x0000000000000000        0x0 build/lib/ultralib/src/io/sirawdma.o
 .reginfo       0x0000000000000000       0x18 build/lib/ultralib/src/io/sirawdma.o
 .note          0x0000000000000000       0x14 build/lib/ultralib/src/io/sirawdma.o
 .comment       0x0000000000000000       0x24 build/lib/ultralib/src/io/sirawdma.o
 .data          0x0000000000000000        0x0 build/asm/us/libultra/io/siacs.o
 .bss           0x0000000000000000        0x0 build/asm/us/libultra/io/siacs.o
 .reginfo       0x0000000000000000       0x18 build/asm/us/libultra/io/siacs.o
 .MIPS.abiflags
                0x0000000000000000       0x18 build/asm/us/libultra/io/siacs.o
 .pdr           0x0000000000000000        0x0 build/asm/us/libultra/io/siacs.o
 .gnu.attributes
                0x0000000000000000       0x10 build/asm/us/libultra/io/siacs.o
 .data          0x0000000000000000        0x0 build/lib/ultralib/src/os/createthread.o
 .bss           0x0000000000000000        0x0 build/lib/ultralib/src/os/createthread.o
 .reginfo       0x0000000000000000       0x18 build/lib/ultralib/src/os/createthread.o
 .note          0x0000000000000000       0x14 build/lib/ultralib/src/os/createthread.o
 .comment       0x0000000000000000       0x12 build/lib/ultralib/src/os/createthread.o
 .data          0x0000000000000000        0x0 build/lib/ultralib/src/os/getthreadpri.o
 .bss           0x0000000000000000        0x0 build/lib/ultralib/src/os/getthreadpri.o
 .reginfo       0x0000000000000000       0x18 build/lib/ultralib/src/os/getthreadpri.o
 .note          0x0000000000000000       0x14 build/lib/ultralib/src/os/getthreadpri.o
 .comment       0x0000000000000000       0x12 build/lib/ultralib/src/os/getthreadpri.o
 .data          0x0000000000000000        0x0 build/lib/ultralib/src/os/setthreadpri.o
 .bss           0x0000000000000000        0x0 build/lib/ultralib/src/os/setthreadpri.o
 .reginfo       0x0000000000000000       0x18 build/lib/ultralib/src/os/setthreadpri.o
 .note          0x0000000000000000       0x14 build/lib/ultralib/src/os/setthreadpri.o
 .comment       0x0000000000000000       0x12 build/lib/ultralib/src/os/setthreadpri.o
 .data          0x0000000000000000        0x0 build/lib/ultralib/src/os/startthread.o
 .bss           0x0000000000000000        0x0 build/lib/ultralib/src/os/startthread.o
 .reginfo       0x0000000000000000       0x18 build/lib/ultralib/src/os/startthread.o
 .note          0x0000000000000000       0x14 build/lib/ultralib/src/os/startthread.o
 .comment       0x0000000000000000       0x12 build/lib/ultralib/src/os/startthread.o
 .data          0x0000000000000000        0x0 build/lib/ultralib/src/os/stopthread.o
 .bss           0x0000000000000000        0x0 build/lib/ultralib/src/os/stopthread.o
 .reginfo       0x0000000000000000       0x18 build/lib/ultralib/src/os/stopthread.o
 .note          0x0000000000000000       0x14 build/lib/ultralib/src/os/stopthread.o
 .comment       0x0000000000000000       0x12 build/lib/ultralib/src/os/stopthread.o
 .bss           0x0000000000000000        0x0 build/lib/ultralib/src/os/thread.o
 .reginfo       0x0000000000000000       0x18 build/lib/ultralib/src/os/thread.o
 .note          0x0000000000000000       0x14 build/lib/ultralib/src/os/thread.o
 .comment       0x0000000000000000       0x12 build/lib/ultralib/src/os/thread.o
 .data          0x0000000000000000        0x0 build/lib/ultralib/src/os/yieldthread.o
 .bss           0x0000000000000000        0x0 build/lib/ultralib/src/os/yieldthread.o
 .reginfo       0x0000000000000000       0x18 build/lib/ultralib/src/os/yieldthread.o
 .note          0x0000000000000000       0x14 build/lib/ultralib/src/os/yieldthread.o
 .comment       0x0000000000000000       0x12 build/lib/ultralib/src/os/yieldthread.o
 .data          0x0000000000000000        0x0 build/lib/ultralib/src/os/gettime.o
 .bss           0x0000000000000000        0x0 build/lib/ultralib/src/os/gettime.o
 .reginfo       0x0000000000000000       0x18 build/lib/ultralib/src/os/gettime.o
 .note          0x0000000000000000       0x14 build/lib/ultralib/src/os/gettime.o
 .comment       0x0000000000000000       0x12 build/lib/ultralib/src/os/gettime.o
 .data          0x0000000000000000        0x0 build/lib/ultralib/src/os/settime.o
 .bss           0x0000000000000000        0x0 build/lib/ultralib/src/os/settime.o
 .reginfo       0x0000000000000000       0x18 build/lib/ultralib/src/os/settime.o
 .note          0x0000000000000000       0x14 build/lib/ultralib/src/os/settime.o
 .comment       0x0000000000000000       0x12 build/lib/ultralib/src/os/settime.o
 .data          0x0000000000000000        0x0 build/lib/ultralib/src/os/settimer.o
 .bss           0x0000000000000000        0x0 build/lib/ultralib/src/os/settimer.o
 .reginfo       0x0000000000000000       0x18 build/lib/ultralib/src/os/settimer.o
 .note          0x0000000000000000       0x14 build/lib/ultralib/src/os/settimer.o
 .comment       0x0000000000000000       0x12 build/lib/ultralib/src/os/settimer.o
 .data          0x0000000000000000        0x0 build/asm/us/libultra/os/timerintr.o
 .bss           0x0000000000000000        0x0 build/asm/us/libultra/os/timerintr.o
 .reginfo       0x0000000000000000       0x18 build/asm/us/libultra/os/timerintr.o
 .MIPS.abiflags
                0x0000000000000000       0x18 build/asm/us/libultra/os/timerintr.o
 .pdr           0x0000000000000000        0x0 build/asm/us/libultra/os/timerintr.o
 .gnu.attributes
                0x0000000000000000       0x10 build/asm/us/libultra/os/timerintr.o
 .data          0x0000000000000000        0x0 build/lib/ultralib/src/os/probetlb.o
 .bss           0x0000000000000000        0x0 build/lib/ultralib/src/os/probetlb.o
 .reginfo       0x0000000000000000       0x18 build/lib/ultralib/src/os/probetlb.o
 .data          0x0000000000000000        0x0 build/lib/ultralib/src/io/vigetcurrframebuf.o
 .bss           0x0000000000000000        0x0 build/lib/ultralib/src/io/vigetcurrframebuf.o
 .reginfo       0x0000000000000000       0x18 build/lib/ultralib/src/io/vigetcurrframebuf.o
 .note          0x0000000000000000       0x14 build/lib/ultralib/src/io/vigetcurrframebuf.o
 .comment       0x0000000000000000       0x12 build/lib/ultralib/src/io/vigetcurrframebuf.o
 .data          0x0000000000000000        0x0 build/lib/ultralib/src/io/vigetnextframebuf.o
 .bss           0x0000000000000000        0x0 build/lib/ultralib/src/io/vigetnextframebuf.o
 .reginfo       0x0000000000000000       0x18 build/lib/ultralib/src/io/vigetnextframebuf.o
 .note          0x0000000000000000       0x14 build/lib/ultralib/src/io/vigetnextframebuf.o
 .comment       0x0000000000000000       0x12 build/lib/ultralib/src/io/vigetnextframebuf.o
 .data          0x0000000000000000        0x0 build/asm/us/libultra/io/vimgr.o
 .bss           0x0000000000000000        0x0 build/asm/us/libultra/io/vimgr.o
 .reginfo       0x0000000000000000       0x18 build/asm/us/libultra/io/vimgr.o
 .MIPS.abiflags
                0x0000000000000000       0x18 build/asm/us/libultra/io/vimgr.o
 .pdr           0x0000000000000000        0x0 build/asm/us/libultra/io/vimgr.o
 .gnu.attributes
                0x0000000000000000       0x10 build/asm/us/libultra/io/vimgr.o
 .data          0x0000000000000000        0x0 build/lib/ultralib/src/io/visetevent.o
 .bss           0x0000000000000000        0x0 build/lib/ultralib/src/io/visetevent.o
 .reginfo       0x0000000000000000       0x18 build/lib/ultralib/src/io/visetevent.o
 .note          0x0000000000000000       0x14 build/lib/ultralib/src/io/visetevent.o
 .comment       0x0000000000000000       0x24 build/lib/ultralib/src/io/visetevent.o
 .data          0x0000000000000000        0x0 build/lib/ultralib/src/io/visetmode.o
 .bss           0x0000000000000000        0x0 build/lib/ultralib/src/io/visetmode.o
 .reginfo       0x0000000000000000       0x18 build/lib/ultralib/src/io/visetmode.o
 .note          0x0000000000000000       0x14 build/lib/ultralib/src/io/visetmode.o
 .comment       0x0000000000000000       0x24 build/lib/ultralib/src/io/visetmode.o
 .data          0x0000000000000000        0x0 build/lib/ultralib/src/io/visetspecial.o
 .bss           0x0000000000000000        0x0 build/lib/ultralib/src/io/visetspecial.o
 .reginfo       0x0000000000000000       0x18 build/lib/ultralib/src/io/visetspecial.o
 .note          0x0000000000000000       0x14 build/lib/ultralib/src/io/visetspecial.o
 .comment       0x0000000000000000       0x24 build/lib/ultralib/src/io/visetspecial.o
 .data          0x0000000000000000        0x0 build/lib/ultralib/src/io/visetyscale.o
 .bss           0x0000000000000000        0x0 build/lib/ultralib/src/io/visetyscale.o
 .reginfo       0x0000000000000000       0x18 build/lib/ultralib/src/io/visetyscale.o
 .note          0x0000000000000000       0x14 build/lib/ultralib/src/io/visetyscale.o
 .comment       0x0000000000000000       0x24 build/lib/ultralib/src/io/visetyscale.o
 .data          0x0000000000000000        0x0 build/lib/ultralib/src/io/viswapbuf.o
 .bss           0x0000000000000000        0x0 build/lib/ultralib/src/io/viswapbuf.o
 .reginfo       0x0000000000000000       0x18 build/lib/ultralib/src/io/viswapbuf.o
 .note          0x0000000000000000       0x14 build/lib/ultralib/src/io/viswapbuf.o
 .comment       0x0000000000000000       0x24 build/lib/ultralib/src/io/viswapbuf.o
 .data          0x0000000000000000        0x0 build/lib/ultralib/src/io/viswapcontext.o
 .bss           0x0000000000000000        0x0 build/lib/ultralib/src/io/viswapcontext.o
 .reginfo       0x0000000000000000       0x18 build/lib/ultralib/src/io/viswapcontext.o
 .note          0x0000000000000000       0x14 build/lib/ultralib/src/io/viswapcontext.o
 .comment       0x0000000000000000       0x24 build/lib/ultralib/src/io/viswapcontext.o
 .data          0x0000000000000000        0x0 build/lib/ultralib/src/io/viblack.o
 .bss           0x0000000000000000        0x0 build/lib/ultralib/src/io/viblack.o
 .reginfo       0x0000000000000000       0x18 build/lib/ultralib/src/io/viblack.o
 .note          0x0000000000000000       0x14 build/lib/ultralib/src/io/viblack.o
 .comment       0x0000000000000000       0x24 build/lib/ultralib/src/io/viblack.o
 .data          0x0000000000000000        0x0 build/asm/us/libultra/nops_9990.o
 .bss           0x0000000000000000        0x0 build/asm/us/libultra/nops_9990.o
 .reginfo       0x0000000000000000       0x18 build/asm/us/libultra/nops_9990.o
 .MIPS.abiflags
                0x0000000000000000       0x18 build/asm/us/libultra/nops_9990.o
 .pdr           0x0000000000000000        0x0 build/asm/us/libultra/nops_9990.o
 .gnu.attributes
                0x0000000000000000       0x10 build/asm/us/libultra/nops_9990.o
 .data          0x0000000000000000        0x0 build/lib/ultralib/src/mgu/mtxident.o
 .bss           0x0000000000000000        0x0 build/lib/ultralib/src/mgu/mtxident.o
 .reginfo       0x0000000000000000       0x18 build/lib/ultralib/src/mgu/mtxident.o
 .data          0x0000000000000000        0x0 build/lib/ultralib/src/mgu/mtxidentf.o
 .bss           0x0000000000000000        0x0 build/lib/ultralib/src/mgu/mtxidentf.o
 .reginfo       0x0000000000000000       0x18 build/lib/ultralib/src/mgu/mtxidentf.o
 .data          0x0000000000000000        0x0 build/lib/ultralib/src/mgu/mtxf2l.o
 .bss           0x0000000000000000        0x0 build/lib/ultralib/src/mgu/mtxf2l.o
 .reginfo       0x0000000000000000       0x18 build/lib/ultralib/src/mgu/mtxf2l.o
 .data          0x0000000000000000        0x0 build/lib/ultralib/src/mgu/mtxl2f.o
 .bss           0x0000000000000000        0x0 build/lib/ultralib/src/mgu/mtxl2f.o
 .reginfo       0x0000000000000000       0x18 build/lib/ultralib/src/mgu/mtxl2f.o
 .data          0x0000000000000000        0x0 build/lib/ultralib/src/mgu/mtxcatf.o
 .bss           0x0000000000000000        0x0 build/lib/ultralib/src/mgu/mtxcatf.o
 .reginfo       0x0000000000000000       0x18 build/lib/ultralib/src/mgu/mtxcatf.o
 .data          0x0000000000000000        0x0 build/lib/ultralib/src/mgu/scale.o
 .bss           0x0000000000000000        0x0 build/lib/ultralib/src/mgu/scale.o
 .reginfo       0x0000000000000000       0x18 build/lib/ultralib/src/mgu/scale.o
 .data          0x0000000000000000        0x0 build/lib/ultralib/src/mgu/scalef.o
 .bss           0x0000000000000000        0x0 build/lib/ultralib/src/mgu/scalef.o
 .reginfo       0x0000000000000000       0x18 build/lib/ultralib/src/mgu/scalef.o
 .data          0x0000000000000000        0x0 build/lib/ultralib/src/mgu/translate.o
 .bss           0x0000000000000000        0x0 build/lib/ultralib/src/mgu/translate.o
 .reginfo       0x0000000000000000       0x18 build/lib/ultralib/src/mgu/translate.o
 .data          0x0000000000000000        0x0 build/lib/ultralib/src/mgu/translatef.o
 .bss           0x0000000000000000        0x0 build/lib/ultralib/src/mgu/translatef.o
 .reginfo       0x0000000000000000       0x18 build/lib/ultralib/src/mgu/translatef.o
 .data          0x0000000000000000        0x0 build/asm/us/libultra/os/initialize.o
 .bss           0x0000000000000000        0x0 build/asm/us/libultra/os/initialize.o
 .reginfo       0x0000000000000000       0x18 build/asm/us/libultra/os/initialize.o
 .MIPS.abiflags
                0x0000000000000000       0x18 build/asm/us/libultra/os/initialize.o
 .pdr           0x0000000000000000        0x0 build/asm/us/libultra/os/initialize.o
 .gnu.attributes
                0x0000000000000000       0x10 build/asm/us/libultra/os/initialize.o
 .data          0x0000000000000000        0x0 build/asm/us/libultra/io/conteepread.o
 .bss           0x0000000000000000        0x0 build/asm/us/libultra/io/conteepread.o
 .reginfo       0x0000000000000000       0x18 build/asm/us/libultra/io/conteepread.o
 .MIPS.abiflags
                0x0000000000000000       0x18 build/asm/us/libultra/io/conteepread.o
 .pdr           0x0000000000000000        0x0 build/asm/us/libultra/io/conteepread.o
 .gnu.attributes
                0x0000000000000000       0x10 build/asm/us/libultra/io/conteepread.o
 .data          0x0000000000000000        0x0 build/asm/us/libultra/io/conteepwrite.o
 .bss           0x0000000000000000        0x0 build/asm/us/libultra/io/conteepwrite.o
 .reginfo       0x0000000000000000       0x18 build/asm/us/libultra/io/conteepwrite.o
 .MIPS.abiflags
                0x0000000000000000       0x18 build/asm/us/libultra/io/conteepwrite.o
 .pdr           0x0000000000000000        0x0 build/asm/us/libultra/io/conteepwrite.o
 .gnu.attributes
                0x0000000000000000       0x10 build/asm/us/libultra/io/conteepwrite.o
 .bss           0x0000000000000000        0x0 build/lib/ultralib/src/os/exceptasm.o
 .reginfo       0x0000000000000000       0x18 build/lib/ultralib/src/os/exceptasm.o
 .data          0x0000000000000000        0x0 build/lib/ultralib/src/os/interrupt.o
 .bss           0x0000000000000000        0x0 build/lib/ultralib/src/os/interrupt.o
 .reginfo       0x0000000000000000       0x18 build/lib/ultralib/src/os/interrupt.o
 .data          0x0000000000000000        0x0 build/lib/ultralib/src/os/setintmask.o
 .bss           0x0000000000000000        0x0 build/lib/ultralib/src/os/setintmask.o
 .reginfo       0x0000000000000000       0x18 build/lib/ultralib/src/os/setintmask.o
 .data          0x0000000000000000        0x0 build/lib/ultralib/src/os/setglobalintmask.o
 .bss           0x0000000000000000        0x0 build/lib/ultralib/src/os/setglobalintmask.o
 .reginfo       0x0000000000000000       0x18 build/lib/ultralib/src/os/setglobalintmask.o
 .note          0x0000000000000000       0x14 build/lib/ultralib/src/os/setglobalintmask.o
 .comment       0x0000000000000000       0x12 build/lib/ultralib/src/os/setglobalintmask.o
 .data          0x0000000000000000        0x0 build/lib/ultralib/src/os/resetglobalintmask.o
 .bss           0x0000000000000000        0x0 build/lib/ultralib/src/os/resetglobalintmask.o
 .reginfo       0x0000000000000000       0x18 build/lib/ultralib/src/os/resetglobalintmask.o
 .note          0x0000000000000000       0x14 build/lib/ultralib/src/os/resetglobalintmask.o
 .comment       0x0000000000000000       0x12 build/lib/ultralib/src/os/resetglobalintmask.o
 .data          0x0000000000000000        0x0 build/lib/ultralib/src/io/pirawdma.o
 .bss           0x0000000000000000        0x0 build/lib/ultralib/src/io/pirawdma.o
 .reginfo       0x0000000000000000       0x18 build/lib/ultralib/src/io/pirawdma.o
 .note          0x0000000000000000       0x14 build/lib/ultralib/src/io/pirawdma.o
 .comment       0x0000000000000000       0x24 build/lib/ultralib/src/io/pirawdma.o
 .data          0x0000000000000000        0x0 build/lib/ultralib/src/io/pigetcmdq.o
 .bss           0x0000000000000000        0x0 build/lib/ultralib/src/io/pigetcmdq.o
 .reginfo       0x0000000000000000       0x18 build/lib/ultralib/src/io/pigetcmdq.o
 .note          0x0000000000000000       0x14 build/lib/ultralib/src/io/pigetcmdq.o
 .comment       0x0000000000000000       0x12 build/lib/ultralib/src/io/pigetcmdq.o
 .data          0x0000000000000000        0x0 build/lib/ultralib/src/io/epirawread.o
 .bss           0x0000000000000000        0x0 build/lib/ultralib/src/io/epirawread.o
 .reginfo       0x0000000000000000       0x18 build/lib/ultralib/src/io/epirawread.o
 .note          0x0000000000000000       0x14 build/lib/ultralib/src/io/epirawread.o
 .comment       0x0000000000000000       0x24 build/lib/ultralib/src/io/epirawread.o
 .data          0x0000000000000000        0x0 build/lib/ultralib/src/io/epirawwrite.o
 .bss           0x0000000000000000        0x0 build/lib/ultralib/src/io/epirawwrite.o
 .reginfo       0x0000000000000000       0x18 build/lib/ultralib/src/io/epirawwrite.o
 .note          0x0000000000000000       0x14 build/lib/ultralib/src/io/epirawwrite.o
 .comment       0x0000000000000000       0x24 build/lib/ultralib/src/io/epirawwrite.o
 .data          0x0000000000000000        0x0 build/lib/ultralib/src/io/ai.o
 .bss           0x0000000000000000        0x0 build/lib/ultralib/src/io/ai.o
 .reginfo       0x0000000000000000       0x18 build/lib/ultralib/src/io/ai.o
 .note          0x0000000000000000       0x14 build/lib/ultralib/src/io/ai.o
 .comment       0x0000000000000000       0x24 build/lib/ultralib/src/io/ai.o
 .bss           0x0000000000000000        0x0 build/lib/ultralib/src/audio/drvrnew.o
 .reginfo       0x0000000000000000       0x18 build/lib/ultralib/src/audio/drvrnew.o
 .note          0x0000000000000000       0x14 build/lib/ultralib/src/audio/drvrnew.o
 .comment       0x0000000000000000       0x24 build/lib/ultralib/src/audio/drvrnew.o
 .data          0x0000000000000000        0x0 build/lib/ultralib/src/audio/load.o
 .bss           0x0000000000000000        0x0 build/lib/ultralib/src/audio/load.o
 .reginfo       0x0000000000000000       0x18 build/lib/ultralib/src/audio/load.o
 .note          0x0000000000000000       0x14 build/lib/ultralib/src/audio/load.o
 .comment       0x0000000000000000       0x12 build/lib/ultralib/src/audio/load.o
 .data          0x0000000000000000        0x0 build/lib/ultralib/src/audio/auxbus.o
 .bss           0x0000000000000000        0x0 build/lib/ultralib/src/audio/auxbus.o
 .reginfo       0x0000000000000000       0x18 build/lib/ultralib/src/audio/auxbus.o
 .note          0x0000000000000000       0x14 build/lib/ultralib/src/audio/auxbus.o
 .comment       0x0000000000000000       0x12 build/lib/ultralib/src/audio/auxbus.o
 .data          0x0000000000000000        0x0 build/lib/ultralib/src/audio/filter.o
 .bss           0x0000000000000000        0x0 build/lib/ultralib/src/audio/filter.o
 .reginfo       0x0000000000000000       0x18 build/lib/ultralib/src/audio/filter.o
 .note          0x0000000000000000       0x14 build/lib/ultralib/src/audio/filter.o
 .comment       0x0000000000000000       0x12 build/lib/ultralib/src/audio/filter.o
 .data          0x0000000000000000        0x0 build/lib/ultralib/src/audio/mainbus.o
 .bss           0x0000000000000000        0x0 build/lib/ultralib/src/audio/mainbus.o
 .reginfo       0x0000000000000000       0x18 build/lib/ultralib/src/audio/mainbus.o
 .note          0x0000000000000000       0x14 build/lib/ultralib/src/audio/mainbus.o
 .comment       0x0000000000000000       0x12 build/lib/ultralib/src/audio/mainbus.o
 .data          0x0000000000000000        0x0 build/lib/ultralib/src/audio/resample.o
 .bss           0x0000000000000000        0x0 build/lib/ultralib/src/audio/resample.o
 .reginfo       0x0000000000000000       0x18 build/lib/ultralib/src/audio/resample.o
 .note          0x0000000000000000       0x14 build/lib/ultralib/src/audio/resample.o
 .comment       0x0000000000000000       0x24 build/lib/ultralib/src/audio/resample.o
 .data          0x0000000000000000       0x20 build/lib/ultralib/src/audio/reverb.o
 .bss           0x0000000000000000        0x0 build/lib/ultralib/src/audio/reverb.o
 .reginfo       0x0000000000000000       0x18 build/lib/ultralib/src/audio/reverb.o
 .note          0x0000000000000000       0x14 build/lib/ultralib/src/audio/reverb.o
 .comment       0x0000000000000000       0x36 build/lib/ultralib/src/audio/reverb.o
 .data          0x0000000000000000        0x0 build/lib/ultralib/src/audio/save.o
 .bss           0x0000000000000000        0x0 build/lib/ultralib/src/audio/save.o
 .reginfo       0x0000000000000000       0x18 build/lib/ultralib/src/audio/save.o
 .note          0x0000000000000000       0x14 build/lib/ultralib/src/audio/save.o
 .comment       0x0000000000000000       0x24 build/lib/ultralib/src/audio/save.o
 .data          0x0000000000000000        0x0 build/lib/ultralib/src/audio/heapalloc.o
 .bss           0x0000000000000000        0x0 build/lib/ultralib/src/audio/heapalloc.o
 .reginfo       0x0000000000000000       0x18 build/lib/ultralib/src/audio/heapalloc.o
 .note          0x0000000000000000       0x14 build/lib/ultralib/src/audio/heapalloc.o
 .comment       0x0000000000000000       0x12 build/lib/ultralib/src/audio/heapalloc.o
 .data          0x0000000000000000        0x0 build/lib/ultralib/src/audio/copy.o
 .bss           0x0000000000000000        0x0 build/lib/ultralib/src/audio/copy.o
 .reginfo       0x0000000000000000       0x18 build/lib/ultralib/src/audio/copy.o
 .note          0x0000000000000000       0x14 build/lib/ultralib/src/audio/copy.o
 .comment       0x0000000000000000       0x12 build/lib/ultralib/src/audio/copy.o
 .data          0x0000000000000000        0x0 build/lib/ultralib/src/os/invalicache.o
 .bss           0x0000000000000000        0x0 build/lib/ultralib/src/os/invalicache.o
 .reginfo       0x0000000000000000       0x18 build/lib/ultralib/src/os/invalicache.o
 .data          0x0000000000000000        0x0 build/lib/ultralib/src/os/writebackdcache.o
 .bss           0x0000000000000000        0x0 build/lib/ultralib/src/os/writebackdcache.o
 .reginfo       0x0000000000000000       0x18 build/lib/ultralib/src/os/writebackdcache.o
 .data          0x0000000000000000        0x0 build/lib/ultralib/src/io/dpsetnextbuf.o
 .bss           0x0000000000000000        0x0 build/lib/ultralib/src/io/dpsetnextbuf.o
 .reginfo       0x0000000000000000       0x18 build/lib/ultralib/src/io/dpsetnextbuf.o
 .note          0x0000000000000000       0x14 build/lib/ultralib/src/io/dpsetnextbuf.o
 .comment       0x0000000000000000       0x24 build/lib/ultralib/src/io/dpsetnextbuf.o
 .data          0x0000000000000000        0x0 build/lib/ultralib/src/os/getcause.o
 .bss           0x0000000000000000        0x0 build/lib/ultralib/src/os/getcause.o
 .reginfo       0x0000000000000000       0x18 build/lib/ultralib/src/os/getcause.o
 .data          0x0000000000000000        0x0 build/lib/ultralib/src/os/getcount.o
 .bss           0x0000000000000000        0x0 build/lib/ultralib/src/os/getcount.o
 .reginfo       0x0000000000000000       0x18 build/lib/ultralib/src/os/getcount.o
 .data          0x0000000000000000        0x0 build/lib/ultralib/src/os/getsr.o
 .bss           0x0000000000000000        0x0 build/lib/ultralib/src/os/getsr.o
 .reginfo       0x0000000000000000       0x18 build/lib/ultralib/src/os/getsr.o
 .data          0x0000000000000000        0x0 build/lib/ultralib/src/os/setcompare.o
 .bss           0x0000000000000000        0x0 build/lib/ultralib/src/os/setcompare.o
 .reginfo       0x0000000000000000       0x18 build/lib/ultralib/src/os/setcompare.o
 .data          0x0000000000000000        0x0 build/lib/ultralib/src/os/setfpccsr.o
 .bss           0x0000000000000000        0x0 build/lib/ultralib/src/os/setfpccsr.o
 .reginfo       0x0000000000000000       0x18 build/lib/ultralib/src/os/setfpccsr.o
 .data          0x0000000000000000        0x0 build/lib/ultralib/src/os/setsr.o
 .bss           0x0000000000000000        0x0 build/lib/ultralib/src/os/setsr.o
 .reginfo       0x0000000000000000       0x18 build/lib/ultralib/src/os/setsr.o
 .data          0x0000000000000000        0x0 build/lib/ultralib/src/os/setwatchlo.o
 .bss           0x0000000000000000        0x0 build/lib/ultralib/src/os/setwatchlo.o
 .reginfo       0x0000000000000000       0x18 build/lib/ultralib/src/os/setwatchlo.o
 .data          0x0000000000000000        0x0 build/lib/ultralib/src/io/sp.o
 .bss           0x0000000000000000        0x0 build/lib/ultralib/src/io/sp.o
 .reginfo       0x0000000000000000       0x18 build/lib/ultralib/src/io/sp.o
 .note          0x0000000000000000       0x14 build/lib/ultralib/src/io/sp.o
 .comment       0x0000000000000000       0x24 build/lib/ultralib/src/io/sp.o
 .data          0x0000000000000000        0x0 build/lib/ultralib/src/io/spgetstat.o
 .bss           0x0000000000000000        0x0 build/lib/ultralib/src/io/spgetstat.o
 .reginfo       0x0000000000000000       0x18 build/lib/ultralib/src/io/spgetstat.o
 .note          0x0000000000000000       0x14 build/lib/ultralib/src/io/spgetstat.o
 .comment       0x0000000000000000       0x24 build/lib/ultralib/src/io/spgetstat.o
 .data          0x0000000000000000        0x0 build/lib/ultralib/src/io/spsetstat.o
 .bss           0x0000000000000000        0x0 build/lib/ultralib/src/io/spsetstat.o
 .reginfo       0x0000000000000000       0x18 build/lib/ultralib/src/io/spsetstat.o
 .note          0x0000000000000000       0x14 build/lib/ultralib/src/io/spsetstat.o
 .comment       0x0000000000000000       0x24 build/lib/ultralib/src/io/spsetstat.o
 .data          0x0000000000000000        0x0 build/lib/ultralib/src/io/spsetpc.o
 .bss           0x0000000000000000        0x0 build/lib/ultralib/src/io/spsetpc.o
 .reginfo       0x0000000000000000       0x18 build/lib/ultralib/src/io/spsetpc.o
 .note          0x0000000000000000       0x14 build/lib/ultralib/src/io/spsetpc.o
 .comment       0x0000000000000000       0x24 build/lib/ultralib/src/io/spsetpc.o
 .data          0x0000000000000000        0x0 build/lib/ultralib/src/io/sprawdma.o
 .bss           0x0000000000000000        0x0 build/lib/ultralib/src/io/sprawdma.o
 .reginfo       0x0000000000000000       0x18 build/lib/ultralib/src/io/sprawdma.o
 .note          0x0000000000000000       0x14 build/lib/ultralib/src/io/sprawdma.o
 .comment       0x0000000000000000       0x24 build/lib/ultralib/src/io/sprawdma.o
 .data          0x0000000000000000        0x0 build/lib/ultralib/src/io/sirawread.o
 .bss           0x0000000000000000        0x0 build/lib/ultralib/src/io/sirawread.o
 .reginfo       0x0000000000000000       0x18 build/lib/ultralib/src/io/sirawread.o
 .note          0x0000000000000000       0x14 build/lib/ultralib/src/io/sirawread.o
 .comment       0x0000000000000000       0x24 build/lib/ultralib/src/io/sirawread.o
 .data          0x0000000000000000        0x0 build/lib/ultralib/src/io/sirawwrite.o
 .bss           0x0000000000000000        0x0 build/lib/ultralib/src/io/sirawwrite.o
 .reginfo       0x0000000000000000       0x18 build/lib/ultralib/src/io/sirawwrite.o
 .note          0x0000000000000000       0x14 build/lib/ultralib/src/io/sirawwrite.o
 .comment       0x0000000000000000       0x24 build/lib/ultralib/src/io/sirawwrite.o
 .data          0x0000000000000000        0x0 build/lib/ultralib/src/os/destroythread.o
 .bss           0x0000000000000000        0x0 build/lib/ultralib/src/os/destroythread.o
 .reginfo       0x0000000000000000       0x18 build/lib/ultralib/src/os/destroythread.o
 .note          0x0000000000000000       0x14 build/lib/ultralib/src/os/destroythread.o
 .comment       0x0000000000000000       0x12 build/lib/ultralib/src/os/destroythread.o
 .data          0x0000000000000000        0x0 build/lib/ultralib/src/os/maptlbrdb.o
 .bss           0x0000000000000000        0x0 build/lib/ultralib/src/os/maptlbrdb.o
 .reginfo       0x0000000000000000       0x18 build/lib/ultralib/src/os/maptlbrdb.o
 .data          0x0000000000000000        0x0 build/lib/ultralib/src/os/unmaptlball.o
 .bss           0x0000000000000000        0x0 build/lib/ultralib/src/os/unmaptlball.o
 .reginfo       0x0000000000000000       0x18 build/lib/ultralib/src/os/unmaptlball.o
 .data          0x0000000000000000        0x0 build/asm/us/libultra/io/vi.o
 .bss           0x0000000000000000        0x0 build/asm/us/libultra/io/vi.o
 .reginfo       0x0000000000000000       0x18 build/asm/us/libultra/io/vi.o
 .MIPS.abiflags
                0x0000000000000000       0x18 build/asm/us/libultra/io/vi.o
 .pdr           0x0000000000000000        0x0 build/asm/us/libultra/io/vi.o
 .gnu.attributes
                0x0000000000000000       0x10 build/asm/us/libultra/io/vi.o
 .data          0x0000000000000000        0x0 build/lib/ultralib/src/io/vigetcurrcontext.o
 .bss           0x0000000000000000        0x0 build/lib/ultralib/src/io/vigetcurrcontext.o
 .reginfo       0x0000000000000000       0x18 build/lib/ultralib/src/io/vigetcurrcontext.o
 .note          0x0000000000000000       0x14 build/lib/ultralib/src/io/vigetcurrcontext.o
 .comment       0x0000000000000000       0x24 build/lib/ultralib/src/io/vigetcurrcontext.o
 .data          0x0000000000000000        0x0 build/lib/ultralib/src/os/parameters.o
 .bss           0x0000000000000000        0x0 build/lib/ultralib/src/os/parameters.o
 .reginfo       0x0000000000000000       0x18 build/lib/ultralib/src/os/parameters.o
 .data          0x0000000000000000        0x0 build/lib/ultralib/src/io/dp.o
 .bss           0x0000000000000000        0x0 build/lib/ultralib/src/io/dp.o
 .reginfo       0x0000000000000000       0x18 build/lib/ultralib/src/io/dp.o
 .note          0x0000000000000000       0x14 build/lib/ultralib/src/io/dp.o
 .comment       0x0000000000000000       0x24 build/lib/ultralib/src/io/dp.o
 .data          0x0000000000000000        0x0 build/lib/ultralib/src/io/si.o
 .bss           0x0000000000000000        0x0 build/lib/ultralib/src/io/si.o
 .reginfo       0x0000000000000000       0x18 build/lib/ultralib/src/io/si.o
 .note          0x0000000000000000       0x14 build/lib/ultralib/src/io/si.o
 .comment       0x0000000000000000       0x24 build/lib/ultralib/src/io/si.o
 .data          0x0000000000000000        0x0 build/src/libkmc/fmod.o
 .bss           0x0000000000000000        0x0 build/src/libkmc/fmod.o
 .reginfo       0x0000000000000000       0x18 build/src/libkmc/fmod.o
 .note          0x0000000000000000       0x14 build/src/libkmc/fmod.o
 .comment       0x0000000000000000       0x12 build/src/libkmc/fmod.o
 .data          0x0000000000000000        0x0 build/src/libkmc/memmove.o
 .bss           0x0000000000000000        0x0 build/src/libkmc/memmove.o
 .reginfo       0x0000000000000000       0x18 build/src/libkmc/memmove.o
 .note          0x0000000000000000       0x14 build/src/libkmc/memmove.o
 .comment       0x0000000000000000       0x12 build/src/libkmc/memmove.o
 .data          0x0000000000000000        0x0 build/src/libkmc/memset.o
 .bss           0x0000000000000000        0x0 build/src/libkmc/memset.o
 .reginfo       0x0000000000000000       0x18 build/src/libkmc/memset.o
 .note          0x0000000000000000       0x14 build/src/libkmc/memset.o
 .comment       0x0000000000000000       0x12 build/src/libkmc/memset.o
 .data          0x0000000000000000        0x0 build/src/libkmc/modf.o
 .bss           0x0000000000000000        0x0 build/src/libkmc/modf.o
 .reginfo       0x0000000000000000       0x18 build/src/libkmc/modf.o
 .note          0x0000000000000000       0x14 build/src/libkmc/modf.o
 .comment       0x0000000000000000       0x12 build/src/libkmc/modf.o
 .data          0x0000000000000000        0x0 build/src/libkmc/rand.o
 .reginfo       0x0000000000000000       0x18 build/src/libkmc/rand.o
 .note          0x0000000000000000       0x14 build/src/libkmc/rand.o
 .comment       0x0000000000000000       0x12 build/src/libkmc/rand.o
 .data          0x0000000000000000        0x0 build/src/libkmc/strcpy.o
 .bss           0x0000000000000000        0x0 build/src/libkmc/strcpy.o
 .reginfo       0x0000000000000000       0x18 build/src/libkmc/strcpy.o
 .note          0x0000000000000000       0x14 build/src/libkmc/strcpy.o
 .comment       0x0000000000000000       0x12 build/src/libkmc/strcpy.o
 .data          0x0000000000000000        0x0 build/src/libkmc/mmuldi3.o
 .bss           0x0000000000000000        0x0 build/src/libkmc/mmuldi3.o
 .reginfo       0x0000000000000000       0x18 build/src/libkmc/mmuldi3.o
 .MIPS.abiflags
                0x0000000000000000       0x18 build/src/libkmc/mmuldi3.o
 .pdr           0x0000000000000000       0xe0 build/src/libkmc/mmuldi3.o
 .gnu.attributes
                0x0000000000000000       0x10 build/src/libkmc/mmuldi3.o
 .text          0x0000000000000000        0x0 build/asm/us/data/boot/00EDB0.data.o
 .bss           0x0000000000000000        0x0 build/asm/us/data/boot/00EDB0.data.o
 .reginfo       0x0000000000000000       0x18 build/asm/us/data/boot/00EDB0.data.o
 .MIPS.abiflags
                0x0000000000000000       0x18 build/asm/us/data/boot/00EDB0.data.o
 .pdr           0x0000000000000000        0x0 build/asm/us/data/boot/00EDB0.data.o
 .gnu.attributes
                0x0000000000000000       0x10 build/asm/us/data/boot/00EDB0.data.o
 .text          0x0000000000000000        0x0 build/asm/us/data/libultra/pimgr.data.o
 .bss           0x0000000000000000        0x0 build/asm/us/data/libultra/pimgr.data.o
 .reginfo       0x0000000000000000       0x18 build/asm/us/data/libultra/pimgr.data.o
 .MIPS.abiflags
                0x0000000000000000       0x18 build/asm/us/data/libultra/pimgr.data.o
 .pdr           0x0000000000000000        0x0 build/asm/us/data/libultra/pimgr.data.o
 .gnu.attributes
                0x0000000000000000       0x10 build/asm/us/data/libultra/pimgr.data.o
 .text          0x0000000000000000        0x0 build/asm/us/data/libultra/cartrominit.data.o
 .bss           0x0000000000000000        0x0 build/asm/us/data/libultra/cartrominit.data.o
 .reginfo       0x0000000000000000       0x18 build/asm/us/data/libultra/cartrominit.data.o
 .MIPS.abiflags
                0x0000000000000000       0x18 build/asm/us/data/libultra/cartrominit.data.o
 .pdr           0x0000000000000000        0x0 build/asm/us/data/libultra/cartrominit.data.o
 .gnu.attributes
                0x0000000000000000       0x10 build/asm/us/data/libultra/cartrominit.data.o
 .text          0x0000000000000000        0x0 build/asm/us/data/libultra/piacs.data.o
 .bss           0x0000000000000000        0x0 build/asm/us/data/libultra/piacs.data.o
 .reginfo       0x0000000000000000       0x18 build/asm/us/data/libultra/piacs.data.o
 .MIPS.abiflags
                0x0000000000000000       0x18 build/asm/us/data/libultra/piacs.data.o
 .pdr           0x0000000000000000        0x0 build/asm/us/data/libultra/piacs.data.o
 .gnu.attributes
                0x0000000000000000       0x10 build/asm/us/data/libultra/piacs.data.o
 .text          0x0000000000000000        0x0 build/asm/us/data/libultra/controller.data.o
 .bss           0x0000000000000000        0x0 build/asm/us/data/libultra/controller.data.o
 .reginfo       0x0000000000000000       0x18 build/asm/us/data/libultra/controller.data.o
 .MIPS.abiflags
                0x0000000000000000       0x18 build/asm/us/data/libultra/controller.data.o
 .pdr           0x0000000000000000        0x0 build/asm/us/data/libultra/controller.data.o
 .gnu.attributes
                0x0000000000000000       0x10 build/asm/us/data/libultra/controller.data.o
 .text          0x0000000000000000        0x0 build/asm/us/data/libultra/seteventmesg.data.o
 .bss           0x0000000000000000        0x0 build/asm/us/data/libultra/seteventmesg.data.o
 .reginfo       0x0000000000000000       0x18 build/asm/us/data/libultra/seteventmesg.data.o
 .MIPS.abiflags
                0x0000000000000000       0x18 build/asm/us/data/libultra/seteventmesg.data.o
 .pdr           0x0000000000000000        0x0 build/asm/us/data/libultra/seteventmesg.data.o
 .gnu.attributes
                0x0000000000000000       0x10 build/asm/us/data/libultra/seteventmesg.data.o
 .text          0x0000000000000000        0x0 build/asm/us/data/libultra/siacs.data.o
 .bss           0x0000000000000000        0x0 build/asm/us/data/libultra/siacs.data.o
 .reginfo       0x0000000000000000       0x18 build/asm/us/data/libultra/siacs.data.o
 .MIPS.abiflags
                0x0000000000000000       0x18 build/asm/us/data/libultra/siacs.data.o
 .pdr           0x0000000000000000        0x0 build/asm/us/data/libultra/siacs.data.o
 .gnu.attributes
                0x0000000000000000       0x10 build/asm/us/data/libultra/siacs.data.o
 .text          0x0000000000000000        0x0 build/asm/us/data/libultra/timerintr.data.o
 .bss           0x0000000000000000        0x0 build/asm/us/data/libultra/timerintr.data.o
 .reginfo       0x0000000000000000       0x18 build/asm/us/data/libultra/timerintr.data.o
 .MIPS.abiflags
                0x0000000000000000       0x18 build/asm/us/data/libultra/timerintr.data.o
 .pdr           0x0000000000000000        0x0 build/asm/us/data/libultra/timerintr.data.o
 .gnu.attributes
                0x0000000000000000       0x10 build/asm/us/data/libultra/timerintr.data.o
 .text          0x0000000000000000        0x0 build/asm/us/data/libultra/vimgr.data.o
 .bss           0x0000000000000000        0x0 build/asm/us/data/libultra/vimgr.data.o
 .reginfo       0x0000000000000000       0x18 build/asm/us/data/libultra/vimgr.data.o
 .MIPS.abiflags
                0x0000000000000000       0x18 build/asm/us/data/libultra/vimgr.data.o
 .pdr           0x0000000000000000        0x0 build/asm/us/data/libultra/vimgr.data.o
 .gnu.attributes
                0x0000000000000000       0x10 build/asm/us/data/libultra/vimgr.data.o
 .text          0x0000000000000000        0x0 build/lib/ultralib/src/io/vitbl.o
 .bss           0x0000000000000000        0x0 build/lib/ultralib/src/io/vitbl.o
 .reginfo       0x0000000000000000       0x18 build/lib/ultralib/src/io/vitbl.o
 .note          0x0000000000000000       0x14 build/lib/ultralib/src/io/vitbl.o
 .comment       0x0000000000000000       0x12 build/lib/ultralib/src/io/vitbl.o
 .text          0x0000000000000000        0x0 build/asm/us/data/libultra/initialize.data.o
 .bss           0x0000000000000000        0x0 build/asm/us/data/libultra/initialize.data.o
 .reginfo       0x0000000000000000       0x18 build/asm/us/data/libultra/initialize.data.o
 .MIPS.abiflags
                0x0000000000000000       0x18 build/asm/us/data/libultra/initialize.data.o
 .pdr           0x0000000000000000        0x0 build/asm/us/data/libultra/initialize.data.o
 .gnu.attributes
                0x0000000000000000       0x10 build/asm/us/data/libultra/initialize.data.o
 .text          0x0000000000000000        0x0 build/asm/us/data/boot/0113C0.data.o
 .bss           0x0000000000000000        0x0 build/asm/us/data/boot/0113C0.data.o
 .reginfo       0x0000000000000000       0x18 build/asm/us/data/boot/0113C0.data.o
 .MIPS.abiflags
                0x0000000000000000       0x18 build/asm/us/data/boot/0113C0.data.o
 .pdr           0x0000000000000000        0x0 build/asm/us/data/boot/0113C0.data.o
 .gnu.attributes
                0x0000000000000000       0x10 build/asm/us/data/boot/0113C0.data.o
 .text          0x0000000000000000        0x0 build/asm/us/data/libultra/vi.data.o
 .bss           0x0000000000000000        0x0 build/asm/us/data/libultra/vi.data.o
 .reginfo       0x0000000000000000       0x18 build/asm/us/data/libultra/vi.data.o
 .MIPS.abiflags
                0x0000000000000000       0x18 build/asm/us/data/libultra/vi.data.o
 .pdr           0x0000000000000000        0x0 build/asm/us/data/libultra/vi.data.o
 .gnu.attributes
                0x0000000000000000       0x10 build/asm/us/data/libultra/vi.data.o
 .text          0x0000000000000000        0x0 build/lib/ultralib/src/vimodes/vimodentsclan1.o
 .bss           0x0000000000000000        0x0 build/lib/ultralib/src/vimodes/vimodentsclan1.o
 .reginfo       0x0000000000000000       0x18 build/lib/ultralib/src/vimodes/vimodentsclan1.o
 .note          0x0000000000000000       0x14 build/lib/ultralib/src/vimodes/vimodentsclan1.o
 .comment       0x0000000000000000       0x12 build/lib/ultralib/src/vimodes/vimodentsclan1.o
 .text          0x0000000000000000        0x0 build/lib/ultralib/src/vimodes/vimodepallan1.o
 .bss           0x0000000000000000        0x0 build/lib/ultralib/src/vimodes/vimodepallan1.o
 .reginfo       0x0000000000000000       0x18 build/lib/ultralib/src/vimodes/vimodepallan1.o
 .note          0x0000000000000000       0x14 build/lib/ultralib/src/vimodes/vimodepallan1.o
 .comment       0x0000000000000000       0x12 build/lib/ultralib/src/vimodes/vimodepallan1.o
 .text          0x0000000000000000        0x0 build/lib/ultralib/src/vimodes/vimodempallan1.o
 .bss           0x0000000000000000        0x0 build/lib/ultralib/src/vimodes/vimodempallan1.o
 .reginfo       0x0000000000000000       0x18 build/lib/ultralib/src/vimodes/vimodempallan1.o
 .note          0x0000000000000000       0x14 build/lib/ultralib/src/vimodes/vimodempallan1.o
 .comment       0x0000000000000000       0x12 build/lib/ultralib/src/vimodes/vimodempallan1.o
 .text          0x0000000000000000        0x0 build/src/libkmc/ctype.o
 .bss           0x0000000000000000        0x0 build/src/libkmc/ctype.o
 .reginfo       0x0000000000000000       0x18 build/src/libkmc/ctype.o
 .note          0x0000000000000000       0x14 build/src/libkmc/ctype.o
 .comment       0x0000000000000000       0x12 build/src/libkmc/ctype.o
 .text          0x0000000000000000        0x0 build/lib/ultralib/src/gu/libm_vals.o
 .data          0x0000000000000000        0x0 build/lib/ultralib/src/gu/libm_vals.o
 .bss           0x0000000000000000        0x0 build/lib/ultralib/src/gu/libm_vals.o
 .reginfo       0x0000000000000000       0x18 build/lib/ultralib/src/gu/libm_vals.o
 .text          0x0000000000000000        0x0 build/asm/us/data/boot/boot_main.bss.o
 .data          0x0000000000000000        0x0 build/asm/us/data/boot/boot_main.bss.o
 .reginfo       0x0000000000000000       0x18 build/asm/us/data/boot/boot_main.bss.o
 .MIPS.abiflags
                0x0000000000000000       0x18 build/asm/us/data/boot/boot_main.bss.o
 .pdr           0x0000000000000000        0x0 build/asm/us/data/boot/boot_main.bss.o
 .gnu.attributes
                0x0000000000000000       0x10 build/asm/us/data/boot/boot_main.bss.o
 .text          0x0000000000000000        0x0 build/asm/us/data/boot/800151C0.bss.o
 .data          0x0000000000000000        0x0 build/asm/us/data/boot/800151C0.bss.o
 .reginfo       0x0000000000000000       0x18 build/asm/us/data/boot/800151C0.bss.o
 .MIPS.abiflags
                0x0000000000000000       0x18 build/asm/us/data/boot/800151C0.bss.o
 .pdr           0x0000000000000000        0x0 build/asm/us/data/boot/800151C0.bss.o
 .gnu.attributes
                0x0000000000000000       0x10 build/asm/us/data/boot/800151C0.bss.o
 .text          0x0000000000000000        0x0 build/asm/us/data/libultra/pimgr.bss.o
 .data          0x0000000000000000        0x0 build/asm/us/data/libultra/pimgr.bss.o
 .reginfo       0x0000000000000000       0x18 build/asm/us/data/libultra/pimgr.bss.o
 .MIPS.abiflags
                0x0000000000000000       0x18 build/asm/us/data/libultra/pimgr.bss.o
 .pdr           0x0000000000000000        0x0 build/asm/us/data/libultra/pimgr.bss.o
 .gnu.attributes
                0x0000000000000000       0x10 build/asm/us/data/libultra/pimgr.bss.o
 .text          0x0000000000000000        0x0 build/asm/us/data/boot/8001A3B0.bss.o
 .data          0x0000000000000000        0x0 build/asm/us/data/boot/8001A3B0.bss.o
 .reginfo       0x0000000000000000       0x18 build/asm/us/data/boot/8001A3B0.bss.o
 .MIPS.abiflags
                0x0000000000000000       0x18 build/asm/us/data/boot/8001A3B0.bss.o
 .pdr           0x0000000000000000        0x0 build/asm/us/data/boot/8001A3B0.bss.o
 .gnu.attributes
                0x0000000000000000       0x10 build/asm/us/data/boot/8001A3B0.bss.o
 .text          0x0000000000000000        0x0 build/asm/us/data/boot/8001B640.bss.o
 .data          0x0000000000000000        0x0 build/asm/us/data/boot/8001B640.bss.o
 .reginfo       0x0000000000000000       0x18 build/asm/us/data/boot/8001B640.bss.o
 .MIPS.abiflags
                0x0000000000000000       0x18 build/asm/us/data/boot/8001B640.bss.o
 .pdr           0x0000000000000000        0x0 build/asm/us/data/boot/8001B640.bss.o
 .gnu.attributes
                0x0000000000000000       0x10 build/asm/us/data/boot/8001B640.bss.o
 .text          0x0000000000000000        0x0 build/asm/us/data/libultra/cartrominit.bss.o
 .data          0x0000000000000000        0x0 build/asm/us/data/libultra/cartrominit.bss.o
 .reginfo       0x0000000000000000       0x18 build/asm/us/data/libultra/cartrominit.bss.o
 .MIPS.abiflags
                0x0000000000000000       0x18 build/asm/us/data/libultra/cartrominit.bss.o
 .pdr           0x0000000000000000        0x0 build/asm/us/data/libultra/cartrominit.bss.o
 .gnu.attributes
                0x0000000000000000       0x10 build/asm/us/data/libultra/cartrominit.bss.o
 .text          0x0000000000000000        0x0 build/asm/us/data/boot/8001FA30.bss.o
 .data          0x0000000000000000        0x0 build/asm/us/data/boot/8001FA30.bss.o
 .reginfo       0x0000000000000000       0x18 build/asm/us/data/boot/8001FA30.bss.o
 .MIPS.abiflags
                0x0000000000000000       0x18 build/asm/us/data/boot/8001FA30.bss.o
 .pdr           0x0000000000000000        0x0 build/asm/us/data/boot/8001FA30.bss.o
 .gnu.attributes
                0x0000000000000000       0x10 build/asm/us/data/boot/8001FA30.bss.o
 .text          0x0000000000000000        0x0 build/src/dma_table/dma_table.o
 .bss           0x0000000000000000        0x0 build/src/dma_table/dma_table.o
 .reginfo       0x0000000000000000       0x18 build/src/dma_table/dma_table.o
 .note          0x0000000000000000       0x14 build/src/dma_table/dma_table.o
 .comment       0x0000000000000000       0x12 build/src/dma_table/dma_table.o
 .data          0x0000000000000000        0x0 build/src/main_segment/main.o
 .bss           0x0000000000000000        0x0 build/src/main_segment/main.o
 .reginfo       0x0000000000000000       0x18 build/src/main_segment/main.o
 .note          0x0000000000000000       0x14 build/src/main_segment/main.o
 .comment       0x0000000000000000       0x12 build/src/main_segment/main.o
 .bss           0x0000000000000000        0x0 build/src/main_segment/000280.o
 .reginfo       0x0000000000000000       0x18 build/src/main_segment/000280.o
 .note          0x0000000000000000       0x14 build/src/main_segment/000280.o
 .comment       0x0000000000000000       0x12 build/src/main_segment/000280.o
 .data          0x0000000000000000        0x0 build/src/main_segment/joy.o
 .bss           0x0000000000000000        0x0 build/src/main_segment/joy.o
 .reginfo       0x0000000000000000       0x18 build/src/main_segment/joy.o
 .note          0x0000000000000000       0x14 build/src/main_segment/joy.o
 .comment       0x0000000000000000       0x12 build/src/main_segment/joy.o
 .data          0x0000000000000000        0x0 build/src/main_segment/sound.o
 .bss           0x0000000000000000        0x0 build/src/main_segment/sound.o
 .reginfo       0x0000000000000000       0x18 build/src/main_segment/sound.o
 .note          0x0000000000000000       0x14 build/src/main_segment/sound.o
 .comment       0x0000000000000000       0x12 build/src/main_segment/sound.o
 .bss           0x0000000000000000        0x0 build/src/main_segment/graphic.o
 .reginfo       0x0000000000000000       0x18 build/src/main_segment/graphic.o
 .note          0x0000000000000000       0x14 build/src/main_segment/graphic.o
 .comment       0x0000000000000000       0x12 build/src/main_segment/graphic.o
 .data          0x0000000000000000        0x0 build/src/main_segment/graphics/static.o
 .bss           0x0000000000000000        0x0 build/src/main_segment/graphics/static.o
 .reginfo       0x0000000000000000       0x18 build/src/main_segment/graphics/static.o
 .note          0x0000000000000000       0x14 build/src/main_segment/graphics/static.o
 .comment       0x0000000000000000       0x12 build/src/main_segment/graphics/static.o
 .bss           0x0000000000000000        0x0 build/src/main_segment/audio/003520.o
 .reginfo       0x0000000000000000       0x18 build/src/main_segment/audio/003520.o
 .note          0x0000000000000000       0x14 build/src/main_segment/audio/003520.o
 .comment       0x0000000000000000       0x12 build/src/main_segment/audio/003520.o
 .bss           0x0000000000000000        0x0 build/src/main_segment/main1x.o
 .reginfo       0x0000000000000000       0x18 build/src/main_segment/main1x.o
 .note          0x0000000000000000       0x14 build/src/main_segment/main1x.o
 .comment       0x0000000000000000       0x12 build/src/main_segment/main1x.o
 .bss           0x0000000000000000        0x0 build/src/main_segment/vr_init.o
 .reginfo       0x0000000000000000       0x18 build/src/main_segment/vr_init.o
 .note          0x0000000000000000       0x14 build/src/main_segment/vr_init.o
 .comment       0x0000000000000000       0x12 build/src/main_segment/vr_init.o
 .data          0x0000000000000000        0x0 build/src/main_segment/aiset.o
 .bss           0x0000000000000000        0x0 build/src/main_segment/aiset.o
 .reginfo       0x0000000000000000       0x18 build/src/main_segment/aiset.o
 .note          0x0000000000000000       0x14 build/src/main_segment/aiset.o
 .comment       0x0000000000000000       0x12 build/src/main_segment/aiset.o
 .bss           0x0000000000000000        0x0 build/src/main_segment/record.o
 .reginfo       0x0000000000000000       0x18 build/src/main_segment/record.o
 .note          0x0000000000000000       0x14 build/src/main_segment/record.o
 .comment       0x0000000000000000       0x12 build/src/main_segment/record.o
 .data          0x0000000000000000        0x0 build/src/main_segment/020D10.o
 .bss           0x0000000000000000        0x0 build/src/main_segment/020D10.o
 .reginfo       0x0000000000000000       0x18 build/src/main_segment/020D10.o
 .note          0x0000000000000000       0x14 build/src/main_segment/020D10.o
 .comment       0x0000000000000000       0x12 build/src/main_segment/020D10.o
 .data          0x0000000000000000        0x0 build/src/main_segment/game_etc.o
 .bss           0x0000000000000000        0x0 build/src/main_segment/game_etc.o
 .reginfo       0x0000000000000000       0x18 build/src/main_segment/game_etc.o
 .note          0x0000000000000000       0x14 build/src/main_segment/game_etc.o
 .comment       0x0000000000000000       0x12 build/src/main_segment/game_etc.o
 .data          0x0000000000000000        0x0 build/src/main_segment/screen_print/printer.o
 .bss           0x0000000000000000        0x0 build/src/main_segment/screen_print/printer.o
 .reginfo       0x0000000000000000       0x18 build/src/main_segment/screen_print/printer.o
 .note          0x0000000000000000       0x14 build/src/main_segment/screen_print/printer.o
 .comment       0x0000000000000000       0x12 build/src/main_segment/screen_print/printer.o
 .reginfo       0x0000000000000000       0x18 build/src/main_segment/screen_print/printf_impl.o
 .note          0x0000000000000000       0x14 build/src/main_segment/screen_print/printf_impl.o
 .comment       0x0000000000000000       0x12 build/src/main_segment/screen_print/printf_impl.o
 .bss           0x0000000000000000        0x0 build/src/main_segment/screen_print/debug_print.o
 .reginfo       0x0000000000000000       0x18 build/src/main_segment/screen_print/debug_print.o
 .note          0x0000000000000000       0x14 build/src/main_segment/screen_print/debug_print.o
 .comment       0x0000000000000000       0x12 build/src/main_segment/screen_print/debug_print.o
 .bss           0x0000000000000000        0x0 build/src/main_segment/debug_menu.o
 .reginfo       0x0000000000000000       0x18 build/src/main_segment/debug_menu.o
 .note          0x0000000000000000       0x14 build/src/main_segment/debug_menu.o
 .comment       0x0000000000000000       0x12 build/src/main_segment/debug_menu.o
 .bss           0x0000000000000000        0x0 build/src/main_segment/028820.o
 .reginfo       0x0000000000000000       0x18 build/src/main_segment/028820.o
 .note          0x0000000000000000       0x14 build/src/main_segment/028820.o
 .comment       0x0000000000000000       0x12 build/src/main_segment/028820.o
 .bss           0x0000000000000000        0x0 build/src/main_segment/tex_func.o
 .reginfo       0x0000000000000000       0x18 build/src/main_segment/tex_func.o
 .note          0x0000000000000000       0x14 build/src/main_segment/tex_func.o
 .comment       0x0000000000000000       0x12 build/src/main_segment/tex_func.o
 .bss           0x0000000000000000        0x0 build/src/main_segment/main_menu.o
 .reginfo       0x0000000000000000       0x18 build/src/main_segment/main_menu.o
 .note          0x0000000000000000       0x14 build/src/main_segment/main_menu.o
 .comment       0x0000000000000000       0x12 build/src/main_segment/main_menu.o
 .bss           0x0000000000000000        0x0 build/src/main_segment/font.o
 .reginfo       0x0000000000000000       0x18 build/src/main_segment/font.o
 .note          0x0000000000000000       0x14 build/src/main_segment/font.o
 .comment       0x0000000000000000       0x12 build/src/main_segment/font.o
 .data          0x0000000000000000        0x0 build/src/main_segment/msgwnd.o
 .bss           0x0000000000000000        0x0 build/src/main_segment/msgwnd.o
 .reginfo       0x0000000000000000       0x18 build/src/main_segment/msgwnd.o
 .note          0x0000000000000000       0x14 build/src/main_segment/msgwnd.o
 .comment       0x0000000000000000       0x12 build/src/main_segment/msgwnd.o
 .data          0x0000000000000000        0x0 build/src/main_segment/char_anime.o
 .bss           0x0000000000000000        0x0 build/src/main_segment/char_anime.o
 .reginfo       0x0000000000000000       0x18 build/src/main_segment/char_anime.o
 .note          0x0000000000000000       0x14 build/src/main_segment/char_anime.o
 .comment       0x0000000000000000       0x12 build/src/main_segment/char_anime.o
 .data          0x0000000000000000        0x0 build/src/main_segment/dm_virus_init.o
 .bss           0x0000000000000000        0x0 build/src/main_segment/dm_virus_init.o
 .reginfo       0x0000000000000000       0x18 build/src/main_segment/dm_virus_init.o
 .note          0x0000000000000000       0x14 build/src/main_segment/dm_virus_init.o
 .comment       0x0000000000000000       0x12 build/src/main_segment/dm_virus_init.o
 .data          0x0000000000000000        0x0 build/src/main_segment/dm_game_main.o
 .bss           0x0000000000000000        0x0 build/src/main_segment/dm_game_main.o
 .reginfo       0x0000000000000000       0x18 build/src/main_segment/dm_game_main.o
 .note          0x0000000000000000       0x14 build/src/main_segment/dm_game_main.o
 .comment       0x0000000000000000       0x12 build/src/main_segment/dm_game_main.o
 .data          0x0000000000000000        0x0 build/src/main_segment/dm_manual_main.o
 .bss           0x0000000000000000        0x0 build/src/main_segment/dm_manual_main.o
 .reginfo       0x0000000000000000       0x18 build/src/main_segment/dm_manual_main.o
 .note          0x0000000000000000       0x14 build/src/main_segment/dm_manual_main.o
 .comment       0x0000000000000000       0x12 build/src/main_segment/dm_manual_main.o
 .data          0x0000000000000000        0x0 build/src/main_segment/dm_title_main.o
 .bss           0x0000000000000000        0x0 build/src/main_segment/dm_title_main.o
 .reginfo       0x0000000000000000       0x18 build/src/main_segment/dm_title_main.o
 .note          0x0000000000000000       0x14 build/src/main_segment/dm_title_main.o
 .comment       0x0000000000000000       0x12 build/src/main_segment/dm_title_main.o
 .data          0x0000000000000000        0x0 build/src/main_segment/main_story.o
 .bss           0x0000000000000000        0x0 build/src/main_segment/main_story.o
 .reginfo       0x0000000000000000       0x18 build/src/main_segment/main_story.o
 .note          0x0000000000000000       0x14 build/src/main_segment/main_story.o
 .comment       0x0000000000000000       0x12 build/src/main_segment/main_story.o
 .data          0x0000000000000000        0x0 build/src/main_segment/lws.o
 .bss           0x0000000000000000        0x0 build/src/main_segment/lws.o
 .reginfo       0x0000000000000000       0x18 build/src/main_segment/lws.o
 .note          0x0000000000000000       0x14 build/src/main_segment/lws.o
 .comment       0x0000000000000000       0x12 build/src/main_segment/lws.o
 .data          0x0000000000000000        0x0 build/src/main_segment/calc.o
 .bss           0x0000000000000000        0x0 build/src/main_segment/calc.o
 .reginfo       0x0000000000000000       0x18 build/src/main_segment/calc.o
 .note          0x0000000000000000       0x14 build/src/main_segment/calc.o
 .comment       0x0000000000000000       0x12 build/src/main_segment/calc.o
 .data          0x0000000000000000        0x0 build/src/main_segment/065080.o
 .bss           0x0000000000000000        0x0 build/src/main_segment/065080.o
 .reginfo       0x0000000000000000       0x18 build/src/main_segment/065080.o
 .note          0x0000000000000000       0x14 build/src/main_segment/065080.o
 .comment       0x0000000000000000       0x12 build/src/main_segment/065080.o
 .data          0x0000000000000000        0x0 build/src/main_segment/066080.o
 .bss           0x0000000000000000        0x0 build/src/main_segment/066080.o
 .reginfo       0x0000000000000000       0x18 build/src/main_segment/066080.o
 .note          0x0000000000000000       0x14 build/src/main_segment/066080.o
 .comment       0x0000000000000000       0x12 build/src/main_segment/066080.o
 .data          0x0000000000000000        0x0 build/src/main_segment/replay.o
 .bss           0x0000000000000000        0x0 build/src/main_segment/replay.o
 .reginfo       0x0000000000000000       0x18 build/src/main_segment/replay.o
 .note          0x0000000000000000       0x14 build/src/main_segment/replay.o
 .comment       0x0000000000000000       0x12 build/src/main_segment/replay.o
 .data          0x0000000000000000        0x0 build/src/main_segment/066580.o
 .bss           0x0000000000000000        0x0 build/src/main_segment/066580.o
 .reginfo       0x0000000000000000       0x18 build/src/main_segment/066580.o
 .note          0x0000000000000000       0x14 build/src/main_segment/066580.o
 .comment       0x0000000000000000       0x12 build/src/main_segment/066580.o
 .data          0x0000000000000000        0x0 build/asm/us/main_segment/066840.o
 .bss           0x0000000000000000        0x0 build/asm/us/main_segment/066840.o
 .reginfo       0x0000000000000000       0x18 build/asm/us/main_segment/066840.o
 .MIPS.abiflags
                0x0000000000000000       0x18 build/asm/us/main_segment/066840.o
 .pdr           0x0000000000000000        0x0 build/asm/us/main_segment/066840.o
 .gnu.attributes
                0x0000000000000000       0x10 build/asm/us/main_segment/066840.o
 .data          0x0000000000000000        0x0 build/src/main_segment/055C40.o
 .bss           0x0000000000000000        0x0 build/src/main_segment/055C40.o
 .reginfo       0x0000000000000000       0x18 build/src/main_segment/055C40.o
 .note          0x0000000000000000       0x14 build/src/main_segment/055C40.o
 .comment       0x0000000000000000       0x12 build/src/main_segment/055C40.o
 .data          0x0000000000000000        0x0 build/asm/us/libmus/player.o
 .bss           0x0000000000000000        0x0 build/asm/us/libmus/player.o
 .reginfo       0x0000000000000000       0x18 build/asm/us/libmus/player.o
 .MIPS.abiflags
                0x0000000000000000       0x18 build/asm/us/libmus/player.o
 .pdr           0x0000000000000000        0x0 build/asm/us/libmus/player.o
 .gnu.attributes
                0x0000000000000000       0x10 build/asm/us/libmus/player.o
 .bss           0x0000000000000000        0x0 build/lib/libmus/src/player_fx.o
 .reginfo       0x0000000000000000       0x18 build/lib/libmus/src/player_fx.o
 .note          0x0000000000000000       0x14 build/lib/libmus/src/player_fx.o
 .comment       0x0000000000000000       0x12 build/lib/libmus/src/player_fx.o
 COMMON         0x0000000000000000        0x0 build/lib/libmus/src/player_fx.o
 .data          0x0000000000000000        0x0 build/asm/us/libmus/aud_dma.o
 .bss           0x0000000000000000        0x0 build/asm/us/libmus/aud_dma.o
 .reginfo       0x0000000000000000       0x18 build/asm/us/libmus/aud_dma.o
 .MIPS.abiflags
                0x0000000000000000       0x18 build/asm/us/libmus/aud_dma.o
 .pdr           0x0000000000000000        0x0 build/asm/us/libmus/aud_dma.o
 .gnu.attributes
                0x0000000000000000       0x10 build/asm/us/libmus/aud_dma.o
 .data          0x0000000000000000        0x0 build/asm/us/libmus/aud_sched.o
 .bss           0x0000000000000000        0x0 build/asm/us/libmus/aud_sched.o
 .reginfo       0x0000000000000000       0x18 build/asm/us/libmus/aud_sched.o
 .MIPS.abiflags
                0x0000000000000000       0x18 build/asm/us/libmus/aud_sched.o
 .pdr           0x0000000000000000        0x0 build/asm/us/libmus/aud_sched.o
 .gnu.attributes
                0x0000000000000000       0x10 build/asm/us/libmus/aud_sched.o
 .data          0x0000000000000000        0x0 build/asm/us/libmus/aud_thread.o
 .bss           0x0000000000000000        0x0 build/asm/us/libmus/aud_thread.o
 .reginfo       0x0000000000000000       0x18 build/asm/us/libmus/aud_thread.o
 .MIPS.abiflags
                0x0000000000000000       0x18 build/asm/us/libmus/aud_thread.o
 .pdr           0x0000000000000000        0x0 build/asm/us/libmus/aud_thread.o
 .gnu.attributes
                0x0000000000000000       0x10 build/asm/us/libmus/aud_thread.o
 .data          0x0000000000000000        0x0 build/asm/us/libmus/lib_memory.o
 .bss           0x0000000000000000        0x0 build/asm/us/libmus/lib_memory.o
 .reginfo       0x0000000000000000       0x18 build/asm/us/libmus/lib_memory.o
 .MIPS.abiflags
                0x0000000000000000       0x18 build/asm/us/libmus/lib_memory.o
 .pdr           0x0000000000000000        0x0 build/asm/us/libmus/lib_memory.o
 .gnu.attributes
                0x0000000000000000       0x10 build/asm/us/libmus/lib_memory.o
 .data          0x0000000000000000        0x0 build/asm/us/libmus/aud_samples.o
 .bss           0x0000000000000000        0x0 build/asm/us/libmus/aud_samples.o
 .reginfo       0x0000000000000000       0x18 build/asm/us/libmus/aud_samples.o
 .MIPS.abiflags
                0x0000000000000000       0x18 build/asm/us/libmus/aud_samples.o
 .pdr           0x0000000000000000        0x0 build/asm/us/libmus/aud_samples.o
 .gnu.attributes
                0x0000000000000000       0x10 build/asm/us/libmus/aud_samples.o
 .text          0x0000000000000000        0x0 build/asm/us/data/rsp/rspboot.data.o
 .bss           0x0000000000000000        0x0 build/asm/us/data/rsp/rspboot.data.o
 .reginfo       0x0000000000000000       0x18 build/asm/us/data/rsp/rspboot.data.o
 .MIPS.abiflags
                0x0000000000000000       0x18 build/asm/us/data/rsp/rspboot.data.o
 .pdr           0x0000000000000000        0x0 build/asm/us/data/rsp/rspboot.data.o
 .gnu.attributes
                0x0000000000000000       0x10 build/asm/us/data/rsp/rspboot.data.o
 .text          0x0000000000000000        0x0 build/asm/us/data/rsp/aspMain.data.o
 .bss           0x0000000000000000        0x0 build/asm/us/data/rsp/aspMain.data.o
 .reginfo       0x0000000000000000       0x18 build/asm/us/data/rsp/aspMain.data.o
 .MIPS.abiflags
                0x0000000000000000       0x18 build/asm/us/data/rsp/aspMain.data.o
 .pdr           0x0000000000000000        0x0 build/asm/us/data/rsp/aspMain.data.o
 .gnu.attributes
                0x0000000000000000       0x10 build/asm/us/data/rsp/aspMain.data.o
 .text          0x0000000000000000        0x0 build/asm/us/data/rsp/f3dex2.data.o
 .bss           0x0000000000000000        0x0 build/asm/us/data/rsp/f3dex2.data.o
 .reginfo       0x0000000000000000       0x18 build/asm/us/data/rsp/f3dex2.data.o
 .MIPS.abiflags
                0x0000000000000000       0x18 build/asm/us/data/rsp/f3dex2.data.o
 .pdr           0x0000000000000000        0x0 build/asm/us/data/rsp/f3dex2.data.o
 .gnu.attributes
                0x0000000000000000       0x10 build/asm/us/data/rsp/f3dex2.data.o
 .text          0x0000000000000000        0x0 build/asm/us/data/rsp/s2dex.data.o
 .bss           0x0000000000000000        0x0 build/asm/us/data/rsp/s2dex.data.o
 .reginfo       0x0000000000000000       0x18 build/asm/us/data/rsp/s2dex.data.o
 .MIPS.abiflags
                0x0000000000000000       0x18 build/asm/us/data/rsp/s2dex.data.o
 .pdr           0x0000000000000000        0x0 build/asm/us/data/rsp/s2dex.data.o
 .gnu.attributes
                0x0000000000000000       0x10 build/asm/us/data/rsp/s2dex.data.o
 .text          0x0000000000000000        0x0 build/src/main_segment/graphics/graphic_dlists.o
 .bss           0x0000000000000000        0x0 build/src/main_segment/graphics/graphic_dlists.o
 .reginfo       0x0000000000000000       0x18 build/src/main_segment/graphics/graphic_dlists.o
 .note          0x0000000000000000       0x14 build/src/main_segment/graphics/graphic_dlists.o
 .comment       0x0000000000000000       0x12 build/src/main_segment/graphics/graphic_dlists.o
 .text          0x0000000000000000        0x0 build/asm/us/data/main_segment/aiset.data.o
 .bss           0x0000000000000000        0x0 build/asm/us/data/main_segment/aiset.data.o
 .reginfo       0x0000000000000000       0x18 build/asm/us/data/main_segment/aiset.data.o
 .MIPS.abiflags
                0x0000000000000000       0x18 build/asm/us/data/main_segment/aiset.data.o
 .pdr           0x0000000000000000        0x0 build/asm/us/data/main_segment/aiset.data.o
 .gnu.attributes
                0x0000000000000000       0x10 build/asm/us/data/main_segment/aiset.data.o
 .text          0x0000000000000000        0x0 build/asm/us/data/main_segment/020D10.data.o
 .bss           0x0000000000000000        0x0 build/asm/us/data/main_segment/020D10.data.o
 .reginfo       0x0000000000000000       0x18 build/asm/us/data/main_segment/020D10.data.o
 .MIPS.abiflags
                0x0000000000000000       0x18 build/asm/us/data/main_segment/020D10.data.o
 .pdr           0x0000000000000000        0x0 build/asm/us/data/main_segment/020D10.data.o
 .gnu.attributes
                0x0000000000000000       0x10 build/asm/us/data/main_segment/020D10.data.o
 .text          0x0000000000000000        0x0 build/asm/us/data/main_segment/game_etc.data.o
 .bss           0x0000000000000000        0x0 build/asm/us/data/main_segment/game_etc.data.o
 .reginfo       0x0000000000000000       0x18 build/asm/us/data/main_segment/game_etc.data.o
 .MIPS.abiflags
                0x0000000000000000       0x18 build/asm/us/data/main_segment/game_etc.data.o
 .pdr           0x0000000000000000        0x0 build/asm/us/data/main_segment/game_etc.data.o
 .gnu.attributes
                0x0000000000000000       0x10 build/asm/us/data/main_segment/game_etc.data.o
 .text          0x0000000000000000        0x0 build/asm/us/data/main_segment/0750C0.data.o
 .bss           0x0000000000000000        0x0 build/asm/us/data/main_segment/0750C0.data.o
 .reginfo       0x0000000000000000       0x18 build/asm/us/data/main_segment/0750C0.data.o
 .MIPS.abiflags
                0x0000000000000000       0x18 build/asm/us/data/main_segment/0750C0.data.o
 .pdr           0x0000000000000000        0x0 build/asm/us/data/main_segment/0750C0.data.o
 .gnu.attributes
                0x0000000000000000       0x10 build/asm/us/data/main_segment/0750C0.data.o
 .text          0x0000000000000000        0x0 build/asm/us/data/main_segment/dm_game_main.data.o
 .bss           0x0000000000000000        0x0 build/asm/us/data/main_segment/dm_game_main.data.o
 .reginfo       0x0000000000000000       0x18 build/asm/us/data/main_segment/dm_game_main.data.o
 .MIPS.abiflags
                0x0000000000000000       0x18 build/asm/us/data/main_segment/dm_game_main.data.o
 .pdr           0x0000000000000000        0x0 build/asm/us/data/main_segment/dm_game_main.data.o
 .gnu.attributes
                0x0000000000000000       0x10 build/asm/us/data/main_segment/dm_game_main.data.o
 .text          0x0000000000000000        0x0 build/asm/us/data/main_segment/dm_title_main.data.o
 .bss           0x0000000000000000        0x0 build/asm/us/data/main_segment/dm_title_main.data.o
 .reginfo       0x0000000000000000       0x18 build/asm/us/data/main_segment/dm_title_main.data.o
 .MIPS.abiflags
                0x0000000000000000       0x18 build/asm/us/data/main_segment/dm_title_main.data.o
 .pdr           0x0000000000000000        0x0 build/asm/us/data/main_segment/dm_title_main.data.o
 .gnu.attributes
                0x0000000000000000       0x10 build/asm/us/data/main_segment/dm_title_main.data.o
 .text          0x0000000000000000        0x0 build/asm/us/data/main_segment/08F1C0.data.o
 .bss           0x0000000000000000        0x0 build/asm/us/data/main_segment/08F1C0.data.o
 .reginfo       0x0000000000000000       0x18 build/asm/us/data/main_segment/08F1C0.data.o
 .MIPS.abiflags
                0x0000000000000000       0x18 build/asm/us/data/main_segment/08F1C0.data.o
 .pdr           0x0000000000000000        0x0 build/asm/us/data/main_segment/08F1C0.data.o
 .gnu.attributes
                0x0000000000000000       0x10 build/asm/us/data/main_segment/08F1C0.data.o
 .text          0x0000000000000000        0x0 build/asm/us/data/main_segment/main_story.data.o
 .bss           0x0000000000000000        0x0 build/asm/us/data/main_segment/main_story.data.o
 .reginfo       0x0000000000000000       0x18 build/asm/us/data/main_segment/main_story.data.o
 .MIPS.abiflags
                0x0000000000000000       0x18 build/asm/us/data/main_segment/main_story.data.o
 .pdr           0x0000000000000000        0x0 build/asm/us/data/main_segment/main_story.data.o
 .gnu.attributes
                0x0000000000000000       0x10 build/asm/us/data/main_segment/main_story.data.o
 .text          0x0000000000000000        0x0 build/asm/us/data/main_segment/calc.data.o
 .bss           0x0000000000000000        0x0 build/asm/us/data/main_segment/calc.data.o
 .reginfo       0x0000000000000000       0x18 build/asm/us/data/main_segment/calc.data.o
 .MIPS.abiflags
                0x0000000000000000       0x18 build/asm/us/data/main_segment/calc.data.o
 .pdr           0x0000000000000000        0x0 build/asm/us/data/main_segment/calc.data.o
 .gnu.attributes
                0x0000000000000000       0x10 build/asm/us/data/main_segment/calc.data.o
 .text          0x0000000000000000        0x0 build/asm/us/data/main_segment/066580.data.o
 .bss           0x0000000000000000        0x0 build/asm/us/data/main_segment/066580.data.o
 .reginfo       0x0000000000000000       0x18 build/asm/us/data/main_segment/066580.data.o
 .MIPS.abiflags
                0x0000000000000000       0x18 build/asm/us/data/main_segment/066580.data.o
 .pdr           0x0000000000000000        0x0 build/asm/us/data/main_segment/066580.data.o
 .gnu.attributes
                0x0000000000000000       0x10 build/asm/us/data/main_segment/066580.data.o
 .text          0x0000000000000000        0x0 build/asm/us/data/main_segment/066840.data.o
 .bss           0x0000000000000000        0x0 build/asm/us/data/main_segment/066840.data.o
 .reginfo       0x0000000000000000       0x18 build/asm/us/data/main_segment/066840.data.o
 .MIPS.abiflags
                0x0000000000000000       0x18 build/asm/us/data/main_segment/066840.data.o
 .pdr           0x0000000000000000        0x0 build/asm/us/data/main_segment/066840.data.o
 .gnu.attributes
                0x0000000000000000       0x10 build/asm/us/data/main_segment/066840.data.o
 .text          0x0000000000000000        0x0 build/asm/us/data/libmus/player.data.o
 .bss           0x0000000000000000        0x0 build/asm/us/data/libmus/player.data.o
 .reginfo       0x0000000000000000       0x18 build/asm/us/data/libmus/player.data.o
 .MIPS.abiflags
                0x0000000000000000       0x18 build/asm/us/data/libmus/player.data.o
 .pdr           0x0000000000000000        0x0 build/asm/us/data/libmus/player.data.o
 .gnu.attributes
                0x0000000000000000       0x10 build/asm/us/data/libmus/player.data.o
 .text          0x0000000000000000        0x0 build/asm/us/data/libmus/aud_sched.data.o
 .bss           0x0000000000000000        0x0 build/asm/us/data/libmus/aud_sched.data.o
 .reginfo       0x0000000000000000       0x18 build/asm/us/data/libmus/aud_sched.data.o
 .MIPS.abiflags
                0x0000000000000000       0x18 build/asm/us/data/libmus/aud_sched.data.o
 .pdr           0x0000000000000000        0x0 build/asm/us/data/libmus/aud_sched.data.o
 .gnu.attributes
                0x0000000000000000       0x10 build/asm/us/data/libmus/aud_sched.data.o
 .text          0x0000000000000000        0x0 build/asm/us/data/libmus/aud_thread.data.o
 .bss           0x0000000000000000        0x0 build/asm/us/data/libmus/aud_thread.data.o
 .reginfo       0x0000000000000000       0x18 build/asm/us/data/libmus/aud_thread.data.o
 .MIPS.abiflags
                0x0000000000000000       0x18 build/asm/us/data/libmus/aud_thread.data.o
 .pdr           0x0000000000000000        0x0 build/asm/us/data/libmus/aud_thread.data.o
 .gnu.attributes
                0x0000000000000000       0x10 build/asm/us/data/libmus/aud_thread.data.o
 .text          0x0000000000000000        0x0 build/asm/us/data/rsp/aspMain.rodata.o
 .data          0x0000000000000000        0x0 build/asm/us/data/rsp/aspMain.rodata.o
 .bss           0x0000000000000000        0x0 build/asm/us/data/rsp/aspMain.rodata.o
 .reginfo       0x0000000000000000       0x18 build/asm/us/data/rsp/aspMain.rodata.o
 .MIPS.abiflags
                0x0000000000000000       0x18 build/asm/us/data/rsp/aspMain.rodata.o
 .pdr           0x0000000000000000        0x0 build/asm/us/data/rsp/aspMain.rodata.o
 .gnu.attributes
                0x0000000000000000       0x10 build/asm/us/data/rsp/aspMain.rodata.o
 .text          0x0000000000000000        0x0 build/asm/us/data/rsp/f3dex2.rodata.o
 .data          0x0000000000000000        0x0 build/asm/us/data/rsp/f3dex2.rodata.o
 .bss           0x0000000000000000        0x0 build/asm/us/data/rsp/f3dex2.rodata.o
 .reginfo       0x0000000000000000       0x18 build/asm/us/data/rsp/f3dex2.rodata.o
 .MIPS.abiflags
                0x0000000000000000       0x18 build/asm/us/data/rsp/f3dex2.rodata.o
 .pdr           0x0000000000000000        0x0 build/asm/us/data/rsp/f3dex2.rodata.o
 .gnu.attributes
                0x0000000000000000       0x10 build/asm/us/data/rsp/f3dex2.rodata.o
 .text          0x0000000000000000        0x0 build/asm/us/data/rsp/s2dex.rodata.o
 .data          0x0000000000000000        0x0 build/asm/us/data/rsp/s2dex.rodata.o
 .bss           0x0000000000000000        0x0 build/asm/us/data/rsp/s2dex.rodata.o
 .reginfo       0x0000000000000000       0x18 build/asm/us/data/rsp/s2dex.rodata.o
 .MIPS.abiflags
                0x0000000000000000       0x18 build/asm/us/data/rsp/s2dex.rodata.o
 .pdr           0x0000000000000000        0x0 build/asm/us/data/rsp/s2dex.rodata.o
 .gnu.attributes
                0x0000000000000000       0x10 build/asm/us/data/rsp/s2dex.rodata.o
 .text          0x0000000000000000        0x0 build/asm/us/data/libmus/player.rodata.o
 .data          0x0000000000000000        0x0 build/asm/us/data/libmus/player.rodata.o
 .bss           0x0000000000000000        0x0 build/asm/us/data/libmus/player.rodata.o
 .reginfo       0x0000000000000000       0x18 build/asm/us/data/libmus/player.rodata.o
 .MIPS.abiflags
                0x0000000000000000       0x18 build/asm/us/data/libmus/player.rodata.o
 .pdr           0x0000000000000000        0x0 build/asm/us/data/libmus/player.rodata.o
 .gnu.attributes
                0x0000000000000000       0x10 build/asm/us/data/libmus/player.rodata.o
 .text          0x0000000000000000        0x0 build/asm/us/data/main_segment/800B3640.bss.o
 .data          0x0000000000000000        0x0 build/asm/us/data/main_segment/800B3640.bss.o
 .reginfo       0x0000000000000000       0x18 build/asm/us/data/main_segment/800B3640.bss.o
 .MIPS.abiflags
                0x0000000000000000       0x18 build/asm/us/data/main_segment/800B3640.bss.o
 .pdr           0x0000000000000000        0x0 build/asm/us/data/main_segment/800B3640.bss.o
 .gnu.attributes
                0x0000000000000000       0x10 build/asm/us/data/main_segment/800B3640.bss.o
 .text          0x0000000000000000        0x0 build/asm/us/data/main_segment/game_etc.bss.o
 .data          0x0000000000000000        0x0 build/asm/us/data/main_segment/game_etc.bss.o
 .reginfo       0x0000000000000000       0x18 build/asm/us/data/main_segment/game_etc.bss.o
 .MIPS.abiflags
                0x0000000000000000       0x18 build/asm/us/data/main_segment/game_etc.bss.o
 .pdr           0x0000000000000000        0x0 build/asm/us/data/main_segment/game_etc.bss.o
 .gnu.attributes
                0x0000000000000000       0x10 build/asm/us/data/main_segment/game_etc.bss.o
 .text          0x0000000000000000        0x0 build/asm/us/data/main_segment/800E5890.bss.o
 .data          0x0000000000000000        0x0 build/asm/us/data/main_segment/800E5890.bss.o
 .reginfo       0x0000000000000000       0x18 build/asm/us/data/main_segment/800E5890.bss.o
 .MIPS.abiflags
                0x0000000000000000       0x18 build/asm/us/data/main_segment/800E5890.bss.o
 .pdr           0x0000000000000000        0x0 build/asm/us/data/main_segment/800E5890.bss.o
 .gnu.attributes
                0x0000000000000000       0x10 build/asm/us/data/main_segment/800E5890.bss.o
 .text          0x0000000000000000        0x0 build/asm/us/data/libmus/aud_sched.bss.o
 .data          0x0000000000000000        0x0 build/asm/us/data/libmus/aud_sched.bss.o
 .reginfo       0x0000000000000000       0x18 build/asm/us/data/libmus/aud_sched.bss.o
 .MIPS.abiflags
                0x0000000000000000       0x18 build/asm/us/data/libmus/aud_sched.bss.o
 .pdr           0x0000000000000000        0x0 build/asm/us/data/libmus/aud_sched.bss.o
 .gnu.attributes
                0x0000000000000000       0x10 build/asm/us/data/libmus/aud_sched.bss.o
 .text          0x0000000000000000        0x0 build/asm/us/data/main_segment/800E99D0.bss.o
 .data          0x0000000000000000        0x0 build/asm/us/data/main_segment/800E99D0.bss.o
 .reginfo       0x0000000000000000       0x18 build/asm/us/data/main_segment/800E99D0.bss.o
 .MIPS.abiflags
                0x0000000000000000       0x18 build/asm/us/data/main_segment/800E99D0.bss.o
 .pdr           0x0000000000000000        0x0 build/asm/us/data/main_segment/800E99D0.bss.o
 .gnu.attributes
                0x0000000000000000       0x10 build/asm/us/data/main_segment/800E99D0.bss.o
 .text          0x0000000000000000        0x0 build/asm/us/data/libmus/aud_samples.bss.o
 .data          0x0000000000000000        0x0 build/asm/us/data/libmus/aud_samples.bss.o
 .reginfo       0x0000000000000000       0x18 build/asm/us/data/libmus/aud_samples.bss.o
 .MIPS.abiflags
                0x0000000000000000       0x18 build/asm/us/data/libmus/aud_samples.bss.o
 .pdr           0x0000000000000000        0x0 build/asm/us/data/libmus/aud_samples.bss.o
 .gnu.attributes
                0x0000000000000000       0x10 build/asm/us/data/libmus/aud_samples.bss.o
 .text          0x0000000000000000        0x0 build/asm/us/data/main_segment/800E9BB0.bss.o
 .data          0x0000000000000000        0x0 build/asm/us/data/main_segment/800E9BB0.bss.o
 .reginfo       0x0000000000000000       0x18 build/asm/us/data/main_segment/800E9BB0.bss.o
 .MIPS.abiflags
                0x0000000000000000       0x18 build/asm/us/data/main_segment/800E9BB0.bss.o
 .pdr           0x0000000000000000        0x0 build/asm/us/data/main_segment/800E9BB0.bss.o
 .gnu.attributes
                0x0000000000000000       0x10 build/asm/us/data/main_segment/800E9BB0.bss.o
 .text          0x0000000000000000        0x0 build/asm/us/data/libmus/aud_thread.bss.o
 .data          0x0000000000000000        0x0 build/asm/us/data/libmus/aud_thread.bss.o
 .reginfo       0x0000000000000000       0x18 build/asm/us/data/libmus/aud_thread.bss.o
 .MIPS.abiflags
                0x0000000000000000       0x18 build/asm/us/data/libmus/aud_thread.bss.o
 .pdr           0x0000000000000000        0x0 build/asm/us/data/libmus/aud_thread.bss.o
 .gnu.attributes
                0x0000000000000000       0x10 build/asm/us/data/libmus/aud_thread.bss.o
 .text          0x0000000000000000        0x0 build/asm/us/data/main_segment/800F8CE0.bss.o
 .data          0x0000000000000000        0x0 build/asm/us/data/main_segment/800F8CE0.bss.o
 .reginfo       0x0000000000000000       0x18 build/asm/us/data/main_segment/800F8CE0.bss.o
 .MIPS.abiflags
                0x0000000000000000       0x18 build/asm/us/data/main_segment/800F8CE0.bss.o
 .pdr           0x0000000000000000        0x0 build/asm/us/data/main_segment/800F8CE0.bss.o
 .gnu.attributes
                0x0000000000000000       0x10 build/asm/us/data/main_segment/800F8CE0.bss.o
 .data          0x0000000000000000        0x0 build/src/buffers/buffer1.o
 .reginfo       0x0000000000000000       0x18 build/src/buffers/buffer1.o
 .note          0x0000000000000000       0x14 build/src/buffers/buffer1.o
 .comment       0x0000000000000000       0x12 build/src/buffers/buffer1.o
 .data          0x0000000000000000        0x0 build/src/buffers/buffer2.o
 .reginfo       0x0000000000000000       0x18 build/src/buffers/buffer2.o
 .note          0x0000000000000000       0x14 build/src/buffers/buffer2.o
 .comment       0x0000000000000000       0x12 build/src/buffers/buffer2.o
 .data          0x0000000000000000        0x0 build/src/buffers/framebuffer.o
 .reginfo       0x0000000000000000       0x18 build/src/buffers/framebuffer.o
 .note          0x0000000000000000       0x14 build/src/buffers/framebuffer.o
 .comment       0x0000000000000000       0x12 build/src/buffers/framebuffer.o

Memory Configuration

Name             Origin             Length             Attributes
*default*        0x0000000000000000 0xffffffffffffffff

Linker script and memory map

LOAD build/src/rom_header/rom_header.o
LOAD build/bin/us/ipl3.o
LOAD build/src/entry/entry.o
LOAD build/src/boot/boot_main.o
LOAD build/src/boot/dmadata.o
LOAD build/src/gzip/inflate.o
LOAD build/src/gzip/unzip.o
LOAD build/src/boot/util.o
LOAD build/src/boot/rom_offsets.o
LOAD build/asm/us/libultra/io/conteepprobe.o
LOAD build/lib/ultralib/src/io/conteeplongwrite.o
LOAD build/lib/ultralib/src/io/conteeplongread.o
LOAD build/asm/us/libultra/io/pimgr.o
LOAD build/lib/ultralib/src/io/epirawdma.o
LOAD build/lib/ultralib/src/io/epidma.o
LOAD build/asm/us/libultra/io/cartrominit.o
LOAD build/lib/ultralib/src/io/devmgr.o
LOAD build/asm/us/libultra/io/piacs.o
LOAD build/lib/ultralib/src/io/pidma.o
LOAD build/lib/ultralib/src/io/aigetlen.o
LOAD build/lib/ultralib/src/io/aigetstat.o
LOAD build/lib/ultralib/src/io/aisetfreq.o
LOAD build/lib/ultralib/src/io/aisetnextbuf.o
LOAD build/lib/ultralib/src/audio/env.o
LOAD build/lib/ultralib/src/audio/sl.o
LOAD build/lib/ultralib/src/audio/heapinit.o
LOAD build/lib/ultralib/src/audio/synthesizer.o
LOAD build/lib/ultralib/src/audio/syndelete.o
LOAD build/lib/ultralib/src/audio/synaddplayer.o
LOAD build/lib/ultralib/src/audio/synallocvoice.o
LOAD build/lib/ultralib/src/audio/synstopvoice.o
LOAD build/lib/ultralib/src/audio/synstartvoice.o
LOAD build/lib/ultralib/src/audio/synsetpitch.o
LOAD build/lib/ultralib/src/audio/synsetvol.o
LOAD build/lib/ultralib/src/audio/synsetfxmix.o
LOAD build/lib/ultralib/src/audio/synsetpan.o
LOAD build/lib/ultralib/src/audio/synallocfx.o
LOAD build/lib/ultralib/src/os/invaldcache.o
LOAD build/lib/ultralib/src/os/writebackdcacheall.o
LOAD build/lib/ultralib/src/io/contquery.o
LOAD build/lib/ultralib/src/io/contreaddata.o
LOAD build/asm/us/libultra/io/controller.o
LOAD build/lib/ultralib/src/io/contsetch.o
LOAD build/lib/ultralib/src/os/virtualtophysical.o
LOAD build/lib/ultralib/src/gu/sqrtf.o
LOAD build/lib/ultralib/src/gu/cosf.o
LOAD build/lib/ultralib/src/gu/ortho.o
LOAD build/lib/ultralib/src/gu/perspective.o
LOAD build/lib/ultralib/src/gu/rotaterpy.o
LOAD build/lib/ultralib/src/gu/sinf.o
LOAD build/lib/ultralib/src/gu/sins.o
LOAD build/lib/ultralib/src/libc/bcmp.o
LOAD build/lib/ultralib/src/libc/bcopy.o
LOAD build/lib/ultralib/src/libc/bzero.o
LOAD build/lib/ultralib/src/libc/string.o
LOAD build/lib/ultralib/src/os/createmesgqueue.o
LOAD build/lib/ultralib/src/os/jammesg.o
LOAD build/lib/ultralib/src/os/recvmesg.o
LOAD build/lib/ultralib/src/os/sendmesg.o
LOAD build/asm/us/libultra/os/seteventmesg.o
LOAD build/asm/us/libultra/io/sptask.o
LOAD build/lib/ultralib/src/io/sptaskyield.o
LOAD build/lib/ultralib/src/io/sptaskyielded.o
LOAD build/lib/ultralib/src/sched/sched.o
LOAD build/lib/ultralib/src/io/sirawdma.o
LOAD build/asm/us/libultra/io/siacs.o
LOAD build/lib/ultralib/src/os/createthread.o
LOAD build/lib/ultralib/src/os/getthreadpri.o
LOAD build/lib/ultralib/src/os/setthreadpri.o
LOAD build/lib/ultralib/src/os/startthread.o
LOAD build/lib/ultralib/src/os/stopthread.o
LOAD build/lib/ultralib/src/os/thread.o
LOAD build/lib/ultralib/src/os/yieldthread.o
LOAD build/lib/ultralib/src/os/gettime.o
LOAD build/lib/ultralib/src/os/settime.o
LOAD build/lib/ultralib/src/os/settimer.o
LOAD build/asm/us/libultra/os/timerintr.o
LOAD build/lib/ultralib/src/os/probetlb.o
LOAD build/lib/ultralib/src/io/vigetcurrframebuf.o
LOAD build/lib/ultralib/src/io/vigetnextframebuf.o
LOAD build/asm/us/libultra/io/vimgr.o
LOAD build/lib/ultralib/src/io/visetevent.o
LOAD build/lib/ultralib/src/io/visetmode.o
LOAD build/lib/ultralib/src/io/visetspecial.o
LOAD build/lib/ultralib/src/io/visetyscale.o
LOAD build/lib/ultralib/src/io/viswapbuf.o
LOAD build/lib/ultralib/src/io/viswapcontext.o
LOAD build/lib/ultralib/src/io/viblack.o
LOAD build/asm/us/libultra/nops_9990.o
LOAD build/lib/ultralib/src/mgu/mtxident.o
LOAD build/lib/ultralib/src/mgu/mtxidentf.o
LOAD build/lib/ultralib/src/mgu/mtxf2l.o
LOAD build/lib/ultralib/src/mgu/mtxl2f.o
LOAD build/lib/ultralib/src/mgu/mtxcatf.o
LOAD build/lib/ultralib/src/mgu/scale.o
LOAD build/lib/ultralib/src/mgu/scalef.o
LOAD build/lib/ultralib/src/mgu/translate.o
LOAD build/lib/ultralib/src/mgu/translatef.o
LOAD build/asm/us/libultra/os/initialize.o
LOAD build/asm/us/libultra/io/conteepread.o
LOAD build/asm/us/libultra/io/conteepwrite.o
LOAD build/lib/ultralib/src/os/exceptasm.o
LOAD build/lib/ultralib/src/os/interrupt.o
LOAD build/lib/ultralib/src/os/setintmask.o
LOAD build/lib/ultralib/src/os/setglobalintmask.o
LOAD build/lib/ultralib/src/os/resetglobalintmask.o
LOAD build/lib/ultralib/src/io/pirawdma.o
LOAD build/lib/ultralib/src/io/pigetcmdq.o
LOAD build/lib/ultralib/src/io/epirawread.o
LOAD build/lib/ultralib/src/io/epirawwrite.o
LOAD build/lib/ultralib/src/io/ai.o
LOAD build/lib/ultralib/src/audio/drvrnew.o
LOAD build/lib/ultralib/src/audio/load.o
LOAD build/lib/ultralib/src/audio/auxbus.o
LOAD build/lib/ultralib/src/audio/filter.o
LOAD build/lib/ultralib/src/audio/mainbus.o
LOAD build/lib/ultralib/src/audio/resample.o
LOAD build/lib/ultralib/src/audio/reverb.o
LOAD build/lib/ultralib/src/audio/save.o
LOAD build/lib/ultralib/src/audio/heapalloc.o
LOAD build/lib/ultralib/src/audio/copy.o
LOAD build/lib/ultralib/src/os/invalicache.o
LOAD build/lib/ultralib/src/os/writebackdcache.o
LOAD build/lib/ultralib/src/io/dpsetnextbuf.o
LOAD build/lib/ultralib/src/os/getcause.o
LOAD build/lib/ultralib/src/os/getcount.o
LOAD build/lib/ultralib/src/os/getsr.o
LOAD build/lib/ultralib/src/os/setcompare.o
LOAD build/lib/ultralib/src/os/setfpccsr.o
LOAD build/lib/ultralib/src/os/setsr.o
LOAD build/lib/ultralib/src/os/setwatchlo.o
LOAD build/lib/ultralib/src/io/sp.o
LOAD build/lib/ultralib/src/io/spgetstat.o
LOAD build/lib/ultralib/src/io/spsetstat.o
LOAD build/lib/ultralib/src/io/spsetpc.o
LOAD build/lib/ultralib/src/io/sprawdma.o
LOAD build/lib/ultralib/src/io/sirawread.o
LOAD build/lib/ultralib/src/io/sirawwrite.o
LOAD build/lib/ultralib/src/os/destroythread.o
LOAD build/lib/ultralib/src/os/maptlbrdb.o
LOAD build/lib/ultralib/src/os/unmaptlball.o
LOAD build/asm/us/libultra/io/vi.o
LOAD build/lib/ultralib/src/io/vigetcurrcontext.o
LOAD build/lib/ultralib/src/os/parameters.o
LOAD build/lib/ultralib/src/io/dp.o
LOAD build/lib/ultralib/src/io/si.o
LOAD build/src/libkmc/fmod.o
LOAD build/src/libkmc/memmove.o
LOAD build/src/libkmc/memset.o
LOAD build/src/libkmc/modf.o
LOAD build/src/libkmc/rand.o
LOAD build/src/libkmc/strcpy.o
LOAD build/src/libkmc/mmuldi3.o
LOAD build/asm/us/data/boot/00EDB0.data.o
LOAD build/asm/us/data/libultra/pimgr.data.o
LOAD build/asm/us/data/libultra/cartrominit.data.o
LOAD build/asm/us/data/libultra/piacs.data.o
LOAD build/asm/us/data/libultra/controller.data.o
LOAD build/asm/us/data/libultra/seteventmesg.data.o
LOAD build/asm/us/data/libultra/siacs.data.o
LOAD build/asm/us/data/libultra/timerintr.data.o
LOAD build/asm/us/data/libultra/vimgr.data.o
LOAD build/lib/ultralib/src/io/vitbl.o
LOAD build/asm/us/data/libultra/initialize.data.o
LOAD build/asm/us/data/boot/0113C0.data.o
LOAD build/asm/us/data/libultra/vi.data.o
LOAD build/lib/ultralib/src/vimodes/vimodentsclan1.o
LOAD build/lib/ultralib/src/vimodes/vimodepallan1.o
LOAD build/lib/ultralib/src/vimodes/vimodempallan1.o
LOAD build/src/libkmc/ctype.o
LOAD build/lib/ultralib/src/gu/libm_vals.o
LOAD build/asm/us/data/boot/boot_main.bss.o
LOAD build/asm/us/data/boot/800151C0.bss.o
LOAD build/asm/us/data/libultra/pimgr.bss.o
LOAD build/asm/us/data/boot/8001A3B0.bss.o
LOAD build/asm/us/data/boot/8001B640.bss.o
LOAD build/asm/us/data/libultra/cartrominit.bss.o
LOAD build/asm/us/data/boot/8001FA30.bss.o
LOAD build/src/dma_table/dma_table.o
LOAD build/src/main_segment/main.o
LOAD build/src/main_segment/000280.o
LOAD build/src/main_segment/joy.o
LOAD build/src/main_segment/sound.o
LOAD build/src/main_segment/graphic.o
LOAD build/src/main_segment/graphics/static.o
LOAD build/src/main_segment/audio/003520.o
LOAD build/src/main_segment/main1x.o
LOAD build/src/main_segment/vr_init.o
LOAD build/src/main_segment/aiset.o
LOAD build/src/main_segment/record.o
LOAD build/src/main_segment/020D10.o
LOAD build/src/main_segment/game_etc.o
LOAD build/src/main_segment/screen_print/printer.o
LOAD build/src/main_segment/screen_print/printf_impl.o
LOAD build/src/main_segment/screen_print/debug_print.o
LOAD build/src/main_segment/debug_menu.o
LOAD build/src/main_segment/028820.o
LOAD build/src/main_segment/tex_func.o
LOAD build/src/main_segment/main_menu.o
LOAD build/src/main_segment/font.o
LOAD build/src/main_segment/msgwnd.o
LOAD build/src/main_segment/char_anime.o
LOAD build/src/main_segment/dm_virus_init.o
LOAD build/src/main_segment/dm_game_main.o
LOAD build/src/main_segment/dm_manual_main.o
LOAD build/src/main_segment/dm_title_main.o
LOAD build/src/main_segment/main_story.o
LOAD build/src/main_segment/lws.o
LOAD build/src/main_segment/calc.o
LOAD build/src/main_segment/065080.o
LOAD build/src/main_segment/066080.o
LOAD build/src/main_segment/replay.o
LOAD build/src/main_segment/066580.o
LOAD build/asm/us/main_segment/066840.o
LOAD build/src/main_segment/055C40.o
LOAD build/asm/us/libmus/player.o
LOAD build/lib/libmus/src/player_fx.o
LOAD build/asm/us/libmus/aud_dma.o
LOAD build/asm/us/libmus/aud_sched.o
LOAD build/asm/us/libmus/aud_thread.o
LOAD build/asm/us/libmus/lib_memory.o
LOAD build/asm/us/libmus/aud_samples.o
LOAD build/asm/us/data/rsp/rspboot.data.o
LOAD build/asm/us/data/rsp/aspMain.data.o
LOAD build/asm/us/data/rsp/f3dex2.data.o
LOAD build/asm/us/data/rsp/s2dex.data.o
LOAD build/src/main_segment/graphics/graphic_dlists.o
LOAD build/asm/us/data/main_segment/aiset.data.o
LOAD build/asm/us/data/main_segment/020D10.data.o
LOAD build/asm/us/data/main_segment/game_etc.data.o
LOAD build/asm/us/data/main_segment/0750C0.data.o
LOAD build/asm/us/data/main_segment/dm_game_main.data.o
LOAD build/asm/us/data/main_segment/dm_title_main.data.o
LOAD build/asm/us/data/main_segment/08F1C0.data.o
LOAD build/asm/us/data/main_segment/main_story.data.o
LOAD build/asm/us/data/main_segment/calc.data.o
LOAD build/asm/us/data/main_segment/066580.data.o
LOAD build/asm/us/data/main_segment/066840.data.o
LOAD build/asm/us/data/libmus/player.data.o
LOAD build/asm/us/data/libmus/aud_sched.data.o
LOAD build/asm/us/data/libmus/aud_thread.data.o
LOAD build/asm/us/data/rsp/aspMain.rodata.o
LOAD build/asm/us/data/rsp/f3dex2.rodata.o
LOAD build/asm/us/data/rsp/s2dex.rodata.o
LOAD build/asm/us/data/libmus/player.rodata.o
LOAD build/asm/us/data/main_segment/800B3640.bss.o
LOAD build/asm/us/data/main_segment/game_etc.bss.o
LOAD build/asm/us/data/main_segment/800E5890.bss.o
LOAD build/asm/us/data/libmus/aud_sched.bss.o
LOAD build/asm/us/data/main_segment/800E99D0.bss.o
LOAD build/asm/us/data/libmus/aud_samples.bss.o
LOAD build/asm/us/data/main_segment/800E9BB0.bss.o
LOAD build/asm/us/data/libmus/aud_thread.bss.o
LOAD build/asm/us/data/main_segment/800F8CE0.bss.o
LOAD build/src/buffers/buffer1.o
LOAD build/src/buffers/buffer2.o
LOAD build/src/buffers/framebuffer.o
LOAD build/bin/us/n64_wave_tables.o
LOAD build/bin/us/n64_ptr_tables_v2.o
LOAD build/bin/us/segment_172130.o
LOAD build/bin/us/segment_172D60.o
LOAD build/bin/us/segment_1750C0.o
LOAD build/bin/us/segment_177420.o
LOAD build/bin/us/segment_179620.o
LOAD build/bin/us/segment_17B790.o
LOAD build/bin/us/segment_17C1E0.o
LOAD build/bin/us/segment_17D130.o
LOAD build/bin/us/segment_17E090.o
LOAD build/bin/us/segment_181840.o
LOAD build/bin/us/segment_184FF0.o
LOAD build/bin/us/segment_186FF0.o
LOAD build/bin/us/segment_188FF0.o
LOAD build/bin/us/segment_189D40.o
LOAD build/bin/us/segment_18CB40.o
LOAD build/bin/us/segment_18DB90.o
LOAD build/bin/us/segment_18F160.o
LOAD build/bin/us/segment_1906E0.o
LOAD build/bin/us/segment_1911D0.o
LOAD build/bin/us/segment_1936C0.o
LOAD build/bin/us/segment_1937F0.o
LOAD build/bin/us/segment_194070.o
LOAD build/bin/us/segment_194150.o
LOAD build/bin/us/segment_194910.o
LOAD build/bin/us/segment_195290.o
LOAD build/bin/us/segment_game_etc.o
LOAD build/bin/us/segment_menu_bg.o
LOAD build/bin/us/segment_menu_bg2.o
LOAD build/bin/us/segment_coffee01.o
LOAD build/bin/us/segment_title_all.o
LOAD build/bin/us/segment_title_bmp.o
LOAD build/bin/us/segment_waku.o
LOAD build/bin/us/segment_waku2.o
LOAD build/bin/us/segment_story_bg01.o
LOAD build/bin/us/segment_story_bg02.o
LOAD build/bin/us/segment_story_bg03.o
LOAD build/bin/us/segment_story_bg04.o
LOAD build/bin/us/segment_story_bg05.o
LOAD build/bin/us/segment_story_bg07.o
LOAD build/bin/us/segment_story_bg08.o
LOAD build/bin/us/segment_story_bg09.o
LOAD build/bin/us/segment_story_bg10.o
LOAD build/bin/us/segment_story_bg11.o
LOAD build/bin/us/segment_menu_char.o
LOAD build/bin/us/segment_menu_common.o
LOAD build/bin/us/segment_menu_level.o
LOAD build/bin/us/segment_menu_main.o
LOAD build/bin/us/segment_menu_name.o
LOAD build/bin/us/segment_menu_p2.o
LOAD build/bin/us/segment_menu_p4.o
LOAD build/bin/us/segment_menu_rank.o
LOAD build/bin/us/segment_menu_setup.o
LOAD build/bin/us/segment_menu_story.o
LOAD build/bin/us/segment_menu_cont.o
LOAD build/bin/us/segment_menu_kasa.o
LOAD build/bin/us/segment_game_al.o
LOAD build/bin/us/segment_game_p1.o
LOAD build/bin/us/segment_game_p2.o
LOAD build/bin/us/segment_game_p4.o
LOAD build/bin/us/segment_game_ls.o
LOAD build/bin/us/segment_game_item.o
LOAD build/bin/us/segment_anime_a.o
LOAD build/bin/us/segment_anime_b.o
LOAD build/bin/us/segment_anime_c.o
LOAD build/bin/us/segment_anime_d.o
LOAD build/bin/us/segment_anime_e.o
LOAD build/bin/us/segment_anime_f.o
LOAD build/bin/us/segment_anime_g.o
LOAD build/bin/us/segment_anime_h.o
LOAD build/bin/us/segment_anime_i.o
LOAD build/bin/us/segment_anime_j.o
LOAD build/bin/us/segment_anime_k.o
LOAD build/bin/us/segment_anime_l.o
LOAD build/bin/us/segment_anime_m.o
LOAD build/bin/us/segment_anime_n.o
LOAD build/bin/us/segment_anime_o.o
LOAD build/bin/us/segment_anime_mario.o
LOAD build/bin/us/segment_anime_virus_b.o
LOAD build/bin/us/segment_anime_virus_r.o
LOAD build/bin/us/segment_anime_virus_y.o
LOAD build/bin/us/segment_anime_smog.o
LOAD build/bin/us/segment_tutorial_data.o
                0x0000000000646e68                __romPos = 0x0
                0x0000000000000000                _gp = 0x0
                0x0000000000000000                header_ROM_START = __romPos
                0x0000000080000000                header_VRAM = ADDR (.header)

.header         0x0000000080000000       0x40 load address 0x0000000000000000
                0x0000000080000000                header_TEXT_START = .
 build/src/rom_header/rom_header.o(.text)
 .text          0x0000000080000000        0x0 build/src/rom_header/rom_header.o
                0x0000000080000000                header_TEXT_END = .
                0x0000000000000000                header_TEXT_SIZE = ABSOLUTE ((header_TEXT_END - header_TEXT_START))
                0x0000000080000000                header_DATA_START = .
                0x0000000080000000                rom_header_rom_header = .
 build/src/rom_header/rom_header.o(.data)
 .data          0x0000000080000000       0x40 build/src/rom_header/rom_header.o
                0x0000000080000000                gRomHeader
                0x0000000080000040                header_DATA_END = .
                0x0000000000000040                header_DATA_SIZE = ABSOLUTE ((header_DATA_END - header_DATA_START))
                0x0000000000646e68                __romPos = (__romPos + SIZEOF (.header))
                0x0000000000646e68                __romPos = ALIGN (__romPos, 0x10)
                0x0000000000000040                header_ROM_END = __romPos
                0x0000000080000040                header_VRAM_END = .
                0x0000000000000040                ipl3_ROM_START = __romPos
                0x0000000080000040                ipl3_VRAM = ADDR (.ipl3)

.ipl3           0x0000000080000040      0xfc0 load address 0x0000000000000040
                0x0000000080000040                ipl3_DATA_START = .
                0x0000000080000040                ipl3 = .
 build/bin/us/ipl3.o(.data)
 .data          0x0000000080000040      0xfc0 build/bin/us/ipl3.o
                0x0000000080000040                _binary_bin_us_ipl3_bin_start
                0x0000000080001000                _binary_bin_us_ipl3_bin_end
                0x0000000080001000                ipl3_DATA_END = .
                0x0000000000000fc0                ipl3_DATA_SIZE = ABSOLUTE ((ipl3_DATA_END - ipl3_DATA_START))
                0x0000000000646e68                __romPos = (__romPos + SIZEOF (.ipl3))
                0x0000000000001000                ipl3_ROM_END = __romPos
                0x0000000080001000                ipl3_VRAM_END = .
                0x0000000000001000                entry_ROM_START = __romPos
                0x0000000080000400                entry_VRAM = ADDR (.entry)

.entry          0x0000000080000400       0x60 load address 0x0000000000001000
                0x0000000080000400                entry_TEXT_START = .
 build/src/entry/entry.o(.text)
 .text          0x0000000080000400       0x60 build/src/entry/entry.o
                0x0000000080000400                entrypoint
                0x0000000080000460                entry_TEXT_END = .
                0x0000000000000060                entry_TEXT_SIZE = ABSOLUTE ((entry_TEXT_END - entry_TEXT_START))
                0x0000000000646e68                __romPos = (__romPos + SIZEOF (.entry))
                0x0000000000646e68                __romPos = ALIGN (__romPos, 0x10)
                0x0000000000001060                entry_ROM_END = __romPos
                0x0000000080000460                entry_VRAM_END = .
                0x0000000000001060                boot_ROM_START = __romPos
                0x0000000080000460                boot_VRAM = ADDR (.boot)

.boot           0x0000000080000460    0x10a00 load address 0x0000000000001060
                0x0000000080000460                boot_TEXT_START = .
 build/src/boot/boot_main.o(.text)
 .text          0x0000000080000460      0x1c0 build/src/boot/boot_main.o
                0x0000000080000460                Idle_Nop
                0x0000000080000468                Main_StopThread
                0x0000000080000488                func_80000488
                0x0000000080000494                bootproc
                0x00000000800004f0                Main_ThreadEntry
                0x0000000080000580                Idle_ThreadEntry
 build/src/boot/dmadata.o(.text)
 .text          0x0000000080000620      0x100 build/src/boot/dmadata.o
                0x0000000080000620                DmaData_RomToRam
 build/src/gzip/inflate.o(.text)
 .text          0x0000000080000720     0x1870 build/src/gzip/inflate.o
                0x0000000080000720                func_80000720
                0x000000008000075c                func_8000075C
                0x0000000080000778                func_80000778.NON_MATCHING
                0x0000000080000778                func_80000778
                0x0000000080000d0c                func_80000D0C.NON_MATCHING
                0x0000000080000d0c                func_80000D0C
                0x0000000080000d48                func_80000D48.NON_MATCHING
                0x0000000080000d48                func_80000D48
                0x0000000080001260                func_80001260.NON_MATCHING
                0x0000000080001260                func_80001260
                0x0000000080001480                func_80001480
                0x0000000080001480                func_80001480.NON_MATCHING
                0x0000000080001620                func_80001620.NON_MATCHING
                0x0000000080001620                func_80001620
                0x0000000080001d4c                inflate_block
                0x0000000080001d4c                inflate_block.NON_MATCHING
                0x0000000080001eb4                inflate
 build/src/gzip/unzip.o(.text)
 .text          0x0000000080001f90      0x3f0 build/src/gzip/unzip.o
                0x0000000080001f90                expand_gzip
                0x0000000080001fd8                auRomDataRead
                0x0000000080002064                func_80002064
                0x00000000800020a0                unzip
                0x0000000080002148                updcrc
                0x00000000800021a0                clear_bufs
                0x00000000800021cc                fill_inbuf
                0x00000000800021cc                fill_inbuf.NON_MATCHING
                0x00000000800022a8                func_800022A8
                0x0000000080002300                flush_window
 build/src/boot/util.o(.text)
 .text          0x0000000080002380      0x120 build/src/boot/util.o
                0x0000000080002380                DecompressRomToRam
                0x00000000800023b4                WrapI
                0x0000000080002400                WrapF
 build/src/boot/rom_offsets.o(.text)
 .text          0x00000000800024a0        0x0 build/src/boot/rom_offsets.o
 build/asm/us/libultra/io/conteepprobe.o(.text)
 .text          0x00000000800024a0       0x80 build/asm/us/libultra/io/conteepprobe.o
                0x00000000800024a0                osEepromProbe
 build/lib/ultralib/src/io/conteeplongwrite.o(.text)
 .text          0x0000000080002520       0xf0 build/lib/ultralib/src/io/conteeplongwrite.o
                0x0000000080002520                osEepromLongWrite
 build/lib/ultralib/src/io/conteeplongread.o(.text)
 .text          0x0000000080002610       0x70 build/lib/ultralib/src/io/conteeplongread.o
                0x0000000080002610                osEepromLongRead
 build/asm/us/libultra/io/pimgr.o(.text)
 .text          0x0000000080002680      0x190 build/asm/us/libultra/io/pimgr.o
                0x0000000080002680                osCreatePiManager
 build/lib/ultralib/src/io/epirawdma.o(.text)
 .text          0x0000000080002810      0x1f0 build/lib/ultralib/src/io/epirawdma.o
                0x0000000080002810                __osEPiRawStartDma
 build/lib/ultralib/src/io/epidma.o(.text)
 .text          0x0000000080002a00       0xa0 build/lib/ultralib/src/io/epidma.o
                0x0000000080002a00                osEPiStartDma
 build/asm/us/libultra/io/cartrominit.o(.text)
 .text          0x0000000080002aa0      0x180 build/asm/us/libultra/io/cartrominit.o
                0x0000000080002aa0                osCartRomInit
 build/lib/ultralib/src/io/devmgr.o(.text)
 .text          0x0000000080002c20      0x3c0 build/lib/ultralib/src/io/devmgr.o
                0x0000000080002c20                __osDevMgrMain
 build/asm/us/libultra/io/piacs.o(.text)
 .text          0x0000000080002fe0       0xf0 build/asm/us/libultra/io/piacs.o
                0x0000000080002fe0                __osPiCreateAccessQueue
                0x0000000080003034                __osPiGetAccess
                0x00000000800030a0                __osPiRelAccess
 build/lib/ultralib/src/io/pidma.o(.text)
 .text          0x00000000800030d0       0xb0 build/lib/ultralib/src/io/pidma.o
                0x00000000800030d0                osPiStartDma
 build/lib/ultralib/src/io/aigetlen.o(.text)
 .text          0x0000000080003180       0x10 build/lib/ultralib/src/io/aigetlen.o
                0x0000000080003180                osAiGetLength
 build/lib/ultralib/src/io/aigetstat.o(.text)
 .text          0x0000000080003190       0x10 build/lib/ultralib/src/io/aigetstat.o
                0x0000000080003190                osAiGetStatus
 build/lib/ultralib/src/io/aisetfreq.o(.text)
 .text          0x00000000800031a0      0x120 build/lib/ultralib/src/io/aisetfreq.o
                0x00000000800031a0                osAiSetFrequency
 build/lib/ultralib/src/io/aisetnextbuf.o(.text)
 .text          0x00000000800032c0       0xa0 build/lib/ultralib/src/io/aisetnextbuf.o
                0x00000000800032c0                osAiSetNextBuffer
 build/lib/ultralib/src/audio/env.o(.text)
 .text          0x0000000080003360      0xcb0 build/lib/ultralib/src/audio/env.o
                0x0000000080003360                alEnvmixerPull
                0x0000000080003860                alEnvmixerParam
                0x0000000080003c08                _frexpf
                0x0000000080003ce8                _ldexpf
 build/lib/ultralib/src/audio/sl.o(.text)
 .text          0x0000000080004010       0xb0 build/lib/ultralib/src/audio/sl.o
                0x0000000080004010                alInit
                0x000000008000403c                alClose
                0x000000008000406c                alLink
                0x000000008000408c                alUnlink
 build/lib/ultralib/src/audio/heapinit.o(.text)
 .text          0x00000000800040c0       0x40 build/lib/ultralib/src/audio/heapinit.o
                0x00000000800040c0                alHeapInit
 build/lib/ultralib/src/audio/synthesizer.o(.text)
 .text          0x0000000080004100      0x640 build/lib/ultralib/src/audio/synthesizer.o
                0x0000000080004100                alSynNew
                0x00000000800043cc                alAudioFrame
                0x000000008000457c                __allocParam
                0x00000000800045a8                __freeParam
                0x00000000800045c0                _collectPVoices
                0x0000000080004614                _freePVoice
                0x000000008000469c                _timeToSamples
 build/lib/ultralib/src/audio/syndelete.o(.text)
 .text          0x0000000080004740       0x10 build/lib/ultralib/src/audio/syndelete.o
                0x0000000080004740                alSynDelete
 build/lib/ultralib/src/audio/synaddplayer.o(.text)
 .text          0x0000000080004750       0x50 build/lib/ultralib/src/audio/synaddplayer.o
                0x0000000080004750                alSynAddPlayer
 build/lib/ultralib/src/audio/synallocvoice.o(.text)
 .text          0x00000000800047a0      0x1e0 build/lib/ultralib/src/audio/synallocvoice.o
                0x00000000800047a0                alSynAllocVoice
                0x00000000800048c8                _allocatePVoice
 build/lib/ultralib/src/audio/synstopvoice.o(.text)
 .text          0x0000000080004980       0x80 build/lib/ultralib/src/audio/synstopvoice.o
                0x0000000080004980                alSynStopVoice
 build/lib/ultralib/src/audio/synstartvoice.o(.text)
 .text          0x0000000080004a00       0xa0 build/lib/ultralib/src/audio/synstartvoice.o
                0x0000000080004a00                alSynStartVoice
 build/lib/ultralib/src/audio/synsetpitch.o(.text)
 .text          0x0000000080004aa0       0x90 build/lib/ultralib/src/audio/synsetpitch.o
                0x0000000080004aa0                alSynSetPitch
 build/lib/ultralib/src/audio/synsetvol.o(.text)
 .text          0x0000000080004b30       0xc0 build/lib/ultralib/src/audio/synsetvol.o
                0x0000000080004b30                alSynSetVol
 build/lib/ultralib/src/audio/synsetfxmix.o(.text)
 .text          0x0000000080004bf0       0xa0 build/lib/ultralib/src/audio/synsetfxmix.o
                0x0000000080004bf0                alSynSetFXMix
 build/lib/ultralib/src/audio/synsetpan.o(.text)
 .text          0x0000000080004c90       0x90 build/lib/ultralib/src/audio/synsetpan.o
                0x0000000080004c90                alSynSetPan
 build/lib/ultralib/src/audio/synallocfx.o(.text)
 .text          0x0000000080004d20       0xa0 build/lib/ultralib/src/audio/synallocfx.o
                0x0000000080004d20                alSynAllocFX
 build/lib/ultralib/src/os/invaldcache.o(.text)
 .text          0x0000000080004dc0       0xb0 build/lib/ultralib/src/os/invaldcache.o
                0x0000000080004dc0                osInvalDCache
 build/lib/ultralib/src/os/writebackdcacheall.o(.text)
 .text          0x0000000080004e70       0x30 build/lib/ultralib/src/os/writebackdcacheall.o
                0x0000000080004e70                osWritebackDCacheAll
 build/lib/ultralib/src/io/contquery.o(.text)
 .text          0x0000000080004ea0       0xa0 build/lib/ultralib/src/io/contquery.o
                0x0000000080004ea0                osContStartQuery
                0x0000000080004f20                osContGetQuery
 build/lib/ultralib/src/io/contreaddata.o(.text)
 .text          0x0000000080004f40      0x1e0 build/lib/ultralib/src/io/contreaddata.o
                0x0000000080004f40                osContStartReadData
                0x0000000080004fc8                osContGetReadData
 build/asm/us/libultra/io/controller.o(.text)
 .text          0x0000000080005120      0x310 build/asm/us/libultra/io/controller.o
                0x0000000080005120                osContInit
                0x00000000800052bc                __osContGetInitData
                0x0000000080005370                __osPackRequestData
 build/lib/ultralib/src/io/contsetch.o(.text)
 .text          0x0000000080005430       0x60 build/lib/ultralib/src/io/contsetch.o
                0x0000000080005430                osContSetCh
 build/lib/ultralib/src/os/virtualtophysical.o(.text)
 .text          0x0000000080005490       0x60 build/lib/ultralib/src/os/virtualtophysical.o
                0x0000000080005490                osVirtualToPhysical
 build/lib/ultralib/src/gu/sqrtf.o(.text)
 .text          0x00000000800054f0       0x10 build/lib/ultralib/src/gu/sqrtf.o
                0x00000000800054f0                sqrtf
 build/lib/ultralib/src/gu/cosf.o(.text)
 .text          0x0000000080005500      0x150 build/lib/ultralib/src/gu/cosf.o
                0x0000000080005500                cosf
                0x0000000080005500                __cosf
                0x0000000080005500                fcos
 build/lib/ultralib/src/gu/ortho.o(.text)
 .text          0x0000000080005650      0x280 build/lib/ultralib/src/gu/ortho.o
                0x0000000080005650                guOrthoF
                0x0000000080005780                guOrtho
 build/lib/ultralib/src/gu/perspective.o(.text)
 .text          0x00000000800058d0      0x380 build/lib/ultralib/src/gu/perspective.o
                0x00000000800058d0                guPerspectiveF
                0x0000000080005a80                guPerspective
 build/lib/ultralib/src/gu/rotaterpy.o(.text)
 .text          0x0000000080005c50      0x320 build/lib/ultralib/src/gu/rotaterpy.o
                0x0000000080005c50                guRotateRPYF
                0x0000000080005dd8                guRotateRPY
 build/lib/ultralib/src/gu/sinf.o(.text)
 .text          0x0000000080005f70      0x1a0 build/lib/ultralib/src/gu/sinf.o
                0x0000000080005f70                __sinf
                0x0000000080005f70                fsin
                0x0000000080005f70                sinf
 build/lib/ultralib/src/gu/sins.o(.text)
 .text          0x0000000080006110       0x60 build/lib/ultralib/src/gu/sins.o
                0x0000000080006110                sins
 build/lib/ultralib/src/libc/bcmp.o(.text)
 .text          0x0000000080006170      0x110 build/lib/ultralib/src/libc/bcmp.o
                0x0000000080006170                bcmp
 build/lib/ultralib/src/libc/bcopy.o(.text)
 .text          0x0000000080006280      0x320 build/lib/ultralib/src/libc/bcopy.o
                0x0000000080006280                bcopy
 build/lib/ultralib/src/libc/bzero.o(.text)
 .text          0x00000000800065a0       0xa0 build/lib/ultralib/src/libc/bzero.o
                0x00000000800065a0                bzero
 build/lib/ultralib/src/libc/string.o(.text)
 .text          0x0000000080006640       0x90 build/lib/ultralib/src/libc/string.o
                0x0000000080006640                strchr
                0x0000000080006680                strlen
                0x00000000800066a4                memcpy
 build/lib/ultralib/src/os/createmesgqueue.o(.text)
 .text          0x00000000800066d0       0x30 build/lib/ultralib/src/os/createmesgqueue.o
                0x00000000800066d0                osCreateMesgQueue
 build/lib/ultralib/src/os/jammesg.o(.text)
 .text          0x0000000080006700      0x140 build/lib/ultralib/src/os/jammesg.o
                0x0000000080006700                osJamMesg
 build/lib/ultralib/src/os/recvmesg.o(.text)
 .text          0x0000000080006840      0x130 build/lib/ultralib/src/os/recvmesg.o
                0x0000000080006840                osRecvMesg
 build/lib/ultralib/src/os/sendmesg.o(.text)
 .text          0x0000000080006970      0x130 build/lib/ultralib/src/os/sendmesg.o
                0x0000000080006970                osSendMesg
 build/asm/us/libultra/os/seteventmesg.o(.text)
 .text          0x0000000080006aa0       0xb0 build/asm/us/libultra/os/seteventmesg.o
                0x0000000080006aa0                osSetEventMesg
 build/asm/us/libultra/io/sptask.o(.text)
 .text          0x0000000080006b50      0x240 build/asm/us/libultra/io/sptask.o
                0x0000000080006b50                osSpTaskLoad
                0x0000000080006d5c                osSpTaskStartGo
 build/lib/ultralib/src/io/sptaskyield.o(.text)
 .text          0x0000000080006d90       0x20 build/lib/ultralib/src/io/sptaskyield.o
                0x0000000080006d90                osSpTaskYield
 build/lib/ultralib/src/io/sptaskyielded.o(.text)
 .text          0x0000000080006db0       0x50 build/lib/ultralib/src/io/sptaskyielded.o
                0x0000000080006db0                osSpTaskYielded
 build/lib/ultralib/src/sched/sched.o(.text)
 .text          0x0000000080006e00      0xa10 build/lib/ultralib/src/sched/sched.o
                0x0000000080006e00                osCreateScheduler
                0x0000000080006f48                osScAddClient
                0x0000000080006fa0                osScRemoveClient
                0x0000000080007030                osScGetCmdQ
                0x00000000800073bc                __scTaskReady
 build/lib/ultralib/src/io/sirawdma.o(.text)
 .text          0x0000000080007810       0xb0 build/lib/ultralib/src/io/sirawdma.o
                0x0000000080007810                __osSiRawStartDma
 build/asm/us/libultra/io/siacs.o(.text)
 .text          0x00000000800078c0       0xf0 build/asm/us/libultra/io/siacs.o
                0x00000000800078c0                __osSiCreateAccessQueue
                0x0000000080007914                __osSiGetAccess
                0x0000000080007980                __osSiRelAccess
 build/lib/ultralib/src/os/createthread.o(.text)
 .text          0x00000000800079b0       0xd0 build/lib/ultralib/src/os/createthread.o
                0x00000000800079b0                osCreateThread
 build/lib/ultralib/src/os/getthreadpri.o(.text)
 .text          0x0000000080007a80       0x20 build/lib/ultralib/src/os/getthreadpri.o
                0x0000000080007a80                osGetThreadPri
 build/lib/ultralib/src/os/setthreadpri.o(.text)
 .text          0x0000000080007aa0       0xd0 build/lib/ultralib/src/os/setthreadpri.o
                0x0000000080007aa0                osSetThreadPri
 build/lib/ultralib/src/os/startthread.o(.text)
 .text          0x0000000080007b70      0x120 build/lib/ultralib/src/os/startthread.o
                0x0000000080007b70                osStartThread
 build/lib/ultralib/src/os/stopthread.o(.text)
 .text          0x0000000080007c90       0xc0 build/lib/ultralib/src/os/stopthread.o
                0x0000000080007c90                osStopThread
 build/lib/ultralib/src/os/thread.o(.text)
 .text          0x0000000080007d50       0x40 build/lib/ultralib/src/os/thread.o
                0x0000000080007d50                __osDequeueThread
 build/lib/ultralib/src/os/yieldthread.o(.text)
 .text          0x0000000080007d90       0x50 build/lib/ultralib/src/os/yieldthread.o
                0x0000000080007d90                osYieldThread
 build/lib/ultralib/src/os/gettime.o(.text)
 .text          0x0000000080007de0       0x90 build/lib/ultralib/src/os/gettime.o
                0x0000000080007de0                osGetTime
 build/lib/ultralib/src/os/settime.o(.text)
 .text          0x0000000080007e70       0x20 build/lib/ultralib/src/os/settime.o
                0x0000000080007e70                osSetTime
 build/lib/ultralib/src/os/settimer.o(.text)
 .text          0x0000000080007e90      0x130 build/lib/ultralib/src/os/settimer.o
                0x0000000080007e90                osSetTimer
 build/asm/us/libultra/os/timerintr.o(.text)
 .text          0x0000000080007fc0      0x320 build/asm/us/libultra/os/timerintr.o
                0x0000000080007fc0                __osTimerServicesInit
                0x0000000080008014                __osTimerInterrupt
                0x0000000080008150                __osSetTimerIntr
                0x00000000800081d0                __osInsertTimer
 build/lib/ultralib/src/os/probetlb.o(.text)
 .text          0x00000000800082e0       0xc0 build/lib/ultralib/src/os/probetlb.o
                0x00000000800082e0                __osProbeTLB
 build/lib/ultralib/src/io/vigetcurrframebuf.o(.text)
 .text          0x00000000800083a0       0x40 build/lib/ultralib/src/io/vigetcurrframebuf.o
                0x00000000800083a0                osViGetCurrentFramebuffer
 build/lib/ultralib/src/io/vigetnextframebuf.o(.text)
 .text          0x00000000800083e0       0x40 build/lib/ultralib/src/io/vigetnextframebuf.o
                0x00000000800083e0                osViGetNextFramebuffer
 build/asm/us/libultra/io/vimgr.o(.text)
 .text          0x0000000080008420      0x340 build/asm/us/libultra/io/vimgr.o
                0x0000000080008420                osCreateViManager
                0x00000000800085c0                viMgrMain
 build/lib/ultralib/src/io/visetevent.o(.text)
 .text          0x0000000080008760       0x60 build/lib/ultralib/src/io/visetevent.o
                0x0000000080008760                osViSetEvent
 build/lib/ultralib/src/io/visetmode.o(.text)
 .text          0x00000000800087c0       0x50 build/lib/ultralib/src/io/visetmode.o
                0x00000000800087c0                osViSetMode
 build/lib/ultralib/src/io/visetspecial.o(.text)
 .text          0x0000000080008810      0x170 build/lib/ultralib/src/io/visetspecial.o
                0x0000000080008810                osViSetSpecialFeatures
 build/lib/ultralib/src/io/visetyscale.o(.text)
 .text          0x0000000080008980       0x50 build/lib/ultralib/src/io/visetyscale.o
                0x0000000080008980                osViSetYScale
 build/lib/ultralib/src/io/viswapbuf.o(.text)
 .text          0x00000000800089d0       0x50 build/lib/ultralib/src/io/viswapbuf.o
                0x00000000800089d0                osViSwapBuffer
 build/lib/ultralib/src/io/viswapcontext.o(.text)
 .text          0x0000000080008a20      0x310 build/lib/ultralib/src/io/viswapcontext.o
                0x0000000080008a20                __osViSwapContext
 build/lib/ultralib/src/io/viblack.o(.text)
 .text          0x0000000080008d30       0x60 build/lib/ultralib/src/io/viblack.o
                0x0000000080008d30                osViBlack
 build/asm/us/libultra/nops_9990.o(.text)
 .text          0x0000000080008d90       0x10 build/asm/us/libultra/nops_9990.o
                0x0000000080008d90                func_80008D90
 build/lib/ultralib/src/mgu/mtxident.o(.text)
 .text          0x0000000080008da0       0x60 build/lib/ultralib/src/mgu/mtxident.o
                0x0000000080008da0                guMtxIdent
 build/lib/ultralib/src/mgu/mtxidentf.o(.text)
 .text          0x0000000080008e00       0x60 build/lib/ultralib/src/mgu/mtxidentf.o
                0x0000000080008e00                guMtxIdentF
 build/lib/ultralib/src/mgu/mtxf2l.o(.text)
 .text          0x0000000080008e60       0x80 build/lib/ultralib/src/mgu/mtxf2l.o
                0x0000000080008e60                guMtxF2L
 build/lib/ultralib/src/mgu/mtxl2f.o(.text)
 .text          0x0000000080008ee0       0x80 build/lib/ultralib/src/mgu/mtxl2f.o
                0x0000000080008ee0                guMtxL2F
 build/lib/ultralib/src/mgu/mtxcatf.o(.text)
 .text          0x0000000080008f60      0x100 build/lib/ultralib/src/mgu/mtxcatf.o
                0x0000000080008f60                guMtxCatF
 build/lib/ultralib/src/mgu/scale.o(.text)
 .text          0x0000000080009060       0xc0 build/lib/ultralib/src/mgu/scale.o
                0x0000000080009060                guScale
 build/lib/ultralib/src/mgu/scalef.o(.text)
 .text          0x0000000080009120       0x60 build/lib/ultralib/src/mgu/scalef.o
                0x0000000080009120                guScaleF
 build/lib/ultralib/src/mgu/translate.o(.text)
 .text          0x0000000080009180       0xe0 build/lib/ultralib/src/mgu/translate.o
                0x0000000080009180                guTranslate
 build/lib/ultralib/src/mgu/translatef.o(.text)
 .text          0x0000000080009260       0x60 build/lib/ultralib/src/mgu/translatef.o
                0x0000000080009260                guTranslateF
 build/asm/us/libultra/os/initialize.o(.text)
 .text          0x00000000800092c0      0x3a0 build/asm/us/libultra/os/initialize.o
                0x00000000800092c0                __createSpeedParam
                0x0000000080009378                __osInitialize_common
                0x0000000080009650                __osInitialize_autodetect
 build/asm/us/libultra/io/conteepread.o(.text)
 .text          0x0000000080009660      0x220 build/asm/us/libultra/io/conteepread.o
                0x0000000080009660                osEepromRead
                0x00000000800097f8                __osPackEepReadData
 build/asm/us/libultra/io/conteepwrite.o(.text)
 .text          0x0000000080009880      0x3b0 build/asm/us/libultra/io/conteepwrite.o
                0x0000000080009880                osEepromWrite
                0x00000000800099e8                __osPackEepWriteData
                0x0000000080009a90                __osEepStatus
 build/lib/ultralib/src/os/exceptasm.o(.text)
 .text          0x0000000080009c30      0x970 build/lib/ultralib/src/os/exceptasm.o
                0x0000000080009c30                __osExceptionPreamble
                0x0000000080009c40                __osException
                0x000000008000a1bc                send_mesg
                0x000000008000a278                handle_CpU
                0x000000008000a2ac                __osEnqueueAndYield
                0x000000008000a3b4                __osEnqueueThread
                0x000000008000a3fc                __osPopThread
                0x000000008000a40c                __osNop
                0x000000008000a414                __osDispatchThread
                0x000000008000a590                __osCleanupThread
 build/lib/ultralib/src/os/interrupt.o(.text)
 .text          0x000000008000a5a0       0x90 build/lib/ultralib/src/os/interrupt.o
                0x000000008000a5a0                __osDisableInt
                0x000000008000a610                __osRestoreInt
 build/lib/ultralib/src/os/setintmask.o(.text)
 .text          0x000000008000a630       0xa0 build/lib/ultralib/src/os/setintmask.o
                0x000000008000a630                osSetIntMask
 build/lib/ultralib/src/os/setglobalintmask.o(.text)
 .text          0x000000008000a6d0       0x40 build/lib/ultralib/src/os/setglobalintmask.o
                0x000000008000a6d0                __osSetGlobalIntMask
 build/lib/ultralib/src/os/resetglobalintmask.o(.text)
 .text          0x000000008000a710       0x50 build/lib/ultralib/src/os/resetglobalintmask.o
                0x000000008000a710                __osResetGlobalIntMask
 build/lib/ultralib/src/io/pirawdma.o(.text)
 .text          0x000000008000a760       0xd0 build/lib/ultralib/src/io/pirawdma.o
                0x000000008000a760                __osPiRawStartDma
 build/lib/ultralib/src/io/pigetcmdq.o(.text)
 .text          0x000000008000a830       0x20 build/lib/ultralib/src/io/pigetcmdq.o
                0x000000008000a830                osPiGetCmdQueue
 build/lib/ultralib/src/io/epirawread.o(.text)
 .text          0x000000008000a850      0x170 build/lib/ultralib/src/io/epirawread.o
                0x000000008000a850                __osEPiRawReadIo
 build/lib/ultralib/src/io/epirawwrite.o(.text)
 .text          0x000000008000a9c0      0x170 build/lib/ultralib/src/io/epirawwrite.o
                0x000000008000a9c0                __osEPiRawWriteIo
 build/lib/ultralib/src/io/ai.o(.text)
 .text          0x000000008000ab30       0x20 build/lib/ultralib/src/io/ai.o
                0x000000008000ab30                __osAiDeviceBusy
 build/lib/ultralib/src/audio/drvrnew.o(.text)
 .text          0x000000008000ab50      0x830 build/lib/ultralib/src/audio/drvrnew.o
                0x000000008000ab50                _init_lpfilter
                0x000000008000abf4                alFxNew
                0x000000008000b08c                alEnvmixerNew
                0x000000008000b144                alLoadNew
                0x000000008000b1f4                alResampleNew
                0x000000008000b280                alAuxBusNew
                0x000000008000b2dc                alMainBusNew
                0x000000008000b338                alSaveNew
 build/lib/ultralib/src/audio/load.o(.text)
 .text          0x000000008000b380      0xb10 build/lib/ultralib/src/audio/load.o
                0x000000008000b380                alAdpcmPull
                0x000000008000b7c4                alRaw16Pull
                0x000000008000bb60                alLoadParam
 build/lib/ultralib/src/audio/auxbus.o(.text)
 .text          0x000000008000be90      0x110 build/lib/ultralib/src/audio/auxbus.o
                0x000000008000be90                alAuxBusPull
                0x000000008000bf6c                alAuxBusParam
 build/lib/ultralib/src/audio/filter.o(.text)
 .text          0x000000008000bfa0       0x20 build/lib/ultralib/src/audio/filter.o
                0x000000008000bfa0                alFilterNew
 build/lib/ultralib/src/audio/mainbus.o(.text)
 .text          0x000000008000bfc0      0x170 build/lib/ultralib/src/audio/mainbus.o
                0x000000008000bfc0                alMainBusPull
                0x000000008000c100                alMainBusParam
 build/lib/ultralib/src/audio/resample.o(.text)
 .text          0x000000008000c130      0x2b0 build/lib/ultralib/src/audio/resample.o
                0x000000008000c130                alResamplePull
                0x000000008000c31c                alResampleParam
 build/lib/ultralib/src/audio/reverb.o(.text)
 .text          0x000000008000c3e0      0xba0 build/lib/ultralib/src/audio/reverb.o
                0x000000008000c3e0                alFxPull
                0x000000008000c754                alFxParam
                0x000000008000c768                alFxParamHdl
                0x000000008000c958                _loadOutputBuffer
                0x000000008000cb70                _loadBuffer
                0x000000008000cce0                _saveBuffer
                0x000000008000ce50                _filterBuffer
                0x000000008000ceec                _doModFunc
 build/lib/ultralib/src/audio/save.o(.text)
 .text          0x000000008000cf80       0xd0 build/lib/ultralib/src/audio/save.o
                0x000000008000cf80                alSavePull
                0x000000008000d028                alSaveParam
 build/lib/ultralib/src/audio/heapalloc.o(.text)
 .text          0x000000008000d050       0x50 build/lib/ultralib/src/audio/heapalloc.o
                0x000000008000d050                alHeapDBAlloc
 build/lib/ultralib/src/audio/copy.o(.text)
 .text          0x000000008000d0a0       0x40 build/lib/ultralib/src/audio/copy.o
                0x000000008000d0a0                alCopy
 build/lib/ultralib/src/os/invalicache.o(.text)
 .text          0x000000008000d0e0       0x80 build/lib/ultralib/src/os/invalicache.o
                0x000000008000d0e0                osInvalICache
 build/lib/ultralib/src/os/writebackdcache.o(.text)
 .text          0x000000008000d160       0x80 build/lib/ultralib/src/os/writebackdcache.o
                0x000000008000d160                osWritebackDCache
 build/lib/ultralib/src/io/dpsetnextbuf.o(.text)
 .text          0x000000008000d1e0       0xa0 build/lib/ultralib/src/io/dpsetnextbuf.o
                0x000000008000d1e0                osDpSetNextBuffer
 build/lib/ultralib/src/os/getcause.o(.text)
 .text          0x000000008000d280       0x10 build/lib/ultralib/src/os/getcause.o
                0x000000008000d280                __osGetCause
 build/lib/ultralib/src/os/getcount.o(.text)
 .text          0x000000008000d290       0x10 build/lib/ultralib/src/os/getcount.o
                0x000000008000d290                osGetCount
 build/lib/ultralib/src/os/getsr.o(.text)
 .text          0x000000008000d2a0       0x10 build/lib/ultralib/src/os/getsr.o
                0x000000008000d2a0                __osGetSR
 build/lib/ultralib/src/os/setcompare.o(.text)
 .text          0x000000008000d2b0       0x10 build/lib/ultralib/src/os/setcompare.o
                0x000000008000d2b0                __osSetCompare
 build/lib/ultralib/src/os/setfpccsr.o(.text)
 .text          0x000000008000d2c0       0x10 build/lib/ultralib/src/os/setfpccsr.o
                0x000000008000d2c0                __osSetFpcCsr
 build/lib/ultralib/src/os/setsr.o(.text)
 .text          0x000000008000d2d0       0x10 build/lib/ultralib/src/os/setsr.o
                0x000000008000d2d0                __osSetSR
 build/lib/ultralib/src/os/setwatchlo.o(.text)
 .text          0x000000008000d2e0       0x10 build/lib/ultralib/src/os/setwatchlo.o
                0x000000008000d2e0                __osSetWatchLo
 build/lib/ultralib/src/io/sp.o(.text)
 .text          0x000000008000d2f0       0x20 build/lib/ultralib/src/io/sp.o
                0x000000008000d2f0                __osSpDeviceBusy
 build/lib/ultralib/src/io/spgetstat.o(.text)
 .text          0x000000008000d310       0x10 build/lib/ultralib/src/io/spgetstat.o
                0x000000008000d310                __osSpGetStatus
 build/lib/ultralib/src/io/spsetstat.o(.text)
 .text          0x000000008000d320       0x10 build/lib/ultralib/src/io/spsetstat.o
                0x000000008000d320                __osSpSetStatus
 build/lib/ultralib/src/io/spsetpc.o(.text)
 .text          0x000000008000d330       0x30 build/lib/ultralib/src/io/spsetpc.o
                0x000000008000d330                __osSpSetPc
 build/lib/ultralib/src/io/sprawdma.o(.text)
 .text          0x000000008000d360       0x90 build/lib/ultralib/src/io/sprawdma.o
                0x000000008000d360                __osSpRawStartDma
 build/lib/ultralib/src/io/sirawread.o(.text)
 .text          0x000000008000d3f0       0x50 build/lib/ultralib/src/io/sirawread.o
                0x000000008000d3f0                __osSiRawReadIo
 build/lib/ultralib/src/io/sirawwrite.o(.text)
 .text          0x000000008000d440       0x50 build/lib/ultralib/src/io/sirawwrite.o
                0x000000008000d440                __osSiRawWriteIo
 build/lib/ultralib/src/os/destroythread.o(.text)
 .text          0x000000008000d490       0xe0 build/lib/ultralib/src/os/destroythread.o
                0x000000008000d490                osDestroyThread
 build/lib/ultralib/src/os/maptlbrdb.o(.text)
 .text          0x000000008000d570       0x60 build/lib/ultralib/src/os/maptlbrdb.o
                0x000000008000d570                osMapTLBRdb
 build/lib/ultralib/src/os/unmaptlball.o(.text)
 .text          0x000000008000d5d0       0x50 build/lib/ultralib/src/os/unmaptlball.o
                0x000000008000d5d0                osUnmapTLBAll
 build/asm/us/libultra/io/vi.o(.text)
 .text          0x000000008000d620      0x110 build/asm/us/libultra/io/vi.o
                0x000000008000d620                __osViInit
 build/lib/ultralib/src/io/vigetcurrcontext.o(.text)
 .text          0x000000008000d730       0x10 build/lib/ultralib/src/io/vigetcurrcontext.o
                0x000000008000d730                __osViGetCurrentContext
 build/lib/ultralib/src/os/parameters.o(.text)
 .text          0x000000008000d740       0x60 build/lib/ultralib/src/os/parameters.o
 build/lib/ultralib/src/io/dp.o(.text)
 .text          0x000000008000d7a0       0x20 build/lib/ultralib/src/io/dp.o
                0x000000008000d7a0                __osDpDeviceBusy
 build/lib/ultralib/src/io/si.o(.text)
 .text          0x000000008000d7c0       0x20 build/lib/ultralib/src/io/si.o
                0x000000008000d7c0                __osSiDeviceBusy
 build/src/libkmc/fmod.o(.text)
 .text          0x000000008000d7e0      0x1e0 build/src/libkmc/fmod.o
                0x000000008000d7e0                __fint
                0x000000008000d868                fmod
                0x000000008000d8c4                ceil
                0x000000008000d940                floor
 build/src/libkmc/memmove.o(.text)
 .text          0x000000008000d9c0      0x170 build/src/libkmc/memmove.o
                0x000000008000d9c0                _memmover
                0x000000008000dac4                memmove
                0x000000008000db0c                movmem
 build/src/libkmc/memset.o(.text)
 .text          0x000000008000db30       0xd0 build/src/libkmc/memset.o
                0x000000008000db30                memset
                0x000000008000dbd0                setmem
 build/src/libkmc/modf.o(.text)
 .text          0x000000008000dc00       0xb0 build/src/libkmc/modf.o
                0x000000008000dc00                modf
 build/src/libkmc/rand.o(.text)
 .text          0x000000008000dcb0       0x40 build/src/libkmc/rand.o
                0x000000008000dcb0                rand
                0x000000008000dce4                srand
 build/src/libkmc/strcpy.o(.text)
 .text          0x000000008000dcf0       0xd0 build/src/libkmc/strcpy.o
                0x000000008000dcf0                strcpy
 build/src/libkmc/mmuldi3.o(.text)
 .text          0x000000008000ddc0      0x3d0 build/src/libkmc/mmuldi3.o
                0x000000008000ddc0                __muldi3
                0x000000008000ddf8                div64_64
                0x000000008000def4                div64_32
                0x000000008000dfc0                __divdi3
                0x000000008000e070                __moddi3
                0x000000008000e130                __udivdi3
                0x000000008000e150                __umoddi3
                0x000000008000e190                boot_TEXT_END = .
                0x000000000000dd30                boot_TEXT_SIZE = ABSOLUTE ((boot_TEXT_END - boot_TEXT_START))
                0x000000008000e190                boot_DATA_START = .
                0x000000008000e190                boot_boot_main = .
 build/src/boot/boot_main.o(.data)
 .data          0x000000008000e190       0x10 build/src/boot/boot_main.o
                0x000000008000e190                D_8000E190
                0x000000008000e1a0                boot_dmadata = .
 build/src/boot/dmadata.o(.data)
 .data          0x000000008000e1a0       0x10 build/src/boot/dmadata.o
                0x000000008000e1a0                sDmaDataNeedsInitialization
                0x000000008000e1b0                boot_00EDB0_data = .
 build/asm/us/data/boot/00EDB0.data.o(.data)
 .data          0x000000008000e1b0      0x590 build/asm/us/data/boot/00EDB0.data.o
                0x000000008000e1b0                D_8000E1B0
                0x000000008000e1fc                D_8000E1FC
                0x000000008000e23c                D_8000E23C
                0x000000008000e27c                D_8000E27C
                0x000000008000e2b8                D_8000E2B8
                0x000000008000e2f4                D_8000E2F4
                0x000000008000e318                D_8000E318
                0x000000008000e31c                D_8000E31C
                0x000000008000e320                gzip_malloc_addr
                0x000000008000e324                D_8000E324
                0x000000008000e338                crc_32_tab
                0x000000008000e738                crc_132
                0x000000008000e740                boot_rom_offsets = .
 build/src/boot/rom_offsets.o(.data)
 .data          0x000000008000e740      0x310 build/src/boot/rom_offsets.o
                0x000000008000e740                storyRomData
                0x000000008000e778                bgRomData
                0x000000008000e838                _romDataTbl
                0x000000008000ea50                libultra_pimgr_data = .
 build/asm/us/data/libultra/pimgr.data.o(.data)
 .data          0x000000008000ea50       0x30 build/asm/us/data/libultra/pimgr.data.o
                0x000000008000ea50                __osPiDevMgr
                0x000000008000ea6c                __osPiTable
                0x000000008000ea70                __osCurrentHandle
                0x000000008000ea80                libultra_cartrominit_data = .
 build/asm/us/data/libultra/cartrominit.data.o(.data)
 .data          0x000000008000ea80       0x10 build/asm/us/data/libultra/cartrominit.data.o
                0x000000008000ea80                D_8000EA80
                0x000000008000ea90                libultra_piacs_data = .
 build/asm/us/data/libultra/piacs.data.o(.data)
 .data          0x000000008000ea90       0x10 build/asm/us/data/libultra/piacs.data.o
                0x000000008000ea90                __osPiAccessQueueEnabled
                0x000000008000eaa0                ___lib_ultralib_src_io_aisetnextbuf = .
 build/lib/ultralib/src/io/aisetnextbuf.o(.data)
 .data          0x000000008000eaa0       0x10 build/lib/ultralib/src/io/aisetnextbuf.o
                0x000000008000eab0                ___lib_ultralib_src_audio_env = .
 build/lib/ultralib/src/audio/env.o(.data)
 .data          0x000000008000eab0      0x100 build/lib/ultralib/src/audio/env.o
                0x000000008000ebb0                ___lib_ultralib_src_audio_sl = .
 build/lib/ultralib/src/audio/sl.o(.data)
 .data          0x000000008000ebb0       0x10 build/lib/ultralib/src/audio/sl.o
                0x000000008000ebb0                alGlobals
                0x000000008000ebc0                libultra_controller_data = .
 build/asm/us/data/libultra/controller.data.o(.data)
 .data          0x000000008000ebc0       0x10 build/asm/us/data/libultra/controller.data.o
                0x000000008000ebc0                D_8000EBC0
                0x000000008000ebd0                ___lib_ultralib_src_gu_rotaterpy = .
 build/lib/ultralib/src/gu/rotaterpy.o(.data)
 .data          0x000000008000ebd0       0x10 build/lib/ultralib/src/gu/rotaterpy.o
                0x000000008000ebe0                ___lib_ultralib_src_gu_sins = .
 build/lib/ultralib/src/gu/sins.o(.data)
 .data          0x000000008000ebe0      0x800 build/lib/ultralib/src/gu/sins.o
                0x000000008000f3e0                libultra_seteventmesg_data = .
 build/asm/us/data/libultra/seteventmesg.data.o(.data)
 .data          0x000000008000f3e0       0x10 build/asm/us/data/libultra/seteventmesg.data.o
                0x000000008000f3e0                __osPreNMI
                0x000000008000f3f0                ___lib_ultralib_src_sched_sched = .
 build/lib/ultralib/src/sched/sched.o(.data)
 .data          0x000000008000f3f0       0x10 build/lib/ultralib/src/sched/sched.o
                0x000000008000f400                libultra_siacs_data = .
 build/asm/us/data/libultra/siacs.data.o(.data)
 .data          0x000000008000f400       0x10 build/asm/us/data/libultra/siacs.data.o
                0x000000008000f400                __osSiAccessQueueEnabled
                0x000000008000f410                ___lib_ultralib_src_os_thread = .
 build/lib/ultralib/src/os/thread.o(.data)
 .data          0x000000008000f410       0x20 build/lib/ultralib/src/os/thread.o
                0x000000008000f410                __osThreadTail
                0x000000008000f418                __osRunQueue
                0x000000008000f41c                __osActiveQueue
                0x000000008000f420                __osRunningThread
                0x000000008000f424                __osFaultedThread
                0x000000008000f430                libultra_timerintr_data = .
 build/asm/us/data/libultra/timerintr.data.o(.data)
 .data          0x000000008000f430       0x10 build/asm/us/data/libultra/timerintr.data.o
                0x000000008000f430                __osTimerList
                0x000000008000f440                libultra_vimgr_data = .
 build/asm/us/data/libultra/vimgr.data.o(.data)
 .data          0x000000008000f440       0x20 build/asm/us/data/libultra/vimgr.data.o
                0x000000008000f440                __osViDevMgr
                0x000000008000f45c                __additional_scanline
                0x000000008000f460                ___lib_ultralib_src_io_vitbl = .
 build/lib/ultralib/src/io/vitbl.o(.data)
 .data          0x000000008000f460     0x1180 build/lib/ultralib/src/io/vitbl.o
                0x000000008000f460                osViModeTable
                0x00000000800105e0                libultra_initialize_data = .
 build/asm/us/data/libultra/initialize.data.o(.data)
 .data          0x00000000800105e0       0x20 build/asm/us/data/libultra/initialize.data.o
                0x00000000800105e0                osClockRate
                0x00000000800105e8                osViClock
                0x00000000800105ec                __osShutdown
                0x00000000800105f0                __OSGlobalIntMask
                0x0000000080010600                ___lib_ultralib_src_os_exceptasm = .
 build/lib/ultralib/src/os/exceptasm.o(.data)
 .data          0x0000000080010600       0x30 build/lib/ultralib/src/os/exceptasm.o
                0x0000000080010600                __osHwIntTable
                0x0000000080010628                __osPiIntTable
                0x0000000080010630                ___lib_ultralib_src_audio_drvrnew = .
 build/lib/ultralib/src/audio/drvrnew.o(.data)
 .data          0x0000000080010630      0x190 build/lib/ultralib/src/audio/drvrnew.o
                0x00000000800107c0                boot_0113C0_data = .
 build/asm/us/data/boot/0113C0.data.o(.data)
 .data          0x00000000800107c0       0x20 build/asm/us/data/boot/0113C0.data.o
                0x00000000800107c0                D_800107C0
                0x00000000800107e0                libultra_vi_data = .
 build/asm/us/data/libultra/vi.data.o(.data)
 .data          0x00000000800107e0       0x70 build/asm/us/data/libultra/vi.data.o
                0x00000000800107e0                vi
                0x0000000080010840                __osViCurr
                0x0000000080010844                __osViNext
                0x0000000080010850                ___lib_ultralib_src_vimodes_vimodentsclan1 = .
 build/lib/ultralib/src/vimodes/vimodentsclan1.o(.data)
 .data          0x0000000080010850       0x50 build/lib/ultralib/src/vimodes/vimodentsclan1.o
                0x0000000080010850                osViModeNtscLan1
                0x00000000800108a0                ___lib_ultralib_src_vimodes_vimodepallan1 = .
 build/lib/ultralib/src/vimodes/vimodepallan1.o(.data)
 .data          0x00000000800108a0       0x50 build/lib/ultralib/src/vimodes/vimodepallan1.o
                0x00000000800108a0                osViModePalLan1
                0x00000000800108f0                ___lib_ultralib_src_vimodes_vimodempallan1 = .
 build/lib/ultralib/src/vimodes/vimodempallan1.o(.data)
 .data          0x00000000800108f0       0x50 build/lib/ultralib/src/vimodes/vimodempallan1.o
                0x00000000800108f0                osViModeMpalLan1
                0x0000000080010940                libkmc_ctype = .
 build/src/libkmc/ctype.o(.data)
 .data          0x0000000080010940      0x100 build/src/libkmc/ctype.o
                0x0000000080010940                __ctype_map
                0x0000000080010a40                boot_DATA_END = .
                0x00000000000028b0                boot_DATA_SIZE = ABSOLUTE ((boot_DATA_END - boot_DATA_START))
                0x0000000080010a40                boot_RODATA_START = .
 build/lib/ultralib/src/io/devmgr.o(.rodata)
 .rodata        0x0000000080010a40       0x20 build/lib/ultralib/src/io/devmgr.o
 build/lib/ultralib/src/io/aisetfreq.o(.rodata)
 .rodata        0x0000000080010a60       0x10 build/lib/ultralib/src/io/aisetfreq.o
 build/lib/ultralib/src/audio/env.o(.rodata)
 .rodata        0x0000000080010a70       0xf0 build/lib/ultralib/src/audio/env.o
 build/lib/ultralib/src/audio/synthesizer.o(.rodata)
 .rodata        0x0000000080010b60       0x20 build/lib/ultralib/src/audio/synthesizer.o
 build/lib/ultralib/src/gu/cosf.o(.rodata)
 .rodata        0x0000000080010b80       0x60 build/lib/ultralib/src/gu/cosf.o
 build/lib/ultralib/src/gu/perspective.o(.rodata)
 .rodata        0x0000000080010be0       0x40 build/lib/ultralib/src/gu/perspective.o
 build/lib/ultralib/src/gu/sinf.o(.rodata)
 .rodata        0x0000000080010c20       0x60 build/lib/ultralib/src/gu/sinf.o
 build/lib/ultralib/src/sched/sched.o(.rodata)
 .rodata        0x0000000080010c80       0x20 build/lib/ultralib/src/sched/sched.o
 build/lib/ultralib/src/io/viswapcontext.o(.rodata)
 .rodata        0x0000000080010ca0       0x10 build/lib/ultralib/src/io/viswapcontext.o
 build/lib/ultralib/src/os/exceptasm.o(.rodata)
 .rodata        0x0000000080010cb0       0x50 build/lib/ultralib/src/os/exceptasm.o
 build/lib/ultralib/src/os/setintmask.o(.rodata)
 .rodata        0x0000000080010d00       0x80 build/lib/ultralib/src/os/setintmask.o
                0x0000000080010d00                __osRcpImTable
 build/lib/ultralib/src/audio/drvrnew.o(.rodata)
 .rodata        0x0000000080010d80       0x40 build/lib/ultralib/src/audio/drvrnew.o
 build/lib/ultralib/src/audio/resample.o(.rodata)
 .rodata        0x0000000080010dc0       0x30 build/lib/ultralib/src/audio/resample.o
 build/lib/ultralib/src/audio/reverb.o(.rodata)
 .rodata        0x0000000080010df0       0x50 build/lib/ultralib/src/audio/reverb.o
 build/lib/ultralib/src/gu/libm_vals.o(.rodata)
 .rodata        0x0000000080010e40       0x10 build/lib/ultralib/src/gu/libm_vals.o
                0x0000000080010e40                __libm_qnan_f
 build/src/libkmc/fmod.o(.rodata)
 .rodata        0x0000000080010e50       0x10 build/src/libkmc/fmod.o
                0x0000000080010e60                boot_RODATA_END = .
                0x0000000000000420                boot_RODATA_SIZE = ABSOLUTE ((boot_RODATA_END - boot_RODATA_START))
                0x0000000080010e60                boot_bss_VRAM = ADDR (.boot_bss)

.boot_bss       0x0000000080010e60    0x18de0 load address 0x0000000000011a60
                0x0000000080010e60                boot_BSS_START = .
 build/asm/us/data/boot/boot_main.bss.o(.bss)
 .bss           0x0000000080010e60     0x4360 build/asm/us/data/boot/boot_main.bss.o
                0x0000000080010e60                sIdleThread
                0x0000000080011010                sMainThread
                0x00000000800111c0                sIdleStack
                0x00000000800131c0                sMainStack
 build/asm/us/data/boot/800151C0.bss.o(.bss)
 .bss           0x00000000800151c0     0x4020 build/asm/us/data/boot/800151C0.bss.o
                0x00000000800151c0                B_800151C0
                0x00000000800151d8                B_800151D8
                0x00000000800151e0                gzip_mem_buff
 build/asm/us/data/libultra/pimgr.bss.o(.bss)
 .bss           0x00000000800191e0     0x11d0 build/asm/us/data/libultra/pimgr.bss.o
                0x00000000800191e0                piThread
                0x0000000080019390                piThreadStack
                0x000000008001a390                piEventQueue
                0x000000008001a3a8                piEventBuf
 build/asm/us/data/boot/8001A3B0.bss.o(.bss)
 .bss           0x000000008001a3b0     0x1280 build/asm/us/data/boot/8001A3B0.bss.o
                0x000000008001a3b0                piAccessBuf
                0x000000008001a3c0                B_8001A3C0
                0x000000008001a3c4                B_8001A3C4
                0x000000008001a3d0                B_8001A3D0
                0x000000008001a3d8                B_8001A3D8
                0x000000008001a3dc                B_8001A3DC
                0x000000008001a3e0                B_8001A3E0
                0x000000008001a3e8                B_8001A3E8
                0x000000008001a3ec                B_8001A3EC
                0x000000008001a3f0                B_8001A3F0
                0x000000008001a3f8                B_8001A3F8
                0x000000008001a3fc                B_8001A3FC
                0x000000008001a400                siAccessBuf
                0x000000008001a410                B_8001A410
                0x000000008001a418                viThread
                0x000000008001a5c8                D_8001A5C8
                0x000000008001a5d0                viThreadStack
                0x000000008001b5d0                viEventQueue
                0x000000008001b5e8                viEventBuf
                0x000000008001b600                viRetraceMsg
                0x000000008001b618                viCounterMsg
 build/src/libkmc/rand.o(.bss)
 .bss           0x000000008001b630       0x10 build/src/libkmc/rand.o
                0x000000008001b630                sRandNext
 build/asm/us/data/boot/8001B640.bss.o(.bss)
 .bss           0x000000008001b640     0x4370 build/asm/us/data/boot/8001B640.bss.o
                0x000000008001b640                inbuf
                0x000000008001d640                bk
                0x000000008001d644                __osBaseCounter
                0x000000008001d648                __osThreadSave
                0x000000008001d7f8                ofd
                0x000000008001d800                __osContPifRam
                0x000000008001d838                B_8001D838
                0x000000008001d83c                B_8001D83C
                0x000000008001d840                __Dom2SpeedParam
                0x000000008001d8b4                D_8001D8B4
                0x000000008001d8c0                gBootThreadStack
                0x000000008001f8c0                sPiMgrCmdBuff
                0x000000008001f988                B_8001F988
                0x000000008001f98c                insize
                0x000000008001f990                outcnt
                0x000000008001f994                __osMaxControllers
                0x000000008001f998                B_8001F998
                0x000000008001f9a0                __osCurrentTime
                0x000000008001f9a8                hufts
 build/asm/us/data/libultra/cartrominit.bss.o(.bss)
 .bss           0x000000008001f9b0       0x80 build/asm/us/data/libultra/cartrominit.bss.o
                0x000000008001f9b0                __CartRomHandle
                0x000000008001fa24                D_8001FA24
 build/asm/us/data/boot/8001FA30.bss.o(.bss)
 .bss           0x000000008001fa30     0xa210 build/asm/us/data/boot/8001FA30.bss.o
                0x000000008001fa30                B_8001FA30
                0x000000008001fa6c                B_8001FA6C
                0x000000008001fa70                __osPiAccessQueue
                0x000000008001fa88                __Dom1SpeedParam
                0x000000008001fafc                bytes_in
                0x000000008001fb00                bytes_out
                0x000000008001fb04                __osContLastCmd
                0x000000008001fb08                __osEepromTimerMsg
                0x000000008001fb10                __osBaseTimer
                0x000000008001fb30                __osTimerCounter
                0x0000000080021b40                __osEepromTimer
                0x0000000080021b60                __osEventStateTab
                0x0000000080021bd8                __osFinalrom
                0x0000000080021be0                window
                0x0000000080029be0                inptr
                0x0000000080029be8                __osEepromTimerQ
                0x0000000080029c00                ifd
                0x0000000080029c08                sPiMgrCmdQueue
                0x0000000080029c20                __osSiAccessQueue
                0x0000000080029c40                boot_BSS_END = .
                0x0000000000018de0                boot_BSS_SIZE = ABSOLUTE ((boot_BSS_END - boot_BSS_START))
                0x0000000000646e68                __romPos = (__romPos + SIZEOF (.boot))
                0x0000000000646e68                __romPos = ALIGN (__romPos, 0x10)
                0x0000000000011a60                boot_ROM_END = __romPos
                0x0000000080029c40                boot_VRAM_END = .
                0x0000000000011a60                dma_table_ROM_START = __romPos
                0x0000000080029c40                dma_table_VRAM = ADDR (.dma_table)

.dma_table      0x0000000080029c40       0x10 load address 0x0000000000011a60
                0x0000000080029c40                dma_table_DATA_START = .
                0x0000000080029c40                dma_table_dma_table = .
 build/src/dma_table/dma_table.o(.data)
 .data          0x0000000080029c40       0x10 build/src/dma_table/dma_table.o
                0x0000000080029c40                gMainSegmentDmaInfo
                0x0000000080029c50                dma_table_DATA_END = .
                0x0000000000000010                dma_table_DATA_SIZE = ABSOLUTE ((dma_table_DATA_END - dma_table_DATA_START))
                0x0000000000646e68                __romPos = (__romPos + SIZEOF (.dma_table))
                0x0000000000646e68                __romPos = ALIGN (__romPos, 0x10)
                0x0000000000011a70                dma_table_ROM_END = __romPos
                0x0000000080029c50                dma_table_VRAM_END = .
                0x0000000000011a70                main_segment_ROM_START = __romPos
                0x0000000080029c50                main_segment_VRAM = ADDR (.main_segment)

.main_segment   0x0000000080029c50    0x899f0 load address 0x0000000000011a70
                0x0000000080029c50                main_segment_TEXT_START = .
 build/src/main_segment/main.o(.text)
 .text          0x0000000080029c50      0x280 build/src/main_segment/main.o
                0x0000000080029c50                mainproc
 build/src/main_segment/000280.o(.text)
 .text          0x0000000080029ed0      0x6e0 build/src/main_segment/000280.o
                0x0000000080029ed0                func_80029ED0
                0x000000008002a0cc                func_8002A0CC
                0x000000008002a0d4                func_8002A0D4
                0x000000008002a0dc                func_8002A0DC
                0x000000008002a184                func_8002A184
                0x000000008002a1dc                func_8002A1DC
                0x000000008002a26c                func_8002A26C
                0x000000008002a2b8                func_8002A2B8
                0x000000008002a3f4                func_8002A3F4
                0x000000008002a4d8                func_8002A4D8
                0x000000008002a51c                func_8002A51C
 build/src/main_segment/joy.o(.text)
 .text          0x000000008002a5b0      0x4d0 build/src/main_segment/joy.o
                0x000000008002a5b0                joyInit
                0x000000008002a700                joyProcCore
                0x000000008002a8f8                joyCursorFastSet
                0x000000008002a954                joyResponseCheck
 build/src/main_segment/sound.o(.text)
 .text          0x000000008002aa80      0xa10 build/src/main_segment/sound.o
                0x000000008002aa80                func_8002AA80
                0x000000008002aad8                func_8002AAD8
                0x000000008002aae8                func_8002AAE8
                0x000000008002ab28                func_8002AB28
                0x000000008002abc0                func_8002ABC0
                0x000000008002ac64                func_8002AC64
                0x000000008002ace0                dm_audio_set_stereo
                0x000000008002ad38                dm_audio_init_driver
                0x000000008002ae58                dm_audio_update
                0x000000008002af7c                dm_audio_stop
                0x000000008002afa4                dm_audio_is_stopped
                0x000000008002afc4                dm_seq_play
                0x000000008002afe4                _dm_seq_play
                0x000000008002b000                dm_seq_play_fade
                0x000000008002b028                _dm_seq_play_fade
                0x000000008002b078                dm_seq_play_in_game
                0x000000008002b098                _dm_seq_play_in_game
                0x000000008002b0e4                dm_seq_stop
                0x000000008002b100                _dm_seq_stop
                0x000000008002b13c                dm_seq_set_volume
                0x000000008002b15c                _dm_seq_set_volume
                0x000000008002b178                func_8002B178
                0x000000008002b194                func_8002B194
                0x000000008002b1b4                dm_snd_play
                0x000000008002b344                dm_snd_play_in_game
                0x000000008002b370                func_8002B370
                0x000000008002b394                dm_snd_play_strange_sound
 build/src/main_segment/graphic.o(.text)
 .text          0x000000008002b490      0x890 build/src/main_segment/graphic.o
                0x000000008002b490                gfxInit
                0x000000008002b4bc                gfxproc
                0x000000008002b5e4                gfxproc_onRetrace
                0x000000008002b710                func_8002B710
                0x000000008002b728                func_8002B728
                0x000000008002b754                func_8002B754
                0x000000008002b7a8                gfxCreateGraphicThread
                0x000000008002b800                func_8002B800
                0x000000008002b834                gfxTaskStart
                0x000000008002b9d8                F3RCPinitRtn
                0x000000008002bab8                F3ClearFZRtn
                0x000000008002bbd8                S2RDPinitRtn
                0x000000008002bc58                S2ClearCFBRtn
 build/src/main_segment/graphics/static.o(.text)
 .text          0x000000008002bd20     0x1450 build/src/main_segment/graphics/static.o
                0x000000008002bd20                func_8002BD20
                0x000000008002bd20                func_8002BD20.NON_MATCHING
                0x000000008002bee4                load_TexPal
                0x000000008002bf90                func_8002BF90
                0x000000008002c048                func_8002C048
                0x000000008002c1e8                func_8002C1E8
                0x000000008002c388                func_8002C388
                0x000000008002c4ec                func_8002C4EC
                0x000000008002c688                func_8002C688.NON_MATCHING
                0x000000008002c688                func_8002C688
                0x000000008002c7c0                draw_Tex.NON_MATCHING
                0x000000008002c7c0                draw_Tex
                0x000000008002c914                func_8002C914.NON_MATCHING
                0x000000008002c914                func_8002C914
                0x000000008002ca68                func_8002CA68
                0x000000008002ca68                func_8002CA68.NON_MATCHING
                0x000000008002cd08                func_8002CD08.NON_MATCHING
                0x000000008002cd08                func_8002CD08
                0x000000008002cf04                func_8002CF04.NON_MATCHING
                0x000000008002cf04                func_8002CF04
 build/src/main_segment/audio/003520.o(.text)
 .text          0x000000008002d170      0x9b0 build/src/main_segment/audio/003520.o
                0x000000008002d170                func_8002D170.NON_MATCHING
                0x000000008002d170                func_8002D170
                0x000000008002d3b0                func_8002D3B0
                0x000000008002d428                func_8002D428
                0x000000008002d4a4                func_8002D4A4
                0x000000008002d4f8                func_8002D4F8
                0x000000008002d51c                func_8002D51C
                0x000000008002d554                func_8002D554
                0x000000008002d58c                func_8002D58C
                0x000000008002d5c4                func_8002D5C4
                0x000000008002d5fc                func_8002D5FC
                0x000000008002d634                func_8002D634
                0x000000008002d66c                func_8002D66C
                0x000000008002d6a4                func_8002D6A4
                0x000000008002d710                func_8002D710
                0x000000008002d720                func_8002D720
                0x000000008002d768                func_8002D768
                0x000000008002d7c4                func_8002D7C4
                0x000000008002d7e0                func_8002D7E0
                0x000000008002d810                func_8002D810
                0x000000008002d840                func_8002D840
                0x000000008002d870                func_8002D870
                0x000000008002d8a0                func_8002D8A0
                0x000000008002d8d0                func_8002D8D0
                0x000000008002d984                func_8002D984
                0x000000008002d9e4                func_8002D9E4
                0x000000008002da48                func_8002DA48
 build/src/main_segment/main1x.o(.text)
 .text          0x000000008002db20      0xd10 build/src/main_segment/main1x.o
                0x000000008002db20                main11
                0x000000008002dc10                adjust_story_ai.NON_MATCHING
                0x000000008002dc10                adjust_story_ai
                0x000000008002e230                main12
 build/src/main_segment/vr_init.o(.text)
 .text          0x000000008002e830      0x2d0 build/src/main_segment/vr_init.o
                0x000000008002e830                sgenrand
                0x000000008002e8b0                genrand
 build/src/main_segment/aiset.o(.text)
 .text          0x000000008002eb00     0x7ab0 build/src/main_segment/aiset.o
                0x000000008002eb00                func_8002EB00
                0x000000008002eb74                aifMakeBlkWork
                0x000000008002ed14                aifMakeFlagSet
                0x000000008002ed2c                aifGameInit
                0x000000008002eddc                aifFirstInit
                0x000000008002eff0                aifMake
                0x000000008002f180                aifMake2
                0x000000008002f2ec                aiHiruSideLineEraser.NON_MATCHING
                0x000000008002f2ec                aiHiruSideLineEraser
                0x000000008002f924                func_8002F924.NON_MATCHING
                0x000000008002f924                func_8002F924
                0x000000008002f9cc                aifEraseLineCore
                0x000000008002f9cc                aifEraseLineCore.NON_MATCHING
                0x000000008002fdf0                aifRensaCheckCore
                0x000000008002fdf0                aifRensaCheckCore.NON_MATCHING
                0x0000000080030810                aifRensaCheck
                0x0000000080030810                aifRensaCheck.NON_MATCHING
                0x00000000800308fc                aifSearchLineCore
                0x00000000800308fc                aifSearchLineCore.NON_MATCHING
                0x00000000800310c8                aifMiniPointK3.NON_MATCHING
                0x00000000800310c8                aifMiniPointK3
                0x0000000080031218                aifMiniAloneCapNumber.NON_MATCHING
                0x0000000080031218                aifMiniAloneCapNumber
                0x000000008003135c                aifMiniAloneCapNumberW
                0x000000008003135c                aifMiniAloneCapNumberW.NON_MATCHING
                0x00000000800313f0                flash_virus.NON_MATCHING
                0x00000000800313f0                flash_virus
                0x000000008003145c                search_Vflash.NON_MATCHING
                0x000000008003145c                search_Vflash
                0x000000008003151c                func_8003151C
                0x000000008003151c                func_8003151C.NON_MATCHING
                0x000000008003157c                aifSearchLineMS.NON_MATCHING
                0x000000008003157c                aifSearchLineMS
                0x00000000800325ac                aiHiruAllPriSet.NON_MATCHING
                0x00000000800325ac                aiHiruAllPriSet
                0x0000000080033474                aiSetCharacter
                0x0000000080033474                aiSetCharacter.NON_MATCHING
                0x0000000080034200                aifFieldCopy
                0x0000000080034310                func_80034310
                0x0000000080034380                aifPlaceSearch.NON_MATCHING
                0x0000000080034380                aifPlaceSearch
                0x0000000080034798                aifMoveCheck
                0x0000000080034798                aifMoveCheck.NON_MATCHING
                0x0000000080034ab0                aifTRecur.NON_MATCHING
                0x0000000080034ab0                aifTRecur
                0x0000000080034d54                aifTRecurUP
                0x0000000080034d54                aifTRecurUP.NON_MATCHING
                0x0000000080034e80                aifYRecur
                0x0000000080034e80                aifYRecur.NON_MATCHING
                0x000000008003510c                aifYRecurUP.NON_MATCHING
                0x000000008003510c                aifYRecurUP
                0x0000000080035234                aifReMoveCheck.NON_MATCHING
                0x0000000080035234                aifReMoveCheck
                0x0000000080035494                aifKeyMake.NON_MATCHING
                0x0000000080035494                aifKeyMake
                0x0000000080035704                aifKeyOut
                0x0000000080035704                aifKeyOut.NON_MATCHING
                0x0000000080035cf4                search_flash_3
                0x0000000080035cf4                search_flash_3.NON_MATCHING
                0x00000000800362a0                flash_special
                0x00000000800362a0                flash_special.NON_MATCHING
                0x0000000080036560                aiCOM_MissTake
 build/src/main_segment/record.o(.text)
 .text          0x00000000800365b0     0x2940 build/src/main_segment/record.o
                0x00000000800365b0                func_800365B0
                0x00000000800365c8                func_800365C8
                0x000000008003661c                BitField_PutBit
                0x00000000800366a4                BitField_GetBit
                0x0000000080036718                dm_init_config_save
                0x000000008003678c                func_8003678C
                0x00000000800367e0                func_800367E0
                0x00000000800367e0                func_800367E0.NON_MATCHING
                0x00000000800367f0                func_800367F0
                0x00000000800367f0                func_800367F0.NON_MATCHING
                0x00000000800367fc                func_800367FC
                0x00000000800367fc                func_800367FC.NON_MATCHING
                0x0000000080036808                func_80036808.NON_MATCHING
                0x0000000080036808                func_80036808
                0x0000000080036818                dm_init_save_mem
                0x00000000800369bc                dm_init_system_mem
                0x0000000080036a64                dm_story_sort_set
                0x0000000080036a64                dm_story_sort_set.NON_MATCHING
                0x0000000080036b6c                dm_level_sort_set.NON_MATCHING
                0x0000000080036b6c                dm_level_sort_set
                0x0000000080036bc8                dm_taiQ_sort_set
                0x0000000080036bc8                dm_taiQ_sort_set.NON_MATCHING
                0x0000000080036c58                dm_timeAt_sort_set.NON_MATCHING
                0x0000000080036c58                dm_timeAt_sort_set
                0x0000000080036cfc                dm_vscom_set.NON_MATCHING
                0x0000000080036cfc                dm_vscom_set
                0x0000000080036d58                dm_vc_fl_set.NON_MATCHING
                0x0000000080036d58                dm_vc_fl_set
                0x0000000080036db4                dm_vsman_set.NON_MATCHING
                0x0000000080036db4                dm_vsman_set
                0x0000000080036e10                dm_vm_fl_set
                0x0000000080036e10                dm_vm_fl_set.NON_MATCHING
                0x0000000080036e6c                dm_vm_ta_set
                0x0000000080036e6c                dm_vm_ta_set.NON_MATCHING
                0x0000000080036ec8                func_80036EC8.NON_MATCHING
                0x0000000080036ec8                func_80036EC8
                0x0000000080036f1c                func_80036F1C.NON_MATCHING
                0x0000000080036f1c                func_80036F1C
                0x0000000080036f70                func_80036F70.NON_MATCHING
                0x0000000080036f70                func_80036F70
                0x0000000080037068                func_80037068.NON_MATCHING
                0x0000000080037068                func_80037068
                0x0000000080037248                dm_data_mode_story_sort
                0x0000000080037248                dm_data_mode_story_sort.NON_MATCHING
                0x0000000080037294                dm_data_mode_level_sort
                0x0000000080037294                dm_data_mode_level_sort.NON_MATCHING
                0x00000000800372e0                dm_data_mode_taiQ_sort
                0x00000000800372e0                dm_data_mode_taiQ_sort.NON_MATCHING
                0x000000008003732c                dm_data_mode_timeAt_sort
                0x000000008003732c                dm_data_mode_timeAt_sort.NON_MATCHING
                0x0000000080037378                func_80037378
                0x0000000080037378                func_80037378.NON_MATCHING
                0x00000000800373c8                func_800373C8
                0x00000000800373c8                func_800373C8.NON_MATCHING
                0x0000000080037418                func_80037418
                0x0000000080037418                func_80037418.NON_MATCHING
                0x0000000080037468                func_80037468
                0x0000000080037468                func_80037468.NON_MATCHING
                0x00000000800374b8                func_800374B8
                0x00000000800374b8                func_800374B8.NON_MATCHING
                0x0000000080037710                dm_data_vscom_sort
                0x0000000080037710                dm_data_vscom_sort.NON_MATCHING
                0x000000008003772c                dm_data_vc_fl_sort
                0x000000008003772c                dm_data_vc_fl_sort.NON_MATCHING
                0x0000000080037748                dm_data_vsman_sort
                0x0000000080037748                dm_data_vsman_sort.NON_MATCHING
                0x0000000080037764                dm_data_vm_fl_sort
                0x0000000080037764                dm_data_vm_fl_sort.NON_MATCHING
                0x0000000080037780                dm_data_vm_ta_sort.NON_MATCHING
                0x0000000080037780                dm_data_vm_ta_sort
                0x000000008003779c                func_8003779C
                0x000000008003779c                func_8003779C.NON_MATCHING
                0x0000000080037808                func_80037808
                0x00000000800378b0                func_800378B0.NON_MATCHING
                0x00000000800378b0                func_800378B0
                0x0000000080037950                func_80037950
                0x00000000800379d4                func_800379D4
                0x0000000080037a5c                RecStory_Compress
                0x0000000080037b74                RecStory_Extract
                0x0000000080037c7c                func_80037C7C.NON_MATCHING
                0x0000000080037c7c                func_80037C7C
                0x0000000080037d40                func_80037D40.NON_MATCHING
                0x0000000080037d40                func_80037D40
                0x0000000080037df0                func_80037DF0
                0x0000000080037df0                func_80037DF0.NON_MATCHING
                0x0000000080037eb4                func_80037EB4
                0x0000000080037eb4                func_80037EB4.NON_MATCHING
                0x0000000080037f64                func_80037F64.NON_MATCHING
                0x0000000080037f64                func_80037F64
                0x0000000080038038                func_80038038.NON_MATCHING
                0x0000000080038038                func_80038038
                0x00000000800380f0                func_800380F0.NON_MATCHING
                0x00000000800380f0                func_800380F0
                0x0000000080038168                func_80038168
                0x0000000080038168                func_80038168.NON_MATCHING
                0x00000000800381dc                func_800381DC
                0x00000000800381dc                func_800381DC.NON_MATCHING
                0x0000000080038254                func_80038254.NON_MATCHING
                0x0000000080038254                func_80038254
                0x00000000800382c8                func_800382C8
                0x00000000800382c8                func_800382C8.NON_MATCHING
                0x0000000080038340                func_80038340
                0x0000000080038340                func_80038340.NON_MATCHING
                0x00000000800383b4                func_800383B4
                0x00000000800383b4                func_800383B4.NON_MATCHING
                0x000000008003842c                func_8003842C
                0x000000008003842c                func_8003842C.NON_MATCHING
                0x00000000800384a0                func_800384A0
                0x00000000800384a0                func_800384A0.NON_MATCHING
                0x0000000080038518                func_80038518
                0x0000000080038518                func_80038518.NON_MATCHING
                0x000000008003858c                RecAll_Compress
                0x00000000800386ac                RecAll_Extract
                0x0000000080038824                EepRom_Init
                0x0000000080038878                EepRom_InitFirst
                0x00000000800388e0                EepRom_InitVars
                0x0000000080038938                func_80038938
                0x00000000800389a8                EepRom_WriteDif
                0x0000000080038a94                EepRom_ReadAll
                0x0000000080038b18                EepRom_WriteAll
                0x0000000080038bd0                EepRom_DumpErrMes
                0x0000000080038bd8                EepRom_DumpDataSize
                0x0000000080038be0                RecWritingMsg_init
                0x0000000080038c38                RecWritingMsg_setStr
                0x0000000080038c7c                RecWritingMsg_calc
                0x0000000080038cbc                RecWritingMsg_draw
                0x0000000080038e1c                RecWritingMsg_start
                0x0000000080038e24                RecWritingMsg_end
                0x0000000080038e30                RecWritingMsg_isEnd
                0x0000000080038e44                RecWritingMsg_setPos
                0x0000000080038e50                setSleepTimer.NON_MATCHING
                0x0000000080038e50                setSleepTimer
 build/src/main_segment/020D10.o(.text)
 .text          0x0000000080038ef0     0x1ab0 build/src/main_segment/020D10.o
                0x0000000080038ef0                func_80038EF0.NON_MATCHING
                0x0000000080038ef0                func_80038EF0
                0x000000008003901c                func_8003901C.NON_MATCHING
                0x000000008003901c                func_8003901C
                0x00000000800393dc                func_800393DC.NON_MATCHING
                0x00000000800393dc                func_800393DC
                0x00000000800394a0                func_800394A0.NON_MATCHING
                0x00000000800394a0                func_800394A0
                0x000000008003974c                func_8003974C.NON_MATCHING
                0x000000008003974c                func_8003974C
                0x0000000080039be0                func_80039BE0
                0x0000000080039be0                func_80039BE0.NON_MATCHING
                0x0000000080039d08                func_80039D08.NON_MATCHING
                0x0000000080039d08                func_80039D08
                0x0000000080039e14                func_80039E14.NON_MATCHING
                0x0000000080039e14                func_80039E14
                0x0000000080039f74                func_80039F74.NON_MATCHING
                0x0000000080039f74                func_80039F74
                0x000000008003a1b4                func_8003A1B4.NON_MATCHING
                0x000000008003a1b4                func_8003A1B4
                0x000000008003a26c                func_8003A26C.NON_MATCHING
                0x000000008003a26c                func_8003A26C
                0x000000008003a618                func_8003A618
                0x000000008003a618                func_8003A618.NON_MATCHING
                0x000000008003a7e4                func_8003A7E4.NON_MATCHING
                0x000000008003a7e4                func_8003A7E4
                0x000000008003a89c                func_8003A89C
                0x000000008003a8f4                func_8003A8F4
                0x000000008003a950                func_8003A950
 build/src/main_segment/game_etc.o(.text)
 .text          0x000000008003a9a0     0x2400 build/src/main_segment/game_etc.o
                0x000000008003a9a0                initEtcWork.NON_MATCHING
                0x000000008003a9a0                initEtcWork
                0x000000008003acb4                init_pause_disp
                0x000000008003ad88                disp_logo_setup
                0x000000008003ae08                disp_count_logo
                0x000000008003aee4                disp_clear_logo
                0x000000008003b054                disp_allclear_logo
                0x000000008003b1c4                disp_win_logo
                0x000000008003b30c                disp_lose_logo
                0x000000008003b454                disp_draw_logo
                0x000000008003b59c                disp_pause_logo.NON_MATCHING
                0x000000008003b59c                disp_pause_logo
                0x000000008003ba98                etc_continue_logo
                0x000000008003ba98                etc_continue_logo.NON_MATCHING
                0x000000008003bef8                disp_continue_logo
                0x000000008003bfd8                disp_continue_logo_score
                0x000000008003c094                disp_gameover_logo
                0x000000008003c1a4                disp_timeover_logo
                0x000000008003c2b4                disp_retire_logo
                0x000000008003c3c0                disp_timestop_logo
                0x000000008003c600                add_attack_effect
                0x000000008003c6f4                disp_attack_effect.NON_MATCHING
                0x000000008003c6f4                disp_attack_effect
 build/src/main_segment/screen_print/printer.o(.text)
 .text          0x000000008003cda0       0x80 build/src/main_segment/screen_print/printer.o
                0x000000008003cda0                Printer_Open
                0x000000008003cdd4                Printer_Close
                0x000000008003cdf8                Printer_PutChars
 build/src/main_segment/screen_print/printf_impl.o(.text)
 .text          0x000000008003ce20     0x13c0 build/src/main_segment/screen_print/printf_impl.o
                0x000000008003ce20                cvt_radix
                0x000000008003ce5c                cvtl_radix
                0x000000008003cf2c                round_asc
                0x000000008003cfa8                eprt_sub
                0x000000008003d110                ecvt
                0x000000008003d41c                fcvt
                0x000000008003d4c8                gcvt
                0x000000008003d6d0                _kmcprt.NON_MATCHING
                0x000000008003d6d0                _kmcprt
 build/src/main_segment/screen_print/debug_print.o(.text)
 .text          0x000000008003e1e0      0x550 build/src/main_segment/screen_print/debug_print.o
                0x000000008003e1e0                DebugPrint_8003E1E0
                0x000000008003e208                DebugPrint_SetColor
                0x000000008003e278                DebugPrint_8003E278
                0x000000008003e3f0                DebugPrint_DrawCharacter
                0x000000008003e430                DebugPrint_CallbackOpen
                0x000000008003e4ac                DebugPrint_CallbackClose
                0x000000008003e4b4                DebugPrint_CallbackPutChars
                0x000000008003e69c                DebugPrint_Open
                0x000000008003e6d8                DebugPrint_Close
                0x000000008003e6f8                DebugPrint_Printf
 build/src/main_segment/debug_menu.o(.text)
 .text          0x000000008003e730     0x22d0 build/src/main_segment/debug_menu.o
                0x000000008003e730                DebugMenu_8003E730
                0x000000008003e8c8                DebugMenu_8003E8C8
                0x000000008003eb20                DebugMenu_8003EB20
                0x000000008003ecdc                DebugMenu_8003ECDC
                0x000000008003eea4                DebugMenu_8003EEA4
                0x000000008003f050                DebugMenu_8003F050
                0x000000008003f360                DebugMenu_8003F360
                0x000000008003f474                DebugMenu_8003F474
                0x000000008003f568                DebugMenu_8003F568
                0x000000008003f7dc                DebugMenu_8003F7DC
                0x000000008003fb00                DebugMenu_8003FB00
                0x000000008003fd0c                DebugMenu_8003FD0C
                0x000000008003fd88                DebugMenu_8003FD88
                0x000000008003fee4                DebugMenu_8003FEE4
                0x000000008004015c                DebugMenu_8004015C
                0x0000000080040238                DebugMenu_80040238
                0x0000000080040578                DebugMenu_80040578
                0x0000000080040624                DebugMenu_80040624
                0x00000000800409a0                DebugMenu_800409A0
                0x00000000800409dc                DebugMenu_800409DC
 build/src/main_segment/028820.o(.text)
 .text          0x0000000080040a00      0x1b0 build/src/main_segment/028820.o
                0x0000000080040a00                func_80040A00
                0x0000000080040a58                func_80040A58
                0x0000000080040a64                func_80040A64
                0x0000000080040ae4                func_80040AE4
                0x0000000080040b10                func_80040B10
                0x0000000080040ba4                func_80040BA4
 build/src/main_segment/tex_func.o(.text)
 .text          0x0000000080040bb0     0x5220 build/src/main_segment/tex_func.o
                0x0000000080040bb0                gfxSetScissor
                0x0000000080040d34                func_80040D34
                0x0000000080040d34                func_80040D34.NON_MATCHING
                0x0000000080040e3c                FillRectRGBA
                0x0000000080040f34                func_80040F34.NON_MATCHING
                0x0000000080040f34                func_80040F34
                0x000000008004113c                func_8004113C
                0x000000008004113c                func_8004113C.NON_MATCHING
                0x0000000080041334                func_80041334.NON_MATCHING
                0x0000000080041334                func_80041334
                0x0000000080041480                func_80041480.NON_MATCHING
                0x0000000080041480                func_80041480
                0x0000000080041668                func_80041668.NON_MATCHING
                0x0000000080041668                func_80041668
                0x00000000800417b4                func_800417B4.NON_MATCHING
                0x00000000800417b4                func_800417B4
                0x000000008004199c                CopyTexBlock16
                0x000000008004199c                CopyTexBlock16.NON_MATCHING
                0x0000000080041a54                StretchTexBlock
                0x0000000080041de0                StretchTexBlock_ScisRect
                0x0000000080041f94                StretchAlphaTexBlock_LoadColorTex
                0x000000008004216c                StretchAlphaTexBlock_LoadAlphaTex
                0x0000000080042364                StretchAlphaTexBlock
                0x0000000080042468                StretchTexBlock4_LoadTex
                0x0000000080042650                StretchTexBlock4
                0x00000000800427e0                func_800427E0
                0x00000000800429b8                StretchTexBlock8
                0x0000000080042b48                func_80042B48
                0x0000000080042d20                func_80042D20
                0x0000000080042e04                StretchTexBlock4i_LoadTex
                0x0000000080042fec                StretchTexBlock4i
                0x00000000800430d0                func_800430D0
                0x00000000800432a8                func_800432A8
                0x000000008004338c                StretchTexTile
                0x000000008004371c                StretchTexTile_ScisRect
                0x00000000800438d0                func_800438D0.NON_MATCHING
                0x00000000800438d0                func_800438D0
                0x0000000080043a14                StretchAlphaTexTile_LoadColorTex.NON_MATCHING
                0x0000000080043a14                StretchAlphaTexTile_LoadColorTex
                0x0000000080043bec                StretchAlphaTexTile_LoadAlphaTex
                0x0000000080043bec                StretchAlphaTexTile_LoadAlphaTex.NON_MATCHING
                0x0000000080043ddc                StretchAlphaTexTile
                0x0000000080043f18                func_80043F18.NON_MATCHING
                0x0000000080043f18                func_80043F18
                0x0000000080044058                func_80044058
                0x0000000080044058                func_80044058.NON_MATCHING
                0x0000000080044238                StretchTexTile4.NON_MATCHING
                0x0000000080044238                StretchTexTile4
                0x00000000800443f4                StretchTexTile8_LoadTex
                0x00000000800443f4                StretchTexTile8_LoadTex.NON_MATCHING
                0x00000000800445c4                StretchTexTile8
                0x0000000080044780                RectTexTile8.NON_MATCHING
                0x0000000080044780                RectTexTile8
                0x0000000080044940                func_80044940
                0x0000000080044940                func_80044940.NON_MATCHING
                0x0000000080044b18                StretchTexTile16
                0x0000000080044b18                StretchTexTile16.NON_MATCHING
                0x0000000080044c28                func_80044C28.NON_MATCHING
                0x0000000080044c28                func_80044C28
                0x0000000080044e08                func_80044E08
                0x0000000080044e08                func_80044E08.NON_MATCHING
                0x0000000080044f18                RectTexTile4i
                0x0000000080044f18                RectTexTile4i.NON_MATCHING
                0x000000008004502c                func_8004502C
                0x000000008004502c                func_8004502C.NON_MATCHING
                0x0000000080045098                tiLoadTexData
                0x0000000080045098                tiLoadTexData.NON_MATCHING
                0x0000000080045110                func_80045110.NON_MATCHING
                0x0000000080045110                func_80045110
                0x00000000800451c4                func_800451C4
                0x00000000800451c4                func_800451C4.NON_MATCHING
                0x00000000800452b0                tiStretchTexBlock.NON_MATCHING
                0x00000000800452b0                tiStretchTexBlock
                0x00000000800453d8                tiStretchTexTile.NON_MATCHING
                0x00000000800453d8                tiStretchTexTile
                0x000000008004554c                tiStretchTexItem
                0x000000008004554c                tiStretchTexItem.NON_MATCHING
                0x0000000080045748                tiStretchAlphaTexItem
                0x0000000080045748                tiStretchAlphaTexItem.NON_MATCHING
                0x0000000080045914                func_80045914.NON_MATCHING
                0x0000000080045914                func_80045914
                0x0000000080045aac                drawCursorPattern.NON_MATCHING
                0x0000000080045aac                drawCursorPattern
 build/src/main_segment/main_menu.o(.text)
 .text          0x0000000080045dd0    0x15a20 build/src/main_segment/main_menu.o
                0x0000000080045dd0                func_80045DD0
                0x0000000080045e18                func_80045E18
                0x0000000080045e48                func_80045E48
                0x0000000080045e94                func_80045E94
                0x0000000080045e94                func_80045E94.NON_MATCHING
                0x0000000080045ef4                transFunc_curve
                0x0000000080045f68                transFunc_finger
                0x0000000080046008                func_80046008
                0x0000000080046008                func_80046008.NON_MATCHING
                0x0000000080046068                scaleFunc_curve
                0x00000000800460dc                func_800460DC
                0x00000000800460dc                func_800460DC.NON_MATCHING
                0x000000008004613c                colorFunc_curve
                0x00000000800461b0                colorFunc_cursor
                0x0000000080046250                menuItem_init
                0x0000000080046368                menuItem_updateTransScale
                0x0000000080046408                menuItem_updateColor
                0x00000000800464bc                func_800464BC
                0x00000000800464f8                func_800464F8
                0x000000008004655c                func_8004655C
                0x00000000800465b8                func_800465B8
                0x0000000080046614                func_80046614
                0x0000000080046670                func_80046670
                0x000000008004667c                func_8004667C
                0x0000000080046688                func_80046688
                0x0000000080046694                func_80046694
                0x00000000800466a0                func_800466A0
                0x00000000800466b8                func_800466B8
                0x00000000800466d0                func_800466D0
                0x0000000080046734                func_80046734
                0x00000000800467e0                func_800467E0
                0x0000000080046844                func_80046844
                0x0000000080046a3c                menuItem_outOfScreen
                0x0000000080046b18                menuItem_drawTex
                0x0000000080046c74                func_80046C74.NON_MATCHING
                0x0000000080046c74                func_80046C74
                0x0000000080046d3c                menuItem_drawAlphaTex
                0x0000000080046d3c                menuItem_drawAlphaTex.NON_MATCHING
                0x0000000080046f58                func_80046F58
                0x0000000080047074                func_80047074.NON_MATCHING
                0x0000000080047074                func_80047074
                0x000000008004714c                func_8004714C
                0x00000000800472d0                func_800472D0
                0x00000000800472d0                func_800472D0.NON_MATCHING
                0x0000000080047420                func_80047420.NON_MATCHING
                0x0000000080047420                func_80047420
                0x00000000800474ec                func_800474EC.NON_MATCHING
                0x00000000800474ec                func_800474EC
                0x0000000080047584                func_80047584
                0x0000000080047584                func_80047584.NON_MATCHING
                0x00000000800475a8                menuTitle_draw
                0x00000000800475a8                menuTitle_draw.NON_MATCHING
                0x0000000080047720                func_80047720
                0x00000000800477bc                func_800477BC
                0x0000000080047828                menuCursor_init2
                0x00000000800479a8                func_800479A8
                0x00000000800479ec                menuCursor_update
                0x0000000080047aa4                menuCursor_draw1.NON_MATCHING
                0x0000000080047aa4                menuCursor_draw1
                0x0000000080047b6c                .L80047B6C
                0x0000000080047b78                .L80047B78
                0x0000000080047b84                .L80047B84
                0x0000000080047b90                .L80047B90
                0x0000000080047ba0                .L80047BA0
                0x0000000080047ba8                .L80047BA8
                0x0000000080047bb0                .L80047BB0
                0x0000000080047bb8                .L80047BB8
                0x0000000080047bc0                .L80047BC0
                0x0000000080048444                menuCursor_draw2
                0x0000000080048444                menuCursor_draw2.NON_MATCHING
                0x0000000080048634                func_80048634
                0x0000000080048680                func_80048680
                0x00000000800486c8                func_800486C8
                0x0000000080048708                menuBottle_draw.NON_MATCHING
                0x0000000080048708                menuBottle_draw
                0x0000000080048b8c                func_80048B8C
                0x0000000080048c48                func_80048C48
                0x0000000080048cc8                func_80048CC8
                0x0000000080048d34                menuLvGauge_draw1
                0x0000000080048d34                menuLvGauge_draw1.NON_MATCHING
                0x0000000080048fa0                func_80048FA0
                0x0000000080048fa0                func_80048FA0.NON_MATCHING
                0x0000000080049034                func_80049034.NON_MATCHING
                0x0000000080049034                func_80049034
                0x0000000080049080                func_80049080
                0x00000000800490b8                func_800490B8
                0x00000000800490b8                func_800490B8.NON_MATCHING
                0x00000000800490d4                menuYN_init
                0x0000000080049224                func_80049224
                0x0000000080049224                func_80049224.NON_MATCHING
                0x00000000800492d8                func_800492D8
                0x0000000080049348                menuYN_draw
                0x0000000080049540                func_80049540
                0x0000000080049578                func_80049578.NON_MATCHING
                0x0000000080049578                func_80049578
                0x0000000080049594                menuMes_init
                0x000000008004970c                func_8004970C
                0x0000000080049754                func_80049754
                0x00000000800497d0                func_800497D0
                0x0000000080049894                func_80049894
                0x00000000800498c4                func_800498C4
                0x00000000800498e0                menuSpeedAsk_draw.NON_MATCHING
                0x00000000800498e0                menuSpeedAsk_draw
                0x0000000080049a5c                menuSpeedItem_init
                0x0000000080049c54                func_80049C54
                0x0000000080049cd4                menuSpeedItem_update
                0x0000000080049ea4                menuSpeedItem_draw1
                0x000000008004a160                func_8004A160
                0x000000008004a160                func_8004A160.NON_MATCHING
                0x000000008004a1f4                func_8004A1F4
                0x000000008004a1f4                func_8004A1F4.NON_MATCHING
                0x000000008004a240                menuMusicItem_init
                0x000000008004a3f4                menuMusicItem_input
                0x000000008004a4cc                menuMusicItem_update
                0x000000008004a680                menuMusicItem_draw1
                0x000000008004a780                menuMusicItem_draw2
                0x000000008004a814                func_8004A814
                0x000000008004a860                func_8004A860
                0x000000008004a8d8                menuNumber_update
                0x000000008004a94c                menuNumber_draw
                0x000000008004a94c                menuNumber_draw.NON_MATCHING
                0x000000008004ac98                func_8004AC98
                0x000000008004acf4                func_8004ACF4
                0x000000008004ad10                func_8004AD10.NON_MATCHING
                0x000000008004ad10                func_8004AD10
                0x000000008004ad3c                func_8004AD3C
                0x000000008004ad84                func_8004AD84
                0x000000008004adc4                menuComLvPanel_draw
                0x000000008004adc4                menuComLvPanel_draw.NON_MATCHING
                0x000000008004b114                menuCont_setFade
                0x000000008004b2c8                func_8004B2C8
                0x000000008004b318                menuCont_init
                0x000000008004b43c                func_8004B43C.NON_MATCHING
                0x000000008004b43c                func_8004B43C
                0x000000008004b488                func_8004B488
                0x000000008004b500                menuCont_draw.NON_MATCHING
                0x000000008004b500                menuCont_draw
                0x000000008004b774                func_8004B774
                0x000000008004b7b8                menuMainPanel_init
                0x000000008004b8cc                func_8004B8CC
                0x000000008004b8cc                func_8004B8CC.NON_MATCHING
                0x000000008004b98c                func_8004B98C
                0x000000008004b9f0                menuMainPanel_draw
                0x000000008004bb14                func_8004BB14
                0x000000008004bb58                menuNameSelPanel_clear
                0x000000008004bc2c                menuNameSelPanel_init
                0x000000008004beb4                func_8004BEB4.NON_MATCHING
                0x000000008004beb4                func_8004BEB4
                0x000000008004bf10                func_8004BF10
                0x000000008004bf10                func_8004BF10.NON_MATCHING
                0x000000008004c1f0                func_8004C1F0.NON_MATCHING
                0x000000008004c1f0                func_8004C1F0
                0x000000008004c2e8                menuNameSelPanel_update
                0x000000008004c4bc                menuNameSelPanel_draw
                0x000000008004c4bc                menuNameSelPanel_draw.NON_MATCHING
                0x000000008004c820                func_8004C820
                0x000000008004c864                menuNameOpPanel_init
                0x000000008004c974                func_8004C974
                0x000000008004c974                func_8004C974.NON_MATCHING
                0x000000008004ca30                func_8004CA30
                0x000000008004caa0                menuNameOpPanel_draw
                0x000000008004ccd0                func_8004CCD0
                0x000000008004cd14                menuSndSelPanel_init
                0x000000008004ce48                func_8004CE48.NON_MATCHING
                0x000000008004ce48                func_8004CE48
                0x000000008004cfb8                func_8004CFB8
                0x000000008004d070                menuSndSelPanel_draw
                0x000000008004d258                func_8004D258
                0x000000008004d2a0                menuPlay2Panel_init
                0x000000008004d2a0                menuPlay2Panel_init.NON_MATCHING
                0x000000008004d6dc                menuPlay2Panel_copyConfig
                0x000000008004d734                menuPlay2Panel_copyCursor
                0x000000008004d828                func_8004D828.NON_MATCHING
                0x000000008004d828                func_8004D828
                0x000000008004da40                menuPlay2Panel_update
                0x000000008004dd14                menuPlay2Panel_draw
                0x000000008004e270                func_8004E270
                0x000000008004e2b4                func_8004E2B4
                0x000000008004e2b4                func_8004E2B4.NON_MATCHING
                0x000000008004e2f4                menuPlay2PanelSub_init
                0x000000008004e4f4                func_8004E4F4
                0x000000008004e4f4                func_8004E4F4.NON_MATCHING
                0x000000008004e764                menuPlay2PanelSub_update
                0x000000008004e8e0                menuPlay2PanelSub_draw
                0x000000008004eb94                menuMain_setMsgStr
                0x000000008004ed70                menuMain_initPanel
                0x000000008004eec8                menuMain_init
                0x000000008004f2d8                func_8004F2D8
                0x000000008004f33c                func_8004F33C.NON_MATCHING
                0x000000008004f33c                func_8004F33C
                0x000000008004f358                menuMain_input.NON_MATCHING
                0x000000008004f358                menuMain_input
                0x00000000800508bc                menuMain_update
                0x0000000080050b5c                menuMain_drawKaSaMaRu.NON_MATCHING
                0x0000000080050b5c                menuMain_drawKaSaMaRu
                0x00000000800512ac                menuMain_draw
                0x00000000800513f0                func_800513F0
                0x0000000080051480                func_80051480
                0x00000000800514c4                func_800514C4
                0x0000000080051540                menuStory_init
                0x0000000080051974                func_80051974
                0x00000000800519cc                func_800519CC
                0x00000000800519cc                func_800519CC.NON_MATCHING
                0x00000000800519ec                func_800519EC.NON_MATCHING
                0x00000000800519ec                func_800519EC
                0x0000000080051a28                menuStory_input.NON_MATCHING
                0x0000000080051a28                menuStory_input
                0x0000000080051e94                menuStory_update
                0x0000000080051e94                menuStory_update.NON_MATCHING
                0x00000000800522cc                menuStory_draw.NON_MATCHING
                0x00000000800522cc                menuStory_draw
                0x00000000800529fc                func_800529FC
                0x0000000080052a40                menuLvSel_init.NON_MATCHING
                0x0000000080052a40                menuLvSel_init
                0x0000000080052df0                func_80052DF0
                0x0000000080052e48                menuLvSel_input
                0x0000000080053194                menuLvSel_update
                0x000000008005348c                menuLvSel_draw
                0x000000008005380c                func_8005380C
                0x0000000080053850                menuChSel_init.NON_MATCHING
                0x0000000080053850                menuChSel_init
                0x0000000080053c2c                menuChSel_checkSelected
                0x0000000080053c84                func_80053C84
                0x0000000080053cec                menuChSel_input1
                0x0000000080053fbc                menuChSel_inputMan
                0x00000000800540b8                menuChSel_inputCom
                0x00000000800541cc                menuChSel_input
                0x00000000800544c4                menuChSel_update.NON_MATCHING
                0x00000000800544c4                menuChSel_update
                0x0000000080054734                menuChSel_draw
                0x0000000080054a94                func_80054A94
                0x0000000080054b60                menuPlay2_init
                0x00000000800550f4                func_800550F4
                0x0000000080055154                func_80055154.NON_MATCHING
                0x0000000080055154                func_80055154
                0x00000000800551bc                func_800551BC
                0x0000000080055254                func_80055254
                0x00000000800552ec                func_800552EC
                0x00000000800552ec                func_800552EC.NON_MATCHING
                0x0000000080055598                func_80055598.NON_MATCHING
                0x0000000080055598                func_80055598
                0x00000000800556e0                menuPlay2_input
                0x00000000800556e0                menuPlay2_input.NON_MATCHING
                0x0000000080055c08                menuPlay2_update
                0x0000000080055ce0                menuPlay2_draw
                0x0000000080055dfc                func_80055DFC
                0x0000000080055e40                menuNmEnt_init
                0x00000000800560d4                func_800560D4.NON_MATCHING
                0x00000000800560d4                func_800560D4
                0x00000000800560f0                menuNmEnt_input.NON_MATCHING
                0x00000000800560f0                menuNmEnt_input
                0x0000000080056824                menuNmEnt_update.NON_MATCHING
                0x0000000080056824                menuNmEnt_update
                0x0000000080056990                menuNmEnt_draw.NON_MATCHING
                0x0000000080056990                menuNmEnt_draw
                0x0000000080056c84                func_80056C84.NON_MATCHING
                0x0000000080056c84                func_80056C84
                0x0000000080056cac                func_80056CAC
                0x0000000080056cc8                menuRankBase_draw.NON_MATCHING
                0x0000000080056cc8                menuRankBase_draw
                0x0000000080056df0                func_80056DF0
                0x0000000080056df0                func_80056DF0.NON_MATCHING
                0x0000000080056e1c                func_80056E1C
                0x0000000080056e38                menuRankNum_draw.NON_MATCHING
                0x0000000080056e38                menuRankNum_draw
                0x0000000080057014                func_80057014.NON_MATCHING
                0x0000000080057014                func_80057014
                0x000000008005712c                menuRankFig_update.NON_MATCHING
                0x000000008005712c                menuRankFig_update
                0x00000000800574b4                menuRankFig_draw
                0x000000008005768c                func_8005768C
                0x000000008005768c                func_8005768C.NON_MATCHING
                0x0000000080057724                func_80057724
                0x0000000080057740                menuRankName_draw.NON_MATCHING
                0x0000000080057740                menuRankName_draw
                0x0000000080057898                func_80057898.NON_MATCHING
                0x0000000080057898                func_80057898
                0x00000000800578c8                func_800578C8
                0x00000000800578e4                menuRankLabel_draw
                0x00000000800578e4                menuRankLabel_draw.NON_MATCHING
                0x0000000080057afc                func_80057AFC.NON_MATCHING
                0x0000000080057afc                func_80057AFC
                0x0000000080057be8                func_80057BE8
                0x0000000080057c50                menuRankHeader_draw
                0x0000000080057c50                menuRankHeader_draw.NON_MATCHING
                0x0000000080057d24                func_80057D24.NON_MATCHING
                0x0000000080057d24                func_80057D24
                0x0000000080057e68                func_80057E68.NON_MATCHING
                0x0000000080057e68                func_80057E68
                0x0000000080057f6c                func_80057F6C
                0x0000000080057f6c                func_80057F6C.NON_MATCHING
                0x000000008005806c                func_8005806C.NON_MATCHING
                0x000000008005806c                func_8005806C
                0x00000000800581c8                func_800581C8
                0x00000000800581c8                func_800581C8.NON_MATCHING
                0x00000000800582fc                menuRankPanel_update
                0x00000000800583c4                menuRankPanel_draw
                0x00000000800585bc                func_800585BC
                0x00000000800585bc                func_800585BC.NON_MATCHING
                0x00000000800586a4                func_800586A4
                0x00000000800586a4                func_800586A4.NON_MATCHING
                0x0000000080058838                menuRank_setFrame.NON_MATCHING
                0x0000000080058838                menuRank_setFrame
                0x0000000080058a24                func_80058A24.NON_MATCHING
                0x0000000080058a24                func_80058A24
                0x0000000080058a9c                menuRank_setPanel
                0x0000000080058a9c                menuRank_setPanel.NON_MATCHING
                0x000000008005911c                menuRank_init
                0x00000000800592d4                menuRank_input
                0x000000008005954c                menuRank_update
                0x00000000800596b4                menuRank_draw
                0x00000000800599e0                func_800599E0
                0x00000000800599e0                func_800599E0.NON_MATCHING
                0x0000000080059a58                func_80059A58
                0x0000000080059a58                func_80059A58.NON_MATCHING
                0x0000000080059aa4                func_80059AA4
                0x0000000080059aa4                func_80059AA4.NON_MATCHING
                0x0000000080059af0                func_80059AF0
                0x0000000080059af0                func_80059AF0.NON_MATCHING
                0x0000000080059b5c                func_80059B5C
                0x0000000080059b5c                func_80059B5C.NON_MATCHING
                0x0000000080059bc8                func_80059BC8.NON_MATCHING
                0x0000000080059bc8                func_80059BC8
                0x0000000080059c34                func_80059C34
                0x0000000080059c34                func_80059C34.NON_MATCHING
                0x0000000080059ca0                func_80059CA0
                0x0000000080059cc4                _getMtxPtr
                0x0000000080059cdc                _getVtxPtr
                0x0000000080059cf4                _getTexChar
                0x0000000080059cf4                _getTexChar.NON_MATCHING
                0x0000000080059d04                _getTexCommon.NON_MATCHING
                0x0000000080059d04                _getTexCommon
                0x0000000080059d14                func_80059D14
                0x0000000080059d14                func_80059D14.NON_MATCHING
                0x0000000080059d24                _getTexLevel
                0x0000000080059d34                _getTexMain
                0x0000000080059d44                _getTexName
                0x0000000080059d44                _getTexName.NON_MATCHING
                0x0000000080059d54                _getTexP2
                0x0000000080059d64                _getTexP4
                0x0000000080059d74                _getTexRank
                0x0000000080059d84                _getTexSetup
                0x0000000080059d94                func_80059D94
                0x0000000080059d94                func_80059D94.NON_MATCHING
                0x0000000080059da4                func_80059DA4
                0x0000000080059da4                func_80059DA4.NON_MATCHING
                0x0000000080059db4                func_80059DB4
                0x0000000080059db4                func_80059DB4.NON_MATCHING
                0x0000000080059dc4                func_80059DC4.NON_MATCHING
                0x0000000080059dc4                func_80059DC4
                0x0000000080059dd4                func_80059DD4.NON_MATCHING
                0x0000000080059dd4                func_80059DD4
                0x0000000080059de4                _getTexKasa
                0x0000000080059df4                _getRootItem
                0x0000000080059dfc                _getKeyLvl
                0x0000000080059e1c                _getKeyTrg
                0x0000000080059e3c                _getKeyRep
                0x0000000080059e5c                _getMode
                0x0000000080059e6c                _getModeOld
                0x0000000080059e7c                _setMode
                0x0000000080059e8c                _setNextMain
                0x0000000080059e9c                menuTitle_setTitle
                0x0000000080059eb8                _setFadeDir
                0x0000000080059f1c                menuAll_init
                0x000000008005a2ac                func_8005A2AC
                0x000000008005a2ec                func_8005A2EC
                0x000000008005a434                menuAll_changeMenu
                0x000000008005a720                menuAll_input
                0x000000008005a974                menuAll_update
                0x000000008005ad30                menuAll_drawBg
                0x000000008005aef4                menuAll_draw
                0x000000008005b2d4                main_menu
                0x000000008005b658                graphic_menu
 build/src/main_segment/font.o(.text)
 .text          0x000000008005b7f0     0x1730 build/src/main_segment/font.o
                0x000000008005b7f0                fontStr_nextChar
                0x000000008005b858                fontStr_length
                0x000000008005b898                fontStr_charSize
                0x000000008005b8d8                func_8005B8D8
                0x000000008005b8f0                font2index
                0x000000008005b940                ascii2index
                0x000000008005b974                font16_initDL
                0x000000008005b998                font16_initDL2
                0x000000008005baac                fontXX_draw
                0x000000008005bb24                fontXX_drawID
                0x000000008005bea0                fontXX_draw2
                0x000000008005bf18                fontXX_drawID2
                0x000000008005c4bc                fontAsc_draw
                0x000000008005c548                fontAsc_drawID
                0x000000008005c548                fontAsc_drawID.NON_MATCHING
                0x000000008005c90c                fontAsc_draw2
                0x000000008005c998                fontAsc_drawID2
 build/src/main_segment/msgwnd.o(.text)
 .text          0x000000008005cf20     0x1200 build/src/main_segment/msgwnd.o
                0x000000008005cf20                func_8005CF20
                0x000000008005cf78                msgWnd_init
                0x000000008005cfd4                msgWnd_init2
                0x000000008005d09c                msgWnd_clear
                0x000000008005d0ec                msgWnd_layout
                0x000000008005d314                msgWnd_addStr
                0x000000008005d3f8                func_8005D3F8
                0x000000008005d428                msgWnd_update
                0x000000008005d78c                msgWnd_draw
                0x000000008005d78c                msgWnd_draw.NON_MATCHING
                0x000000008005e0b4                msgWnd_isEnd
                0x000000008005e0bc                msgWnd_skip
                0x000000008005e0d0                msgWnd_isSpeaking
                0x000000008005e0d8                msgWnd_isScroll
                0x000000008005e0ec                msgWnd_getWidth
                0x000000008005e104                msgWnd_getHeight
 build/src/main_segment/char_anime.o(.text)
 .text          0x000000008005e120      0xe30 build/src/main_segment/char_anime.o
                0x000000008005e120                animeSeq_init
                0x000000008005e154                func_8005E154
                0x000000008005e174                animeSeq_update
                0x000000008005e32c                animeSeq_isEnd
                0x000000008005e358                animeState_getDataSize
                0x000000008005e36c                animeState_load
                0x000000008005e40c                animeState_init
                0x000000008005e48c                animeState_set
                0x000000008005e4a8                animeState_update
                0x000000008005e4e0                animeState_isEnd
                0x000000008005e4fc                animeState_initDL
                0x000000008005e5b0                animeState_initDL2
                0x000000008005e67c                animeState_initIntensityDL
                0x000000008005e750                animeState_draw
                0x000000008005e998                StretchTexTile4i
                0x000000008005e998                StretchTexTile4i.NON_MATCHING
                0x000000008005eafc                animeSmog_init
                0x000000008005eba8                animeSmog_load
                0x000000008005ebdc                animeSmog_start
                0x000000008005ebe4                animeSmog_stop
                0x000000008005ec40                animeSmog_update
                0x000000008005ed74                animeSmog_draw
                0x000000008005ee64                func_8005EE64.NON_MATCHING
                0x000000008005ee64                func_8005EE64
                0x000000008005ee98                loadAnimeSeq
                0x000000008005ee98                loadAnimeSeq.NON_MATCHING
 build/src/main_segment/dm_virus_init.o(.text)
 .text          0x000000008005ef50     0x12a0 build/src/main_segment/dm_virus_init.o
                0x000000008005ef50                init_map_all
                0x000000008005efc0                clear_map
                0x000000008005efc0                clear_map.NON_MATCHING
                0x000000008005f00c                clear_map_all
                0x000000008005f074                get_map_info
                0x000000008005f09c                func_8005F09C
                0x000000008005f09c                func_8005F09C.NON_MATCHING
                0x000000008005f0e4                func_8005F0E4
                0x000000008005f0e4                func_8005F0E4.NON_MATCHING
                0x000000008005f13c                get_virus_color_count
                0x000000008005f1e0                get_virus_count
                0x000000008005f204                set_map
                0x000000008005f25c                set_virus
                0x000000008005f2b0                func_8005F2B0
                0x000000008005f310                func_8005F310
                0x000000008005f33c                dm_check_color.NON_MATCHING
                0x000000008005f33c                dm_check_color
                0x000000008005f54c                dm_check_color_2
                0x000000008005f634                dm_virus_map_copy
                0x000000008005f698                dm_get_first_virus_count
                0x000000008005f6f0                dm_get_first_virus_count_in_new_mode
                0x000000008005f700                _dm_virus_init.NON_MATCHING
                0x000000008005f700                _dm_virus_init
                0x000000008005fc50                dm_virus_init
                0x000000008005fc6c                func_8005FC6C
                0x000000008005fcc4                _makeFlash_checkOrdre
                0x000000008005fcc4                _makeFlash_checkOrdre.NON_MATCHING
                0x000000008005fe68                func_8005FE68.NON_MATCHING
                0x000000008005fe68                func_8005FE68
                0x000000008005ff00                make_flash_virus_pos.NON_MATCHING
                0x000000008005ff00                make_flash_virus_pos
 build/src/main_segment/dm_game_main.o(.text)
 .text          0x00000000800601f0    0x11d00 build/src/main_segment/dm_game_main.o
                0x00000000800601f0                func_800601F0
                0x00000000800601f0                func_800601F0.NON_MATCHING
                0x0000000080060270                func_80060270
                0x0000000080060270                func_80060270.NON_MATCHING
                0x00000000800602b8                dm_make_score
                0x0000000080060348                dm_attack_se.NON_MATCHING
                0x0000000080060348                dm_attack_se
                0x0000000080060424                dm_warning_h_line.NON_MATCHING
                0x0000000080060424                dm_warning_h_line
                0x00000000800604d8                set_down_flg.NON_MATCHING
                0x00000000800604d8                set_down_flg
                0x000000008006075c                go_down
                0x000000008006075c                go_down.NON_MATCHING
                0x0000000080060910                erase_anime
                0x00000000800609b8                func_800609B8
                0x00000000800609b8                func_800609B8.NON_MATCHING
                0x0000000080060a6c                translate_capsel
                0x0000000080060c1c                rotate_capsel.NON_MATCHING
                0x0000000080060c1c                rotate_capsel
                0x0000000080060e10                dm_make_magazine
                0x0000000080060e10                dm_make_magazine.NON_MATCHING
                0x0000000080060f60                func_80060F60
                0x0000000080060f60                func_80060F60.NON_MATCHING
                0x0000000080060fa0                func_80060FA0
                0x0000000080060fa0                func_80060FA0.NON_MATCHING
                0x0000000080060fcc                dm_set_capsel.NON_MATCHING
                0x0000000080060fcc                dm_set_capsel
                0x00000000800610e0                dm_capsel_speed_up.NON_MATCHING
                0x00000000800610e0                dm_capsel_speed_up
                0x0000000080061184                dm_check_game_over
                0x0000000080061194                update_flash_virus_count
                0x0000000080061194                update_flash_virus_count.NON_MATCHING
                0x000000008006121c                func_8006121C
                0x000000008006126c                dm_set_virus
                0x00000000800613d0                dm_virus_anime
                0x0000000080061490                dm_capsel_erase_anime
                0x000000008006151c                dm_make_erase_h_line
                0x000000008006151c                dm_make_erase_h_line.NON_MATCHING
                0x00000000800615bc                dm_h_erase_chack
                0x0000000080061678                dm_h_erase_chack_set
                0x00000000800618b0                dm_make_erase_w_line
                0x00000000800618b0                dm_make_erase_w_line.NON_MATCHING
                0x0000000080061954                dm_w_erase_chack
                0x0000000080061a14                dm_w_erase_chack_set
                0x0000000080061c50                dm_h_ball_chack.NON_MATCHING
                0x0000000080061c50                dm_h_ball_chack
                0x0000000080061d20                dm_w_ball_chack
                0x0000000080061db8                dm_black_up
                0x0000000080061db8                dm_black_up.NON_MATCHING
                0x0000000080061e7c                dm_broken_set.NON_MATCHING
                0x0000000080061e7c                dm_broken_set
                0x0000000080061fe4                dm_calc_erase_score_pos
                0x00000000800620fc                func_800620FC.NON_MATCHING
                0x00000000800620fc                func_800620FC
                0x000000008006258c                func_8006258C
                0x000000008006258c                func_8006258C.NON_MATCHING
                0x00000000800626a4                func_800626A4
                0x00000000800626a4                func_800626A4.NON_MATCHING
                0x0000000080062898                dm_game_heap_top
                0x00000000800628a4                get_virus_anime_state
                0x00000000800628bc                get_virus_smog_state
                0x00000000800628e4                dm_get_mtx_buf.NON_MATCHING
                0x00000000800628e4                dm_get_mtx_buf
                0x0000000080062900                dm_get_vtx_buf.NON_MATCHING
                0x0000000080062900                dm_get_vtx_buf
                0x0000000080062920                func_80062920.NON_MATCHING
                0x0000000080062920                func_80062920
                0x0000000080062978                func_80062978
                0x0000000080062990                func_80062990
                0x0000000080062990                func_80062990.NON_MATCHING
                0x00000000800629ac                func_800629AC.NON_MATCHING
                0x00000000800629ac                func_800629AC
                0x00000000800629c8                func_800629C8
                0x00000000800629c8                func_800629C8.NON_MATCHING
                0x00000000800629e4                func_800629E4.NON_MATCHING
                0x00000000800629e4                func_800629E4
                0x0000000080062a08                func_80062A08
                0x0000000080062a24                func_80062A24
                0x0000000080062a40                func_80062A40
                0x0000000080062a40                func_80062A40.NON_MATCHING
                0x0000000080062a5c                func_80062A5C
                0x0000000080062a5c                func_80062A5C.NON_MATCHING
                0x0000000080062a8c                func_80062A8C.NON_MATCHING
                0x0000000080062a8c                func_80062A8C
                0x0000000080062aa8                func_80062AA8
                0x0000000080062aa8                func_80062AA8.NON_MATCHING
                0x0000000080062ac4                func_80062AC4.NON_MATCHING
                0x0000000080062ac4                func_80062AC4
                0x0000000080062ae0                func_80062AE0
                0x0000000080062ae0                func_80062AE0.NON_MATCHING
                0x0000000080062afc                func_80062AFC
                0x0000000080062afc                func_80062AFC.NON_MATCHING
                0x0000000080062b18                func_80062B18.NON_MATCHING
                0x0000000080062b18                func_80062B18
                0x0000000080062b34                func_80062B34
                0x0000000080062b34                func_80062B34.NON_MATCHING
                0x0000000080062b50                func_80062B50.NON_MATCHING
                0x0000000080062b50                func_80062B50
                0x0000000080062b84                func_80062B84
                0x0000000080062b84                func_80062B84.NON_MATCHING
                0x0000000080062bc4                func_80062BC4
                0x0000000080062bc4                func_80062BC4.NON_MATCHING
                0x0000000080062bd4                timeAttackResult_update
                0x0000000080062bd4                timeAttackResult_update.NON_MATCHING
                0x0000000080062da4                func_80062DA4.NON_MATCHING
                0x0000000080062da4                func_80062DA4
                0x0000000080062dd8                func_80062DD8
                0x0000000080062dd8                func_80062DD8.NON_MATCHING
                0x0000000080062e84                func_80062E84
                0x0000000080062e84                func_80062E84.NON_MATCHING
                0x0000000080062ec0                func_80062EC0
                0x0000000080062fb8                scoreNums_set.NON_MATCHING
                0x0000000080062fb8                scoreNums_set
                0x00000000800630f8                backup_game_state.NON_MATCHING
                0x00000000800630f8                backup_game_state
                0x0000000080063238                resume_game_state.NON_MATCHING
                0x0000000080063238                resume_game_state
                0x0000000080063378                func_80063378.NON_MATCHING
                0x0000000080063378                func_80063378
                0x00000000800633c0                func_800633C0.NON_MATCHING
                0x00000000800633c0                func_800633C0
                0x00000000800633fc                func_800633FC
                0x0000000080063440                dm_warning_h_line_se
                0x00000000800634e8                dm_play_count_down_se
                0x00000000800635bc                dm_capsel_down.NON_MATCHING
                0x00000000800635bc                dm_capsel_down
                0x0000000080063844                func_80063844
                0x0000000080063844                func_80063844.NON_MATCHING
                0x00000000800638ac                dm_set_attack_2p
                0x00000000800638ac                dm_set_attack_2p.NON_MATCHING
                0x0000000080063a80                dm_set_attack_4p
                0x0000000080063a80                dm_set_attack_4p.NON_MATCHING
                0x0000000080063ff4                func_80063FF4.NON_MATCHING
                0x0000000080063ff4                func_80063FF4
                0x000000008006408c                func_8006408C.NON_MATCHING
                0x000000008006408c                func_8006408C
                0x0000000080064130                func_80064130
                0x000000008006417c                func_8006417C
                0x000000008006417c                func_8006417C.NON_MATCHING
                0x0000000080064198                retryMenu_input
                0x0000000080064298                func_80064298
                0x0000000080064298                func_80064298.NON_MATCHING
                0x000000008006431c                func_8006431C
                0x000000008006431c                func_8006431C.NON_MATCHING
                0x00000000800643e0                set_bottom_up_virus
                0x00000000800643e0                set_bottom_up_virus.NON_MATCHING
                0x0000000080064628                bottom_up_bottle_items
                0x0000000080064748                add_taiQ_bonus_wait.NON_MATCHING
                0x0000000080064748                add_taiQ_bonus_wait
                0x0000000080064848                func_80064848.NON_MATCHING
                0x0000000080064848                func_80064848
                0x00000000800648c0                dm_game_eep_write_callback
                0x00000000800648c0                dm_game_eep_write_callback.NON_MATCHING
                0x0000000080064940                func_80064940
                0x0000000080064940                func_80064940.NON_MATCHING
                0x000000008006498c                func_8006498C
                0x00000000800649cc                dm_save_all
                0x0000000080064e4c                dm_query_pause_player
                0x0000000080064f18                dm_game_main_cnt_1P
                0x0000000080064f18                dm_game_main_cnt_1P.NON_MATCHING
                0x0000000080065bc4                dm_game_main_cnt.NON_MATCHING
                0x0000000080065bc4                dm_game_main_cnt
                0x00000000800666fc                func_800666FC
                0x00000000800666fc                func_800666FC.NON_MATCHING
                0x0000000080066808                func_80066808.NON_MATCHING
                0x0000000080066808                func_80066808
                0x000000008006683c                dm_set_pause_and_volume
                0x000000008006683c                dm_set_pause_and_volume.NON_MATCHING
                0x00000000800669a0                func_800669A0
                0x00000000800669c4                dm_calc_big_virus_pos.NON_MATCHING
                0x00000000800669c4                dm_calc_big_virus_pos
                0x0000000080066f68                dm_game_main_1p
                0x000000008006729c                func_8006729C.NON_MATCHING
                0x000000008006729c                func_8006729C
                0x00000000800673fc                func_800673FC.NON_MATCHING
                0x00000000800673fc                func_800673FC
                0x00000000800674ec                func_800674EC.NON_MATCHING
                0x00000000800674ec                func_800674EC
                0x00000000800675c8                func_800675C8.NON_MATCHING
                0x00000000800675c8                func_800675C8
                0x0000000080067668                func_80067668
                0x0000000080067668                func_80067668.NON_MATCHING
                0x0000000080067834                dm_game_main_2p.NON_MATCHING
                0x0000000080067834                dm_game_main_2p
                0x0000000080067f58                dm_game_main_4p.NON_MATCHING
                0x0000000080067f58                dm_game_main_4p
                0x0000000080068950                dm_game_demo_1p
                0x0000000080068aa0                dm_game_demo_2p
                0x0000000080068c24                dm_game_demo_4p
                0x0000000080068dc0                func_80068DC0.NON_MATCHING
                0x0000000080068dc0                func_80068DC0
                0x0000000080068de8                dm_game_get_capsel_pal
                0x0000000080068e24                func_80068E24
                0x0000000080068e24                func_80068E24.NON_MATCHING
                0x0000000080069160                func_80069160
                0x0000000080069188                func_80069188.NON_MATCHING
                0x0000000080069188                func_80069188
                0x00000000800691f8                starForce_draw.NON_MATCHING
                0x00000000800691f8                starForce_draw
                0x00000000800695a8                func_800695A8
                0x00000000800695a8                func_800695A8.NON_MATCHING
                0x000000008006967c                func_8006967C
                0x000000008006967c                func_8006967C.NON_MATCHING
                0x0000000080069990                func_80069990.NON_MATCHING
                0x0000000080069990                func_80069990
                0x0000000080069acc                func_80069ACC.NON_MATCHING
                0x0000000080069acc                func_80069ACC
                0x0000000080069bcc                draw_virus_number.NON_MATCHING
                0x0000000080069bcc                draw_virus_number
                0x0000000080069e20                draw_count_number.NON_MATCHING
                0x0000000080069e20                draw_count_number
                0x000000008006a098                func_8006A098
                0x000000008006a098                func_8006A098.NON_MATCHING
                0x000000008006a198                func_8006A198.NON_MATCHING
                0x000000008006a198                func_8006A198
                0x000000008006a2bc                push_any_key_draw
                0x000000008006a480                func_8006A480
                0x000000008006a480                func_8006A480.NON_MATCHING
                0x000000008006a6e8                func_8006A6E8
                0x000000008006a6e8                func_8006A6E8.NON_MATCHING
                0x000000008006a938                func_8006A938.NON_MATCHING
                0x000000008006a938                func_8006A938
                0x000000008006a978                func_8006A978.NON_MATCHING
                0x000000008006a978                func_8006A978
                0x000000008006ac60                func_8006AC60.NON_MATCHING
                0x000000008006ac60                func_8006AC60
                0x000000008006ae04                func_8006AE04
                0x000000008006ae04                func_8006AE04.NON_MATCHING
                0x000000008006aefc                func_8006AEFC.NON_MATCHING
                0x000000008006aefc                func_8006AEFC
                0x000000008006b0a4                draw_story_board.NON_MATCHING
                0x000000008006b0a4                draw_story_board
                0x000000008006b270                draw_vsmode_board.NON_MATCHING
                0x000000008006b270                draw_vsmode_board
                0x000000008006b8e0                func_8006B8E0.NON_MATCHING
                0x000000008006b8e0                func_8006B8E0
                0x000000008006bbec                dm_calc_bottle_2p.NON_MATCHING
                0x000000008006bbec                dm_calc_bottle_2p
                0x000000008006bc5c                dm_draw_bottle_2p.NON_MATCHING
                0x000000008006bc5c                dm_draw_bottle_2p
                0x000000008006bd00                dm_draw_big_virus
                0x000000008006bd00                dm_draw_big_virus.NON_MATCHING
                0x000000008006bdfc                dm_draw_KaSaMaRu.NON_MATCHING
                0x000000008006bdfc                dm_draw_KaSaMaRu
                0x000000008006c1d0                func_8006C1D0.NON_MATCHING
                0x000000008006c1d0                func_8006C1D0
                0x000000008006c580                dm_game_graphic_p.NON_MATCHING
                0x000000008006c580                dm_game_graphic_p
                0x000000008006c6fc                dm_game_graphic_1p
                0x000000008006c6fc                dm_game_graphic_1p.NON_MATCHING
                0x000000008006c88c                dm_game_graphic_effect.NON_MATCHING
                0x000000008006c88c                dm_game_graphic_effect
                0x000000008006d0e8                func_8006D0E8
                0x000000008006d150                dm_make_key
                0x000000008006d150                dm_make_key.NON_MATCHING
                0x000000008006d254                key_control_main
                0x000000008006d254                key_control_main.NON_MATCHING
                0x000000008006d620                func_8006D620
                0x000000008006d7b0                dm_effect_make
                0x000000008006d870                dm_game_init_heap
                0x000000008006d91c                dm_game_init
                0x000000008006e0ec                dm_game_init_static
                0x000000008006e80c                dm_game_init_snap_bg
                0x000000008006e884                dm_game_draw_snap_bg
                0x000000008006e884                dm_game_draw_snap_bg.NON_MATCHING
                0x000000008006f628                func_8006F628.NON_MATCHING
                0x000000008006f628                func_8006F628
                0x000000008006f684                dm_game_main
                0x000000008006f950                dm_game_main2.NON_MATCHING
                0x000000008006f950                dm_game_main2
                0x000000008006ffd0                dm_game_main3
                0x000000008007023c                dm_game_graphic
                0x0000000080070360                dm_game_graphic2
                0x0000000080070360                dm_game_graphic2.NON_MATCHING
                0x0000000080071624                dm_game_graphic_onDoneSawp
                0x0000000080071624                dm_game_graphic_onDoneSawp.NON_MATCHING
                0x0000000080071a44                func_80071A44
                0x0000000080071a4c                main_techmes
                0x0000000080071ce0                graphic_techmes
 build/src/main_segment/dm_manual_main.o(.text)
 .text          0x0000000080071ef0     0x4040 build/src/main_segment/dm_manual_main.o
                0x0000000080071ef0                func_80071EF0
                0x0000000080071f0c                func_80071F0C
                0x0000000080071f14                func_80071F14
                0x0000000080071fa0                func_80071FA0
                0x0000000080072028                tutolWnd_draw
                0x00000000800721a0                func_800721A0
                0x00000000800721bc                func_800721BC
                0x00000000800721d8                func_800721D8
                0x0000000080072204                func_80072204
                0x0000000080072230                func_80072230
                0x000000008007224c                func_8007224C
                0x0000000080072268                func_80072268
                0x0000000080072280                dm_manual_attack_capsel_down
                0x00000000800723ec                func_800723EC
                0x0000000080072428                dm_manual_update_virus_anime
                0x000000008007248c                dm_manual_main_cnt
                0x0000000080072968                dm_manual_make_key
                0x0000000080072968                dm_manual_make_key.NON_MATCHING
                0x0000000080072ab4                dm_manual_1_main.NON_MATCHING
                0x0000000080072ab4                dm_manual_1_main
                0x00000000800733ac                dm_manual_2_main
                0x00000000800739d8                dm_manual_3_main
                0x0000000080074330                dm_manual_4_main
                0x0000000080074954                draw_AB_guide
                0x0000000080074b08                func_80074B08.NON_MATCHING
                0x0000000080074b08                func_80074B08
                0x0000000080074ef0                func_80074EF0
                0x0000000080074fe0                disp_cont.NON_MATCHING
                0x0000000080074fe0                disp_cont
                0x00000000800752b8                dm_manual_draw_fg
                0x00000000800755f0                dm_manual_all_init
                0x0000000080075a2c                dm_manual_main
                0x0000000080075a2c                dm_manual_main.NON_MATCHING
                0x0000000080075cf8                dm_manual_graphic
 build/src/main_segment/dm_title_main.o(.text)
 .text          0x0000000080075f30      0x9b0 build/src/main_segment/dm_title_main.o
                0x0000000080075f30                func_80075F30
                0x0000000080075f98                dm_title_main
                0x000000008007636c                dm_title_graphic
                0x000000008007657c                main_boot_error
                0x00000000800767dc                graphic_boot_error
 build/src/main_segment/main_story.o(.text)
 .text          0x00000000800768e0     0x4d70 build/src/main_segment/main_story.o
                0x00000000800768e0                story_zoomfade.NON_MATCHING
                0x00000000800768e0                story_zoomfade
                0x0000000080076ca0                get_gbi_stat
                0x0000000080076ccc                func_80076CCC
                0x0000000080076ccc                func_80076CCC.NON_MATCHING
                0x0000000080076db4                curtain_proc_org
                0x0000000080076db4                curtain_proc_org.NON_MATCHING
                0x00000000800770e8                func_800770E8
                0x0000000080077170                func_80077170
                0x00000000800771ec                func_800771EC.NON_MATCHING
                0x00000000800771ec                func_800771EC
                0x00000000800773f0                func_800773F0
                0x000000008007744c                func_8007744C
                0x000000008007746c                func_8007746C
                0x00000000800774c4                func_800774C4
                0x0000000080077504                story_spot
                0x00000000800777e8                func_800777E8
                0x000000008007780c                init_coffee_break
                0x000000008007786c                init_coffee_break_cnt
                0x00000000800778e8                draw_coffee_break.NON_MATCHING
                0x00000000800778e8                draw_coffee_break
                0x0000000080077d68                init_menu_bg
                0x0000000080077e2c                draw_menu_bg
                0x0000000080077fa4                init_title
                0x0000000080078094                demo_title
                0x0000000080078648                func_80078648.NON_MATCHING
                0x0000000080078648                func_80078648
                0x000000008007865c                func_8007865C
                0x000000008007873c                story_st_new_op.NON_MATCHING
                0x000000008007873c                story_st_new_op
                0x0000000080078f78                story_st_new
                0x00000000800791d0                story_st_new2_f.NON_MATCHING
                0x00000000800791d0                story_st_new2_f
                0x00000000800796f4                story_st_new2
                0x0000000080079b24                story_m_end.NON_MATCHING
                0x0000000080079b24                story_m_end
                0x000000008007a154                story_st_new_w9.NON_MATCHING
                0x000000008007a154                story_st_new_w9
                0x000000008007a440                story_w_end
                0x000000008007a9dc                func_8007A9DC
                0x000000008007aa84                main_story
                0x000000008007aebc                init_objMtx
                0x000000008007aef4                graphic_story
                0x000000008007b62c                func_8007B62C
                0x000000008007b62c                func_8007B62C.NON_MATCHING
 build/src/main_segment/lws.o(.text)
 .text          0x000000008007b650      0x5d0 build/src/main_segment/lws.o
                0x000000008007b650                lws_anim.NON_MATCHING
                0x000000008007b650                lws_anim
 build/src/main_segment/calc.o(.text)
 .text          0x000000008007bc20     0x1640 build/src/main_segment/calc.o
                0x000000008007bc20                func_8007BC20
                0x000000008007bc54                func_8007BC54
                0x000000008007bc54                func_8007BC54.NON_MATCHING
                0x000000008007bd30                func_8007BD30
                0x000000008007beec                func_8007BEEC
                0x000000008007bfe0                func_8007BFE0
                0x000000008007bfe0                func_8007BFE0.NON_MATCHING
                0x000000008007c0c4                func_8007C0C4
                0x000000008007c0c4                func_8007C0C4.NON_MATCHING
                0x000000008007c244                func_8007C244.NON_MATCHING
                0x000000008007c244                func_8007C244
                0x000000008007c480                func_8007C480
                0x000000008007c4ac                angleF2S
                0x000000008007c4d8                func_8007C4D8
                0x000000008007c540                func_8007C540
                0x000000008007c5a8                func_8007C5A8
                0x000000008007c624                func_8007C624
                0x000000008007c6d8                func_8007C6D8.NON_MATCHING
                0x000000008007c6d8                func_8007C6D8
                0x000000008007c780                func_8007C780
                0x000000008007c7e8                func_8007C7E8
                0x000000008007c7e8                func_8007C7E8.NON_MATCHING
                0x000000008007c894                func_8007C894
                0x000000008007c894                func_8007C894.NON_MATCHING
                0x000000008007c9c8                func_8007C9C8
                0x000000008007c9c8                func_8007C9C8.NON_MATCHING
                0x000000008007cafc                func_8007CAFC.NON_MATCHING
                0x000000008007cafc                func_8007CAFC
                0x000000008007cbe4                func_8007CBE4
                0x000000008007cc68                func_8007CC68
                0x000000008007ccfc                func_8007CCFC
                0x000000008007cd78                func_8007CD78
                0x000000008007cd78                func_8007CD78.NON_MATCHING
                0x000000008007cfb4                func_8007CFB4
                0x000000008007d078                randomize00
                0x000000008007d108                randomseed
                0x000000008007d1c8                irandom
                0x000000008007d224                random
 build/src/main_segment/065080.o(.text)
 .text          0x000000008007d260     0x1000 build/src/main_segment/065080.o
                0x000000008007d260                func_8007D260
                0x000000008007d260                func_8007D260.NON_MATCHING
                0x000000008007d348                func_8007D348.NON_MATCHING
                0x000000008007d348                func_8007D348
                0x000000008007d410                func_8007D410.NON_MATCHING
                0x000000008007d410                func_8007D410
                0x000000008007d4cc                func_8007D4CC.NON_MATCHING
                0x000000008007d4cc                func_8007D4CC
                0x000000008007d568                func_8007D568
                0x000000008007d568                func_8007D568.NON_MATCHING
                0x000000008007d644                func_8007D644.NON_MATCHING
                0x000000008007d644                func_8007D644
                0x000000008007d74c                func_8007D74C.NON_MATCHING
                0x000000008007d74c                func_8007D74C
                0x000000008007d83c                func_8007D83C
                0x000000008007d83c                func_8007D83C.NON_MATCHING
                0x000000008007db78                func_8007DB78.NON_MATCHING
                0x000000008007db78                func_8007DB78
                0x000000008007dd70                func_8007DD70.NON_MATCHING
                0x000000008007dd70                func_8007DD70
                0x000000008007df64                func_8007DF64.NON_MATCHING
                0x000000008007df64                func_8007DF64
 build/src/main_segment/066080.o(.text)
 .text          0x000000008007e260       0x80 build/src/main_segment/066080.o
                0x000000008007e260                func_8007E260.NON_MATCHING
                0x000000008007e260                func_8007E260
 build/src/main_segment/replay.o(.text)
 .text          0x000000008007e2e0      0x480 build/src/main_segment/replay.o
                0x000000008007e2e0                replay_record_init_buffer
                0x000000008007e2fc                replay_record_init
                0x000000008007e418                replay_record
                0x000000008007e5c4                replay_play_init
                0x000000008007e638                replay_play
 build/src/main_segment/066580.o(.text)
 .text          0x000000008007e760      0x2c0 build/src/main_segment/066580.o
                0x000000008007e760                func_8007E760.NON_MATCHING
                0x000000008007e760                func_8007E760
 build/asm/us/main_segment/066840.o(.text)
 .text          0x000000008007ea20      0xe70 build/asm/us/main_segment/066840.o
                0x000000008007ea20                func_8007EA20
                0x000000008007ea38                func_8007EA38
                0x000000008007ea58                func_8007EA58
                0x000000008007eaec                func_8007EAEC
                0x000000008007ec54                func_8007EC54
                0x000000008007ec98                func_8007EC98
                0x000000008007ece0                func_8007ECE0
                0x000000008007ed74                func_8007ED74
                0x000000008007ee18                matrixMulL
                0x000000008007f004                makeTransrateMatrix
                0x000000008007f04c                makeScaleMatrix
                0x000000008007f094                makeMatrix
                0x000000008007f214                func_8007F214
                0x000000008007f284                func_8007F284
                0x000000008007f2f4                func_8007F2F4
                0x000000008007f364                func_8007F364
                0x000000008007f420                matrixConv
                0x000000008007f514                func_8007F514
                0x000000008007f550                func_8007F550
                0x000000008007f60c                func_8007F60C
                0x000000008007f670                func_8007F670
                0x000000008007f6c4                func_8007F6C4
                0x000000008007f720                func_8007F720
                0x000000008007f754                func_8007F754
                0x000000008007f79c                func_8007F79C
                0x000000008007f824                func_8007F824
 build/src/main_segment/055C40.o(.text)
 .text          0x000000008007f890      0x170 build/src/main_segment/055C40.o
                0x000000008007f890                func_8007F890
                0x000000008007f890                func_8007F890.NON_MATCHING
                0x000000008007f990                func_8007F990.NON_MATCHING
                0x000000008007f990                func_8007F990
                0x000000008007f9d0                func_8007F9D0.NON_MATCHING
                0x000000008007f9d0                func_8007F9D0
 build/asm/us/libmus/player.o(.text)
 .text          0x000000008007fa00     0x38e0 build/asm/us/libmus/player.o
                0x000000008007fa00                Fenvelope
                0x000000008007fb4c                MusInitialize
                0x000000008007fde4                MusSetMasterVolume
                0x000000008007fe10                MusStartSong
                0x000000008007fe40                MusStartSongFromMarker
                0x0000000080080090                MusStartEffect
                0x0000000080080110                MusStartEffect2
                0x0000000080080228                MusStop
                0x00000000800802f4                MusAsk
                0x0000000080080374                MusHandleStop
                0x0000000080080428                MusHandleAsk
                0x0000000080080480                MusHandleSetVolume
                0x00000000800804e0                MusHandleSetPan
                0x0000000080080550                MusHandleSetFreqOffset
                0x00000000800805c0                MusHandleSetTempo
                0x000000008008064c                MusHandleSetReverb
                0x00000000800806d4                MusPtrBankInitialize
                0x0000000080080710                MusPtrBankSetSingle
                0x0000000080080738                MusPtrBankSetCurrent
                0x000000008008075c                MusPtrBankGetCurrent
                0x0000000080080768                MusHandleGetPtrBank
                0x00000000800807c4                MusHandlePause
                0x00000000800807e8                MusHandleUnPause
                0x0000000080080810                MusSetFxType
                0x0000000080080840                MusSetSongFxChange
                0x000000008008089c                MusFxBankInitialize
                0x0000000080080920                MusFxBankNumberOfEffects
                0x0000000080080928                MusFxBankSetCurrent
                0x0000000080080934                MusFxBankSetSingle
                0x0000000080080940                MusFxBankGetCurrent
                0x000000008008094c                MusFxBankSetPtrBank
                0x0000000080080954                MusFxBankGetPtrBank
                0x000000008008095c                MusSetScheduler
                0x0000000080080968                MusHandleWaveCount
                0x00000000800809cc                MusHandleWaveAddress
                0x0000000080080a44                MusSetMarkerCallback
                0x0000000080080a50                __MusIntFifoOpen
                0x0000000080080ab4                __MusIntFifoProcessCommand
                0x0000000080080b34                __MusIntFifoAddCommand
                0x0000000080080bcc                __MusIntMain
                0x0000000080080ec4                __MusIntGetNewNote
                0x0000000080081430                __MusIntFlushPending
                0x00000000800814bc                __MusIntSetVolumeAndPan
                0x0000000080081620                __MusIntSetPitch
                0x0000000080081734                __MusIntInitEnvelope
                0x00000000800817a4                __MusIntProcessEnvelope
                0x0000000080081980                __MusIntInitSweep
                0x000000008008199c                __MusIntProcessSweep
                0x0000000080081a54                __MusIntProcessWobble
                0x0000000080081aac                __MusIntProcessVibrato
                0x0000000080081b10                __MusIntProcessContinuousVolume
                0x0000000080081bd4                __MusIntProcessContinuousPitchBend
                0x0000000080081ce8                __MusIntPowerOf2
                0x0000000080081e7c                __MusIntRemapPtrBank
                0x0000000080082014                __MusIntRandom
                0x00000000800820a8                __MusIntInitialiseChannel
                0x00000000800821e4                __MusIntFindChannel
                0x00000000800823ac                __MusIntRemapPtrs
                0x00000000800823e4                __MusIntStartEffect
                0x0000000080082494                __MusIntFindChannelAndStart
                0x000000008008263c                __MusIntStartSong
                0x00000000800828a8                __MusIntHandleSetFlag
                0x00000000800828fc                Fstop
                0x000000008008291c                Fwave
                0x000000008008294c                Fport
                0x000000008008296c                Fportoff
                0x0000000080082978                Fdefa
                0x0000000080082aa0                Ftempo
                0x0000000080082b84                Fendit
                0x0000000080082b98                Fcutoff
                0x0000000080082bbc                Fvibup
                0x0000000080082c2c                Fvibdown
                0x0000000080082ca0                Fviboff
                0x0000000080082cb0                Flength
                0x0000000080082ce0                Fignore
                0x0000000080082cf0                Ftrans
                0x0000000080082d00                Fignore_trans
                0x0000000080082d10                Fdistort
                0x0000000080082d68                Fenvoff
                0x0000000080082d78                Fenvon
                0x0000000080082d84                Ftroff
                0x0000000080082d94                Ftron
                0x0000000080082da0                Ffor
                0x0000000080082e0c                Fnext
                0x0000000080082ea8                Fwobble
                0x0000000080082ed0                Fwobbleoff
                0x0000000080082edc                Fvelon
                0x0000000080082eec                Fveloff
                0x0000000080082ef8                Fvelocity
                0x0000000080082f0c                Fpan
                0x0000000080082f20                Fstereo
                0x0000000080082f28                Fdrums
                0x0000000080082f70                Fdrumsoff
                0x0000000080082f7c                Fprint
                0x0000000080082f84                Fgoto
                0x0000000080082ff4                Freverb
                0x0000000080083004                FrandNote
                0x0000000080083054                FrandVolume
                0x00000000800830a4                FrandPan
                0x00000000800830f4                Fvolume
                0x0000000080083104                Fstartfx
                0x00000000800831d4                Fbendrange
                0x0000000080083210                Fsweep
                0x0000000080083220                Fchangefx
                0x0000000080083264                Fmarker
                0x00000000800832d4                Flength0
 build/lib/libmus/src/player_fx.o(.text)
 .text          0x00000000800832e0      0x8e0 build/lib/libmus/src/player_fx.o
                0x00000000800832e0                CustomInit
                0x0000000080083338                CustomSynNew
                0x0000000080083604                CustomAllocFX
                0x0000000080083698                CustomFxNew
                0x00000000800837e4                CustomFxSet
                0x0000000080083b64                ChangeCustomEffect
 build/asm/us/libmus/aud_dma.o(.text)
 .text          0x0000000080083bc0      0x460 build/asm/us/libmus/aud_dma.o
                0x0000000080083bc0                __MusIntDmaInit
                0x0000000080083d34                __MusIntDmaProcess
                0x0000000080083e04                __CallBackDmaNew
                0x0000000080083e10                __CallBackDmaProcess
                0x0000000080083e7c                __MusIntDmaSample
 build/asm/us/libmus/aud_sched.o(.text)
 .text          0x0000000080084020      0x1b0 build/asm/us/libmus/aud_sched.o
                0x0000000080084020                __MusIntSchedInit
                0x000000008008402c                __OsSchedInstall
                0x0000000080084090                __OsSchedWaitFrame
                0x00000000800840f0                __OsSchedDoTask
 build/asm/us/libmus/aud_thread.o(.text)
 .text          0x00000000800841d0      0x2c0 build/asm/us/libmus/aud_thread.o
                0x00000000800841d0                __MusIntAudManInit
                0x0000000080084308                __MusIntThreadProcess
 build/asm/us/libmus/lib_memory.o(.text)
 .text          0x0000000080084490      0x140 build/asm/us/libmus/lib_memory.o
                0x0000000080084490                __MusIntMemInit
                0x00000000800844dc                __MusIntMemMalloc
                0x000000008008450c                __MusIntMemRemaining
                0x0000000080084524                __MusIntMemGetHeapAddr
                0x0000000080084530                __MusIntMemSet
                0x000000008008455c                __MusIntMemMove
 build/asm/us/libmus/aud_samples.o(.text)
 .text          0x00000000800845d0       0xc0 build/asm/us/libmus/aud_samples.o
                0x00000000800845d0                __MusIntSamplesInit
                0x0000000080084648                __MusIntSamplesCurrent
                0x0000000080084690                main_segment_TEXT_END = .
                0x000000000005aa40                main_segment_TEXT_SIZE = ABSOLUTE ((main_segment_TEXT_END - main_segment_TEXT_START))
                0x0000000080084690                main_segment_DATA_START = .
                0x0000000080084690                rsp_rspboot_data = .
 build/asm/us/data/rsp/rspboot.data.o(.data)
 .data          0x0000000080084690       0xd0 build/asm/us/data/rsp/rspboot.data.o
                0x0000000080084690                rspbootTextStart
                0x0000000080084760                rspbootTextEnd
                0x0000000080084760                rsp_aspMain_data = .
 build/asm/us/data/rsp/aspMain.data.o(.data)
 .data          0x0000000080084760      0xe20 build/asm/us/data/rsp/aspMain.data.o
                0x0000000080084760                aspMainTextStart
                0x0000000080085580                aspMainTextEnd
                0x0000000080085580                rsp_f3dex2_data = .
 build/asm/us/data/rsp/f3dex2.data.o(.data)
 .data          0x0000000080085580     0x1390 build/asm/us/data/rsp/f3dex2.data.o
                0x0000000080085580                gspF3DEX2_fifoTextStart
                0x0000000080086910                gspF3DEX2_fifoTextEnd
                0x0000000080086910                rsp_s2dex_data = .
 build/asm/us/data/rsp/s2dex.data.o(.data)
 .data          0x0000000080086910     0x17f0 build/asm/us/data/rsp/s2dex.data.o
                0x0000000080086910                gspS2DEX_fifoTextStart
                0x0000000080088100                gspS2DEX_fifoTextEnd
                0x0000000080088100                main_segment_000280 = .
 build/src/main_segment/000280.o(.data)
 .data          0x0000000080088100       0x10 build/src/main_segment/000280.o
                0x0000000080088100                framecont
                0x0000000080088104                D_80088104
                0x0000000080088110                main_segment_graphic = .
 build/src/main_segment/graphic.o(.data)
 .data          0x0000000080088110       0x40 build/src/main_segment/graphic.o
                0x0000000080088110                D_80088110
                0x0000000080088120                gCurrentFramebufferIndex
                0x0000000080088124                graphic_no
                0x0000000080088128                pendingGFX
                0x0000000080088130                vp
                0x0000000080088140                rdpinit_flag_161
                0x0000000080088150                main_segment_graphics_graphic_dlists = .
 build/src/main_segment/graphics/graphic_dlists.o(.data)
 .data          0x0000000080088150      0x2a0 build/src/main_segment/graphics/graphic_dlists.o
                0x0000000080088150                S2RDPinit_dl
                0x00000000800881b8                S2ClearCFB_dl
                0x00000000800881e0                S2Spriteinit_dl
                0x0000000080088228                F3RDPinit_dl
                0x0000000080088308                F3SetupRDP_dl
                0x0000000080088328                F3SetupRSP_dl
                0x0000000080088360                D_80088360
                0x00000000800883a8                D_800883A8
                0x00000000800883f0                main_segment_audio_003520 = .
 build/src/main_segment/audio/003520.o(.data)
 .data          0x00000000800883f0       0x10 build/src/main_segment/audio/003520.o
                0x00000000800883f0                D_800883F0
                0x0000000080088400                main_segment_main1x = .
 build/src/main_segment/main1x.o(.data)
 .data          0x0000000080088400       0x80 build/src/main_segment/main1x.o
                0x0000000080088400                evs_stereo
                0x0000000080088401                evs_seqence
                0x0000000080088402                evs_seqnumb
                0x0000000080088403                evs_playcnt
                0x0000000080088404                evs_keyrept
                0x0000000080088406                evs_gamespeed
                0x0000000080088407                evs_score_flag
                0x0000000080088408                evs_story_flg
                0x0000000080088409                evs_story_no
                0x000000008008840a                evs_story_level
                0x000000008008840c                evs_secret_flg
                0x000000008008840e                evs_one_game_flg
                0x000000008008840f                evs_level_21
                0x0000000080088410                evs_manual_no
                0x0000000080088414                evs_high_score
                0x0000000080088418                evs_vs_count
                0x000000008008841c                FlyingCnt
                0x0000000080088420                BonusWait
                0x000000008008842c                D_8008842C
                0x0000000080088430                GameSpeed
                0x0000000080088434                FallSpeed
                0x000000008008846c                Score1p
                0x0000000080088480                main_segment_vr_init = .
 build/src/main_segment/vr_init.o(.data)
 .data          0x0000000080088480       0x10 build/src/main_segment/vr_init.o
                0x0000000080088480                mti
                0x0000000080088484                mag01_108
                0x0000000080088490                main_segment_aiset_data = .
 build/asm/us/data/main_segment/aiset.data.o(.data)
 .data          0x0000000080088490     0x1310 build/asm/us/data/main_segment/aiset.data.o
                0x0000000080088490                D_80088490
                0x00000000800884a8                aiVirusLevel
                0x00000000800884c0                D_800884C0
                0x00000000800884d8                aiSlideFSpeed
                0x00000000800884f0                D_800884F0
                0x0000000080088508                aiDebugP1
                0x000000008008850c                capsGCnv_122
                0x0000000080088522                D_80088522
                0x0000000080088524                capsCCnv_123
                0x000000008008852a                D_8008852A
                0x000000008008852c                D_8008852C
                0x0000000080088534                D_80088534
                0x0000000080088535                D_80088535
                0x000000008008853c                D_8008853C
                0x000000008008854c                D_8008854C
                0x000000008008855e                D_8008855E
                0x0000000080088564                D_80088564
                0x000000008008856a                D_8008856A
                0x000000008008856c                D_8008856C
                0x0000000080088570                D_80088570
                0x0000000080088572                D_80088572
                0x0000000080088574                D_80088574
                0x0000000080088584                D_80088584
                0x0000000080088588                D_80088588
                0x000000008008858c                D_8008858C
                0x0000000080088590                D_80088590
                0x0000000080088592                D_80088592
                0x0000000080088594                D_80088594
                0x0000000080088596                D_80088596
                0x0000000080088598                D_80088598
                0x000000008008859a                D_8008859A
                0x000000008008859c                D_8008859C
                0x00000000800885a0                D_800885A0
                0x00000000800885a4                D_800885A4
                0x00000000800885a6                D_800885A6
                0x00000000800885a8                D_800885A8
                0x00000000800885aa                D_800885AA
                0x00000000800885ac                D_800885AC
                0x00000000800885ae                D_800885AE
                0x00000000800885b0                D_800885B0
                0x00000000800885b4                D_800885B4
                0x00000000800885b8                D_800885B8
                0x00000000800885ba                D_800885BA
                0x00000000800885bc                D_800885BC
                0x00000000800885be                D_800885BE
                0x00000000800885c0                D_800885C0
                0x00000000800885c2                D_800885C2
                0x00000000800885c4                D_800885C4
                0x00000000800885c6                D_800885C6
                0x00000000800885c8                D_800885C8
                0x00000000800885ca                D_800885CA
                0x00000000800885cc                D_800885CC
                0x00000000800885d2                D_800885D2
                0x00000000800885d4                D_800885D4
                0x00000000800885d6                D_800885D6
                0x00000000800885d8                D_800885D8
                0x00000000800885f8                D_800885F8
                0x0000000080088638                D_80088638
                0x0000000080088660                ai_param_org
                0x00000000800890e0                ai_char_data_org
                0x00000000800897a0                main_segment_record = .
 build/src/main_segment/record.o(.data)
 .data          0x00000000800897a0     0x3800 build/src/main_segment/record.o
                0x00000000800897a0                mess_panel_tex_size
                0x00000000800897a8                mess_panel_lut
                0x00000000800899a8                mess_panel_tex
                0x000000008008cf90                _cached_1332
                0x000000008008cfa0                main_segment_020D10_data = .
 build/asm/us/data/main_segment/020D10.data.o(.data)
 .data          0x000000008008cfa0       0x50 build/asm/us/data/main_segment/020D10.data.o
                0x000000008008cfa0                D_8008CFA0
                0x000000008008cfe0                D_8008CFE0
                0x000000008008cff0                main_segment_game_etc_data = .
 build/asm/us/data/main_segment/game_etc.data.o(.data)
 .data          0x000000008008cff0      0x1f0 build/asm/us/data/main_segment/game_etc.data.o
                0x000000008008cff0                pause_table
                0x000000008008d020                cont_table
                0x000000008008d080                etc_parts_tbl
                0x000000008008d0c0                x2p
                0x000000008008d0c8                x4p
                0x000000008008d0d8                etc_vp
                0x000000008008d0e8                etc_setup
                0x000000008008d180                col_prim_434
                0x000000008008d1b0                col_env_435
                0x000000008008d1e0                main_segment_screen_print_printf_impl = .
 build/src/main_segment/screen_print/printf_impl.o(.data)
 .data          0x000000008008d1e0       0xc0 build/src/main_segment/screen_print/printf_impl.o
                0x000000008008d1e0                basc
                0x000000008008d1f4                BASC
                0x000000008008d208                _div_data
                0x000000008008d250                _mul_data
                0x000000008008d2a0                main_segment_0750C0_data = .
 build/asm/us/data/main_segment/0750C0.data.o(.data)
 .data          0x000000008008d2a0       0x30 build/asm/us/data/main_segment/0750C0.data.o
                0x000000008008d2a0                D_8008D2A0
                0x000000008008d2d0                main_segment_screen_print_debug_print = .
 build/src/main_segment/screen_print/debug_print.o(.data)
 .data          0x000000008008d2d0     0x10a0 build/src/main_segment/screen_print/debug_print.o
                0x000000008008d2d0                sDebugPrintFontTex
                0x000000008008e1d0                sDebugPrintFontMap
                0x000000008008e290                D_8008E290
                0x000000008008e340                D_8008E340
                0x000000008008e358                sPrinterCallbacks
                0x000000008008e364                sPrinterInstance
                0x000000008008e370                main_segment_debug_menu = .
 build/src/main_segment/debug_menu.o(.data)
 .data          0x000000008008e370      0x260 build/src/main_segment/debug_menu.o
                0x000000008008e370                D_8008E370
                0x000000008008e380                D_8008E380
                0x000000008008e398                D_8008E398
                0x000000008008e3b8                D_8008E3B8
                0x000000008008e3c0                D_8008E3C0
                0x000000008008e400                D_8008E400
                0x000000008008e420                D_8008E420
                0x000000008008e454                D_8008E454
                0x000000008008e480                D_8008E480
                0x000000008008e490                D_8008E490
                0x000000008008e4a0                D_8008E4A0
                0x000000008008e4ac                D_8008E4AC
                0x000000008008e4dc                D_8008E4DC
                0x000000008008e4f0                D_8008E4F0
                0x000000008008e508                D_8008E508
                0x000000008008e538                D_8008E538
                0x000000008008e540                D_8008E540
                0x000000008008e548                D_8008E548
                0x000000008008e558                D_8008E558
                0x000000008008e568                D_8008E568
                0x000000008008e574                D_8008E574
                0x000000008008e57c                D_8008E57C
                0x000000008008e584                D_8008E584
                0x000000008008e590                D_8008E590
                0x000000008008e598                D_8008E598
                0x000000008008e5a0                D_8008E5A0
                0x000000008008e5b0                D_8008E5B0
                0x000000008008e5b4                D_8008E5B4
                0x000000008008e5d0                main_segment_028820 = .
 build/src/main_segment/028820.o(.data)
 .data          0x000000008008e5d0       0x10 build/src/main_segment/028820.o
                0x000000008008e5d0                D_8008E5D0
                0x000000008008e5e0                main_segment_tex_func = .
 build/src/main_segment/tex_func.o(.data)
 .data          0x000000008008e5e0      0x190 build/src/main_segment/tex_func.o
                0x000000008008e5e0                D_8008E5E0
                0x000000008008e650                alpha_texture_init_dl
                0x000000008008e6b8                normal_texture_init_dl
                0x000000008008e728                D_8008E728
                0x000000008008e748                init_dl_155
                0x000000008008e770                main_segment_main_menu = .
 build/src/main_segment/main_menu.o(.data)
 .data          0x000000008008e770      0x150 build/src/main_segment/main_menu.o
                0x000000008008e770                _yn_1767
                0x000000008008e778                _type_1949
                0x000000008008e788                _menuMain_lastMode
                0x000000008008e78c                _tblMain_5279
                0x000000008008e79c                _tblPlay1_5280
                0x000000008008e7b4                _tblPlay2_5281
                0x000000008008e7c0                D_8008E7C0
                0x000000008008e7d0                _tblBaTyp_5282
                0x000000008008e7dc                _tblOpt_5283
                0x000000008008e7f0                _tblTutol_5284
                0x000000008008e804                _tblSound_5285
                0x000000008008e814                _tblMisc_5286
                0x000000008008e820                _loopTbl_5287
                0x000000008008e860                mes_5577
                0x000000008008e86c                _nameEntry_charTable
                0x000000008008e870                _code_9711
                0x000000008008e898                _posX_tbl_9716
                0x000000008008e8b4                _menuAll_lastMode
                0x000000008008e8c0                main_segment_font = .
 build/src/main_segment/font.o(.data)
 .data          0x000000008008e8c0    0x186c0 build/src/main_segment/font.o
                0x000000008008e8c0                font_a_tex
                0x0000000080094350                font_2_tex
                0x000000008009f870                font_e_tex
                0x00000000800a0e78                font_e2_tex
                0x00000000800a3a88                font_grade_tex
                0x00000000800a3ad0                D_800A3AD0
                0x00000000800a3bd0                D_800A3BD0
                0x00000000800a3cd0                char_code_tbl
                0x00000000800a6d90                D_800A6D90
                0x00000000800a6f70                _tbl_133
                0x00000000800a6f80                main_segment_dm_game_main_data = .
 build/asm/us/data/main_segment/dm_game_main.data.o(.data)
 .data          0x00000000800a6f80      0x410 build/asm/us/data/main_segment/dm_game_main.data.o
                0x00000000800a6f80                virus_anime_table
                0x00000000800a6f8c                D_800A6F8C
                0x00000000800a6f90                D_800A6F90
                0x00000000800a6f9c                rotate_table_474
                0x00000000800a6fac                rotate_mtx_475
                0x00000000800a6fc4                D_800A6FC4
                0x00000000800a6fc8                D_800A6FC8
                0x00000000800a6fd8                _mesPassword
                0x00000000800a6fec                _mesEasyCont
                0x00000000800a7040                _mesEasyNoCont
                0x00000000800a709c                _mesNormalCont
                0x00000000800a70f4                _mesNormalNoCont
                0x00000000800a7150                _mesHardCont
                0x00000000800a71a4                _mesHardNoCont
                0x00000000800a727c                _mesSHardCont
                0x00000000800a72d8                _mesSHardNoCont
                0x00000000800a7354                D_800A7354
                0x00000000800a7360                D_800A7360
                0x00000000800a7374                D_800A7374
                0x00000000800a7378                D_800A7378
                0x00000000800a7379                D_800A7379
                0x00000000800a737a                D_800A737A
                0x00000000800a737b                D_800A737B
                0x00000000800a7390                main_segment_dm_title_main_data = .
 build/asm/us/data/main_segment/dm_title_main.data.o(.data)
 .data          0x00000000800a7390       0x10 build/asm/us/data/main_segment/dm_title_main.data.o
                0x00000000800a7390                title_demo_flg
                0x00000000800a7394                title_demo_no
                0x00000000800a7398                title_manual_no
                0x00000000800a739c                title_exit_flag
                0x00000000800a73a0                main_segment_08F1C0_data = .
 build/asm/us/data/main_segment/08F1C0.data.o(.data)
 .data          0x00000000800a73a0       0x20 build/asm/us/data/main_segment/08F1C0.data.o
                0x00000000800a73a0                D_800A73A0
                0x00000000800a73b8                D_800A73B8
                0x00000000800a73c0                main_segment_main_story_data = .
 build/asm/us/data/main_segment/main_story.data.o(.data)
 .data          0x00000000800a73c0     0x3aa0 build/asm/us/data/main_segment/main_story.data.o
                0x00000000800a73c0                D_800A73C0
                0x00000000800a76c0                D_800A76C0
                0x00000000800a82c0                changestar_tex
                0x00000000800a8ac0                title_bmp_tbl
                0x00000000800a8acc                mess_heap
                0x00000000800a8ad0                st_staffroll_txt
                0x00000000800a923c                D_800A923C
                0x00000000800a9278                D_800A9278
                0x00000000800a92c0                D_800A92C0
                0x00000000800a92d8                D_800A92D8
                0x00000000800a9314                D_800A9314
                0x00000000800a935c                D_800A935C
                0x00000000800a9390                D_800A9390
                0x00000000800a93b0                D_800A93B0
                0x00000000800a93f0                D_800A93F0
                0x00000000800a9418                D_800A9418
                0x00000000800a9444                D_800A9444
                0x00000000800a9484                D_800A9484
                0x00000000800a94d4                D_800A94D4
                0x00000000800a9520                D_800A9520
                0x00000000800a9558                D_800A9558
                0x00000000800a959c                D_800A959C
                0x00000000800a95d4                D_800A95D4
                0x00000000800a95ec                D_800A95EC
                0x00000000800a962c                D_800A962C
                0x00000000800a965c                D_800A965C
                0x00000000800a96a0                D_800A96A0
                0x00000000800a96d8                D_800A96D8
                0x00000000800a9720                D_800A9720
                0x00000000800a9764                D_800A9764
                0x00000000800a97ac                D_800A97AC
                0x00000000800a97ec                D_800A97EC
                0x00000000800a9838                D_800A9838
                0x00000000800a9878                D_800A9878
                0x00000000800a9890                D_800A9890
                0x00000000800a98d4                D_800A98D4
                0x00000000800a9918                D_800A9918
                0x00000000800a9930                D_800A9930
                0x00000000800a9974                D_800A9974
                0x00000000800a99b0                D_800A99B0
                0x00000000800a99ec                D_800A99EC
                0x00000000800a9a18                D_800A9A18
                0x00000000800a9a50                D_800A9A50
                0x00000000800a9a94                D_800A9A94
                0x00000000800a9acc                D_800A9ACC
                0x00000000800a9af4                D_800A9AF4
                0x00000000800a9b30                D_800A9B30
                0x00000000800a9b6c                D_800A9B6C
                0x00000000800a9bb8                D_800A9BB8
                0x00000000800a9be0                D_800A9BE0
                0x00000000800a9c18                D_800A9C18
                0x00000000800a9c58                D_800A9C58
                0x00000000800a9c74                D_800A9C74
                0x00000000800a9ca0                D_800A9CA0
                0x00000000800a9cf0                D_800A9CF0
                0x00000000800a9d20                D_800A9D20
                0x00000000800a9d5c                D_800A9D5C
                0x00000000800a9da0                D_800A9DA0
                0x00000000800a9ddc                D_800A9DDC
                0x00000000800a9dfc                D_800A9DFC
                0x00000000800a9e44                D_800A9E44
                0x00000000800a9e7c                D_800A9E7C
                0x00000000800a9eb8                D_800A9EB8
                0x00000000800a9ed4                D_800A9ED4
                0x00000000800a9efc                D_800A9EFC
                0x00000000800a9f48                D_800A9F48
                0x00000000800a9f7c                D_800A9F7C
                0x00000000800a9fb4                D_800A9FB4
                0x00000000800a9fd4                D_800A9FD4
                0x00000000800aa014                D_800AA014
                0x00000000800aa040                D_800AA040
                0x00000000800aa07c                D_800AA07C
                0x00000000800aa09c                D_800AA09C
                0x00000000800aa0c4                D_800AA0C4
                0x00000000800aa104                D_800AA104
                0x00000000800aa130                D_800AA130
                0x00000000800aa168                D_800AA168
                0x00000000800aa194                D_800AA194
                0x00000000800aa1bc                D_800AA1BC
                0x00000000800aa200                D_800AA200
                0x00000000800aa238                D_800AA238
                0x00000000800aa26c                D_800AA26C
                0x00000000800aa29c                D_800AA29C
                0x00000000800aa2c4                D_800AA2C4
                0x00000000800aa300                D_800AA300
                0x00000000800aa318                D_800AA318
                0x00000000800aa334                D_800AA334
                0x00000000800aa354                D_800AA354
                0x00000000800aa398                D_800AA398
                0x00000000800aa3dc                D_800AA3DC
                0x00000000800aa41c                D_800AA41C
                0x00000000800aa454                D_800AA454
                0x00000000800aa474                D_800AA474
                0x00000000800aa494                D_800AA494
                0x00000000800aa4dc                D_800AA4DC
                0x00000000800aa4ec                D_800AA4EC
                0x00000000800aa528                D_800AA528
                0x00000000800aa538                D_800AA538
                0x00000000800aa570                D_800AA570
                0x00000000800aa5ac                D_800AA5AC
                0x00000000800aa5c4                D_800AA5C4
                0x00000000800aa604                D_800AA604
                0x00000000800aa63c                D_800AA63C
                0x00000000800aa668                D_800AA668
                0x00000000800aa688                D_800AA688
                0x00000000800aa6cc                D_800AA6CC
                0x00000000800aa714                D_800AA714
                0x00000000800aa758                D_800AA758
                0x00000000800aa778                D_800AA778
                0x00000000800aa7c4                D_800AA7C4
                0x00000000800aa808                D_800AA808
                0x00000000800aa844                D_800AA844
                0x00000000800aa864                D_800AA864
                0x00000000800aa894                D_800AA894
                0x00000000800aa8cc                D_800AA8CC
                0x00000000800aa8f0                D_800AA8F0
                0x00000000800aa928                D_800AA928
                0x00000000800aa96c                D_800AA96C
                0x00000000800aa9a8                D_800AA9A8
                0x00000000800aa9e0                D_800AA9E0
                0x00000000800aaa10                D_800AAA10
                0x00000000800aaa4c                D_800AAA4C
                0x00000000800aaa80                D_800AAA80
                0x00000000800aaaa0                D_800AAAA0
                0x00000000800aaae0                D_800AAAE0
                0x00000000800aab18                D_800AAB18
                0x00000000800aab5c                D_800AAB5C
                0x00000000800aab7c                D_800AAB7C
                0x00000000800aabb4                D_800AABB4
                0x00000000800aabc8                D_800AABC8
                0x00000000800aabe0                D_800AABE0
                0x00000000800aac10                D_800AAC10
                0x00000000800aac5c                D_800AAC5C
                0x00000000800aac74                mes_data
                0x00000000800aacec                story_proc_no
                0x00000000800aacf0                STR_800AACF0
                0x00000000800aad04                EndingLastMessage
                0x00000000800aad08                story_time_cnt
                0x00000000800aad0c                story_seq_step
                0x00000000800aad10                story_zoom
                0x00000000800aad14                story_curtain
                0x00000000800aad18                story_spot_cnt
                0x00000000800aad1c                D_800AAD1C
                0x00000000800aad20                story_message_on
                0x00000000800aad24                story_message_start
                0x00000000800aad28                story_doing
                0x00000000800aad2c                bgtime
                0x00000000800aad34                mes_time
                0x00000000800aad38                D_800AAD38
                0x00000000800aad3c                story_buffer
                0x00000000800aad40                story_z_buffer
                0x00000000800aad44                objMtx_FF
                0x00000000800aad48                D_800AAD48
                0x00000000800aad4c                D_800AAD4C
                0x00000000800aad50                D_800AAD50
                0x00000000800aad58                D_800AAD58
                0x00000000800aad68                story_setup
                0x00000000800aae00                snd_tbl_838
                0x00000000800aae60                main_segment_calc_data = .
 build/asm/us/data/main_segment/calc.data.o(.data)
 .data          0x00000000800aae60      0x310 build/asm/us/data/main_segment/calc.data.o
                0x00000000800aae60                D_800AAE60
                0x00000000800aaff4                D_800AAFF4
                0x00000000800ab170                main_segment_066580_data = .
 build/asm/us/data/main_segment/066580.data.o(.data)
 .data          0x00000000800ab170      0x1b0 build/asm/us/data/main_segment/066580.data.o
                0x00000000800ab170                D_800AB170
                0x00000000800ab1b4                D_800AB1B4
                0x00000000800ab1d4                D_800AB1D4
                0x00000000800ab1ec                D_800AB1EC
                0x00000000800ab1fc                D_800AB1FC
                0x00000000800ab20c                D_800AB20C
                0x00000000800ab21c                D_800AB21C
                0x00000000800ab29c                D_800AB29C
                0x00000000800ab320                main_segment_066840_data = .
 build/asm/us/data/main_segment/066840.data.o(.data)
 .data          0x00000000800ab320      0x930 build/asm/us/data/main_segment/066840.data.o
                0x00000000800ab320                D_800AB320
                0x00000000800ab32c                D_800AB32C
                0x00000000800ab334                D_800AB334
                0x00000000800ab3b4                D_800AB3B4
                0x00000000800ab440                D_800AB440
                0x00000000800abc50                libmus_player_data = .
 build/asm/us/data/libmus/player.data.o(.data)
 .data          0x00000000800abc50       0xc0 build/asm/us/data/libmus/player.data.o
                0x00000000800abc50                jumptable
                0x00000000800abd10                ___lib_libmus_src_player_fx = .
 build/lib/libmus/src/player_fx.o(.data)
 .data          0x00000000800abd10      0x210 build/lib/libmus/src/player_fx.o
                0x00000000800abf20                libmus_aud_sched_data = .
 build/asm/us/data/libmus/aud_sched.data.o(.data)
 .data          0x00000000800abf20       0x10 build/asm/us/data/libmus/aud_sched.data.o
                0x00000000800abf20                default_sched
                0x00000000800abf2c                __libmus_current_sched
                0x00000000800abf30                libmus_aud_thread_data = .
 build/asm/us/data/libmus/aud_thread.data.o(.data)
 .data          0x00000000800abf30       0x10 build/asm/us/data/libmus/aud_thread.data.o
                0x00000000800abf30                last_task
                0x00000000800abf40                main_segment_DATA_END = .
                0x00000000000278b0                main_segment_DATA_SIZE = ABSOLUTE ((main_segment_DATA_END - main_segment_DATA_START))
                0x00000000800abf40                main_segment_RODATA_START = .
 build/asm/us/data/rsp/aspMain.rodata.o(.rodata)
 .rodata        0x00000000800abf40      0x2c0 build/asm/us/data/rsp/aspMain.rodata.o
                0x00000000800abf40                aspMainDataStart
                0x00000000800ac200                aspMainDataEnd
 build/asm/us/data/rsp/f3dex2.rodata.o(.rodata)
 .rodata        0x00000000800ac200      0x420 build/asm/us/data/rsp/f3dex2.rodata.o
                0x00000000800ac200                gspF3DEX2_fifoDataStart
                0x00000000800ac620                gspF3DEX2_fifoDataEnd
 build/asm/us/data/rsp/s2dex.rodata.o(.rodata)
 .rodata        0x00000000800ac620      0x3c0 build/asm/us/data/rsp/s2dex.rodata.o
                0x00000000800ac620                gspS2DEX_fifoDataStart
                0x00000000800ac9e0                gspS2DEX_fifoDataEnd
 build/src/main_segment/main.o(.rodata)
 .rodata        0x00000000800ac9e0       0x30 build/src/main_segment/main.o
 build/src/main_segment/sound.o(.rodata)
 .rodata        0x00000000800aca10      0x2f0 build/src/main_segment/sound.o
                0x00000000800aca10                _charSE_tbl
                0x00000000800aca20                RO_800ACA20
                0x00000000800aca80                gSndsEntries
 build/src/main_segment/graphic.o(.rodata)
 .rodata        0x00000000800acd00       0x20 build/src/main_segment/graphic.o
 build/src/main_segment/main1x.o(.rodata)
 .rodata        0x00000000800acd20      0x190 build/src/main_segment/main1x.o
                0x00000000800acd20                jtbl_800ACD20
                0x00000000800acd60                jtbl_800ACD60
                0x00000000800acda0                jtbl_800ACDA0
                0x00000000800acde0                jtbl_800ACDE0
                0x00000000800ace1c                _seqTbl_224
                0x00000000800ace28                _demoSeqTbl_225
                0x00000000800ace2c                StoryVirLv_226
                0x00000000800ace4c                _charToAi_227
                0x00000000800ace5c                _stageToChar_tbl_228
                0x00000000800ace70                _story4PChar_tbl_229
                0x00000000800ace78                _team_flg_230
                0x00000000800ace84                GameSize_231
 build/src/main_segment/aiset.o(.rodata)
 .rodata        0x00000000800aceb0       0x90 build/src/main_segment/aiset.o
                0x00000000800aceb0                DBL_800ACEB0
                0x00000000800aceb8                jtbl_800ACEB8
                0x00000000800acee8                jtbl_800ACEE8
                0x00000000800acf10                RO_800ACF10
                0x00000000800acf20                wave_tbl_2879
 build/src/main_segment/record.o(.rodata)
 .rodata        0x00000000800acf40       0x70 build/src/main_segment/record.o
                0x00000000800acf40                eeprom_header
                0x00000000800acf44                eeprom_header_bits
                0x00000000800acf48                _defName
                0x00000000800acf50                jtbl_800ACF50
                0x00000000800acf68                jtbl_800ACF68
                0x00000000800acf80                jtbl_800ACF80
                0x00000000800acf98                jtbl_800ACF98
 build/src/main_segment/020D10.o(.rodata)
 .rodata        0x00000000800acfb0      0x1a0 build/src/main_segment/020D10.o
                0x00000000800acfb0                RO_800ACFB0
                0x00000000800acfc8                RO_800ACFC8
                0x00000000800ad068                DBL_800AD068
                0x00000000800ad070                DBL_800AD070
                0x00000000800ad078                DBL_800AD078
                0x00000000800ad080                RO_800AD080
                0x00000000800ad098                RO_800AD098
                0x00000000800ad138                DBL_800AD138
                0x00000000800ad140                DBL_800AD140
 build/src/main_segment/game_etc.o(.rodata)
 .rodata        0x00000000800ad150       0x40 build/src/main_segment/game_etc.o
                0x00000000800ad150                DBL_800AD150
                0x00000000800ad158                DBL_800AD158
                0x00000000800ad160                DBL_800AD160
                0x00000000800ad178                DBL_800AD178
                0x00000000800ad180                DBL_800AD180
                0x00000000800ad188                DBL_800AD188
 build/src/main_segment/screen_print/printf_impl.o(.rodata)
 .rodata        0x00000000800ad190      0x150 build/src/main_segment/screen_print/printf_impl.o
                0x00000000800ad1c0                RO_800AD1C0
                0x00000000800ad1c8                jtbl_800AD1C8
                0x00000000800ad210                jtbl_800AD210
 build/src/main_segment/debug_menu.o(.rodata)
 .rodata        0x00000000800ad2e0      0x858 build/src/main_segment/debug_menu.o
 build/src/main_segment/tex_func.o(.rodata)
 *fill*         0x00000000800adb38        0x8 
 .rodata        0x00000000800adb40       0xd0 build/src/main_segment/tex_func.o
                0x00000000800adb40                _modes_96
                0x00000000800adb88                DBL_800ADB88
                0x00000000800adb90                DBL_800ADB90
                0x00000000800adba0                DBL_800ADBA0
                0x00000000800adba8                DBL_800ADBA8
                0x00000000800adbb0                DBL_800ADBB0
                0x00000000800adbb8                DBL_800ADBB8
                0x00000000800adbc0                RO_800ADBC0
 build/src/main_segment/main_menu.o(.rodata)
 .rodata        0x00000000800adc10     0x3d40 build/src/main_segment/main_menu.o
                0x00000000800adc50                color_251
                0x00000000800adc60                fade_normal_texture_init_dl
                0x00000000800adc78                fade_alpha_texture_init_dl
                0x00000000800adc90                fade_intensity_texture_init_dl
                0x00000000800adcb8                fade_fillrect_init_dl
                0x00000000800adce0                fade_shadow_texture_init_dl
                0x00000000800add00                FLT_800ADD00
                0x00000000800add3c                _timeAttack_levelTable
                0x00000000800add40                _mesP1
                0x00000000800add60                _mes2P
                0x00000000800add80                _mes4P
                0x00000000800addbc                _mesOpt
                0x00000000800addf0                _mesSt
                0x00000000800adf2c                _mesLv
                0x00000000800ae070                _mesVsCom
                0x00000000800ae1d8                _mesVcFlash
                0x00000000800ae33c                _mesLvTaiQ
                0x00000000800ae4c8                _mesLvTimeAt
                0x00000000800ae5e8                _mesNs1
                0x00000000800ae650                _mesNs2
                0x00000000800ae66c                _mesVsMan
                0x00000000800ae794                _mesVmFlash
                0x00000000800ae898                _mesVmTimeAt
                0x00000000800ae9b8                _mesVsNum
                0x00000000800ae9cc                _mesVs4P
                0x00000000800aeb3c                _mes4PTag
                0x00000000800aed50                _mes4PFlash
                0x00000000800aeea4                _mesRec
                0x00000000800aeed0                _mesTutol
                0x00000000800aef04                _mesName
                0x00000000800aef38                _mesVsCnt
                0x00000000800aef74                _mesSnd
                0x00000000800aefe0                _mesBak
                0x00000000800af014                _mesMisc
                0x00000000800af048                _mesRecMs1
                0x00000000800af070                _mesRecMs2
                0x00000000800af09c                _mesRule1
                0x00000000800af0cc                _mesRule2
                0x00000000800af0fc                _mesRule3
                0x00000000800af134                _mesRule4
                0x00000000800af16c                _mesKotu
                0x00000000800af18c                _mesNameSel
                0x00000000800af1bc                _mesNameErase
                0x00000000800af234                _mesNameErase2
                0x00000000800af268                _mesVsCnt2
                0x00000000800af29c                _mesSound
                0x00000000800af2e0                _mesStereo
                0x00000000800af304                _mesMono
                0x00000000800af324                _mesDoErase
                0x00000000800af390                _mesDoErase1
                0x00000000800af3c4                _mesNoCont2
                0x00000000800af3f8                _mesNoCont3
                0x00000000800af42c                _mesNoCont4
                0x00000000800af460                _mesScore
                0x00000000800af498                _mesScoreOnOff
                0x00000000800af4c4                STR_800AF4C4
                0x00000000800af4ec                STR_800AF4EC
                0x00000000800af514                _gameLvItemColor
                0x00000000800af52c                _musicItemColor
                0x00000000800af530                RO_800AF530
                0x00000000800af538                jtbl_800AF538
                0x00000000800af660                _menuCursor_cursor_4_pattern
                0x00000000800af6d8                _color_1040
                0x00000000800af708                _pnts_1106
                0x00000000800af828                jtbl_800AF828
                0x00000000800af84c                _type_1345
                0x00000000800af88c                cap_pos_1442
                0x00000000800afac8                _lvGauge_step
                0x00000000800afad4                _size_1542
                0x00000000800afaec                _type_1543
                0x00000000800afaf8                _yn_1691
                0x00000000800afb18                RO_800AFB18
                0x00000000800afb1c                RO_800AFB1C
                0x00000000800afb38                RO_800AFB38
                0x00000000800afb48                _size_1948
                0x00000000800afb68                _pos_1959
                0x00000000800afb90                _seq_2327
                0x00000000800afbb0                RO_800AFBB0
                0x00000000800afbd8                RO_800AFBD8
                0x00000000800afbe0                RO_800AFBE0
                0x00000000800afbec                _posDesc_2860
                0x00000000800afc14                _posLine_2861
                0x00000000800afc1c                _line_2914
                0x00000000800afc20                RO_800AFC20
                0x00000000800afc24                _panel_3220
                0x00000000800afc40                _texEndOrGuest_3608
                0x00000000800afc48                RO_800AFC48
                0x00000000800afc4c                _panel_3859
                0x00000000800afc5c                _pos_4015
                0x00000000800afc64                _y_4020
                0x00000000800afc74                RO_800AFC74
                0x00000000800afcdc                _panel_4108
                0x00000000800afcec                _lvNumScale_4308
                0x00000000800afcfc                _player_4309
                0x00000000800afd0c                _lvNum_4310
                0x00000000800afd1c                _lvGauge_4311
                0x00000000800afd2c                _speedAsk_4312
                0x00000000800afd3c                _speedItem_4313
                0x00000000800afd4c                _glvAsk_4314
                0x00000000800afd5c                _glvItem_4315
                0x00000000800afd6c                _okY_4316
                0x00000000800afd74                _cursor_4317
                0x00000000800afdb8                jtbl_800AFDB8
                0x00000000800afe2c                _charTbl_4601
                0x00000000800afe68                _type_4602
                0x00000000800afea8                _texPanelP4_4617
                0x00000000800afeb0                _texPanelP2_4618
                0x00000000800afeb8                RO_800AFEB8
                0x00000000800afecc                _bgCursor_4920
                0x00000000800afedc                _cursor_4921
                0x00000000800b0028                _root_5339
                0x00000000800b0038                _play1_5340
                0x00000000800b0050                _play2_5341
                0x00000000800b005c                _play4_5342
                0x00000000800b006c                _play4type_5343
                0x00000000800b0078                _option_5344
                0x00000000800b008c                _recMs_5345
                0x00000000800b0094                _recMs1_5346
                0x00000000800b00ac                _recMs2_5347
                0x00000000800b00b8                _tutorial_5348
                0x00000000800b00cc                _count_5349
                0x00000000800b00d8                _backup_5350
                0x00000000800b00e0                _misc_5351
                0x00000000800b00ec                _score_5352
                0x00000000800b0310                RO_800B0310
                0x00000000800b0320                RO_800B0320
                0x00000000800b0338                RO_800B0338
                0x00000000800b0350                RO_800B0350
                0x00000000800b035c                RO_800B035C
                0x00000000800b0360                RO_800B0360
                0x00000000800b0364                RO_800B0364
                0x00000000800b0378                RO_800B0378
                0x00000000800b037c                RO_800B037C
                0x00000000800b0380                RO_800B0380
                0x00000000800b039c                RO_800B039C
                0x00000000800b03a0                RO_800B03A0
                0x00000000800b03a4                RO_800B03A4
                0x00000000800b03c0                RO_800B03C0
                0x00000000800b03c4                RO_800B03C4
                0x00000000800b03d8                RO_800B03D8
                0x00000000800b03ec                RO_800B03EC
                0x00000000800b03f8                RO_800B03F8
                0x00000000800b0404                RO_800B0404
                0x00000000800b0410                RO_800B0410
                0x00000000800b041c                RO_800B041C
                0x00000000800b0424                RO_800B0424
                0x00000000800b043c                RO_800B043C
                0x00000000800b0448                RO_800B0448
                0x00000000800b0450                jtbl_800B0450
                0x00000000800b0470                jtbl_800B0470
                0x00000000800b0588                jtbl_800B0588
                0x00000000800b06b0                jtbl_800B06B0
                0x00000000800b06f8                jtbl_800B06F8
                0x00000000800b07e8                jtbl_800B07E8
                0x00000000800b08d8                jtbl_800B08D8
                0x00000000800b0940                _pat_6137
                0x00000000800b0958                DBL_800B0958
                0x00000000800b0960                DBL_800B0960
                0x00000000800b0968                _pos_6413
                0x00000000800b09f8                _posChar_6445
                0x00000000800b0a08                _posBgCursor_6446
                0x00000000800b0a18                _cursor_6447
                0x00000000800b0a48                DBL_800B0A48
                0x00000000800b0a50                RO_800B0A50
                0x00000000800b0a5c                RO_800B0A5C
                0x00000000800b0a6c                RO_800B0A6C
                0x00000000800b0a7c                RO_800B0A7C
                0x00000000800b0b0c                RO_800B0B0C
                0x00000000800b0b14                _cursor_7325
                0x00000000800b0b50                _pos_7882
                0x00000000800b0b70                jtbl_800B0B70
                0x00000000800b0be8                jtbl_800B0BE8
                0x00000000800b0c5c                _charTbl_8108
                0x00000000800b0d84                RO_800B0D84
                0x00000000800b0d94                _tex_8297
                0x00000000800b0d9c                _pos_8298
                0x00000000800b0dac                _moveTbl_8521
                0x00000000800b0db4                _onaji_8534
                0x00000000800b0dc4                _panel2_8535
                0x00000000800b0dd4                _panel4_8536
                0x00000000800b0e70                jtbl_800B0E70
                0x00000000800b0ee8                jtbl_800B0EE8
                0x00000000800b0f5c                RO_800B0F5C
                0x00000000800b1070                jtbl_800B1070
                0x00000000800b1168                RO_800B1168
                0x00000000800b1180                DBL_800B1180
                0x00000000800b1188                jtbl_800B1188
                0x00000000800b11a4                _posX_0_9712
                0x00000000800b11cc                _posX_1_9713
                0x00000000800b11e0                _posX_2_9714
                0x00000000800b11f8                _posX_4_9715
                0x00000000800b1210                RO_800B1210
                0x00000000800b1218                DBL_800B1218
                0x00000000800b1220                RO_800B1220
                0x00000000800b1230                RO_800B1230
                0x00000000800b123c                RO_800B123C
                0x00000000800b1288                DBL_800B1288
                0x00000000800b1290                RO_800B1290
                0x00000000800b1298                RO_800B1298
                0x00000000800b12a8                RO_800B12A8
                0x00000000800b12b8                RO_800B12B8
                0x00000000800b12c8                RO_800B12C8
                0x00000000800b12d8                RO_800B12D8
                0x00000000800b12e4                RO_800B12E4
                0x00000000800b12f0                RO_800B12F0
                0x00000000800b12fc                RO_800B12FC
                0x00000000800b1308                RO_800B1308
                0x00000000800b1314                RO_800B1314
                0x00000000800b1320                RO_800B1320
                0x00000000800b1330                RO_800B1330
                0x00000000800b1340                RO_800B1340
                0x00000000800b1350                RO_800B1350
                0x00000000800b1360                RO_800B1360
                0x00000000800b1370                RO_800B1370
                0x00000000800b1380                jtbl_800B1380
                0x00000000800b13a8                jtbl_800B13A8
                0x00000000800b13d0                jtbl_800B13D0
                0x00000000800b13f8                _lr_10544
                0x00000000800b1430                RO_800B1430
                0x00000000800b1438                _dir_10660
 build/src/main_segment/font.o(.rodata)
 .rodata        0x00000000800b1950       0x40 build/src/main_segment/font.o
                0x00000000800b1950                init_dl_135
 build/src/main_segment/msgwnd.o(.rodata)
 .rodata        0x00000000800b1990       0xd0 build/src/main_segment/msgwnd.o
                0x00000000800b1990                sMessageColorTable
                0x00000000800b1a54                STR_800B1A54
                0x00000000800b1a58                DBL_800B1A58
 build/src/main_segment/char_anime.o(.rodata)
 .rodata        0x00000000800b1a60      0x140 build/src/main_segment/char_anime.o
                0x00000000800b1a60                _size_122
                0x00000000800b1ab0                _addrTbl_124
                0x00000000800b1b00                _centerTbl_125
 build/src/main_segment/dm_virus_init.o(.rodata)
 .rodata        0x00000000800b1ba0       0x90 build/src/main_segment/dm_virus_init.o
                0x00000000800b1ba0                RO_800B1BA0
                0x00000000800b1bc8                _n_343
                0x00000000800b1bcc                RO_800B1BCC
                0x00000000800b1bd0                RO_800B1BD0
                0x00000000800b1c10                jtbl_800B1C10
 build/src/main_segment/dm_game_main.o(.rodata)
 .rodata        0x00000000800b1c30      0x7d0 build/src/main_segment/dm_game_main.o
                0x00000000800b1c4c                RO_800B1C4C
                0x00000000800b1c5c                RO_800B1C5C
                0x00000000800b1c74                RO_800B1C74
                0x00000000800b1c78                _retryMenu_itemCount
                0x00000000800b1c80                _big_virus_def_wait
                0x00000000800b1c8c                _big_virus_min_wait
                0x00000000800b1c98                RO_800B1C98
                0x00000000800b1ca4                RO_800B1CA4
                0x00000000800b1cb8                _mesWriting
                0x00000000800b1ce0                STR_800B1CE0
                0x00000000800b1d08                RO_800B1D08
                0x00000000800b1d18                RO_800B1D18
                0x00000000800b1d28                RO_800B1D28
                0x00000000800b1d2c                RO_800B1D2C
                0x00000000800b1d5c                RO_800B1D5C
                0x00000000800b1d60                RO_800B1D60
                0x00000000800b1d7c                RO_800B1D7C
                0x00000000800b1d80                RO_800B1D80
                0x00000000800b1d84                RO_800B1D84
                0x00000000800b1da4                _posP4TeamStarX
                0x00000000800b1dec                _posP4CharStarX
                0x00000000800b1e7c                RO_800B1E7C
                0x00000000800b1e8c                RO_800B1E8C
                0x00000000800b1e9c                RO_800B1E9C
                0x00000000800b1eb8                RO_800B1EB8
                0x00000000800b1ec0                RO_800B1EC0
                0x00000000800b1ecc                RO_800B1ECC
                0x00000000800b1ee8                DBL_800B1EE8
                0x00000000800b1ef0                jtbl_800B1EF0
                0x00000000800b1f68                DBL_800B1F68
                0x00000000800b1f70                jtbl_800B1F70
                0x00000000800b1ff0                jtbl_800B1FF0
                0x00000000800b2008                jtbl_800B2008
                0x00000000800b2020                RO_800B2020
                0x00000000800b202c                RO_800B202C
                0x00000000800b2030                DBL_800B2030
                0x00000000800b2038                DBL_800B2038
                0x00000000800b2040                DBL_800B2040
                0x00000000800b2048                DBL_800B2048
                0x00000000800b2050                jtbl_800B2050
                0x00000000800b2068                RO_800B2068
                0x00000000800b2070                cap_pal_4164
                0x00000000800b20a0                DBL_800B20A0
                0x00000000800b20a8                DBL_800B20A8
                0x00000000800b20b0                DBL_800B20B0
                0x00000000800b20b8                DBL_800B20B8
                0x00000000800b20c0                DBL_800B20C0
                0x00000000800b20c8                DBL_800B20C8
                0x00000000800b20d0                RO_800B20D0
                0x00000000800b20e0                RO_800B20E0
                0x00000000800b20ec                RO_800B20EC
                0x00000000800b20f8                RO_800B20F8
                0x00000000800b2104                RO_800B2104
                0x00000000800b2108                RO_800B2108
                0x00000000800b210c                RO_800B210C
                0x00000000800b2114                RO_800B2114
                0x00000000800b211c                RO_800B211C
                0x00000000800b2120                RO_800B2120
                0x00000000800b2134                RO_800B2134
                0x00000000800b2138                RO_800B2138
                0x00000000800b2148                DBL_800B2148
                0x00000000800b2150                DBL_800B2150
                0x00000000800b2158                DBL_800B2158
                0x00000000800b2160                RO_800B2160
                0x00000000800b2168                RO_800B2168
                0x00000000800b2170                RO_800B2170
                0x00000000800b2178                RO_800B2178
                0x00000000800b2180                RO_800B2180
                0x00000000800b2184                RO_800B2184
                0x00000000800b2188                RO_800B2188
                0x00000000800b218c                RO_800B218C
                0x00000000800b21d0                RO_800B21D0
                0x00000000800b21e8                DBL_800B21E8
                0x00000000800b21f0                DBL_800B21F0
                0x00000000800b21f8                jtbl_800B21F8
                0x00000000800b2250                jtbl_800B2250
                0x00000000800b2294                map_x_table_5383
                0x00000000800b22ac                map_y_table_5384
                0x00000000800b22b0                size_table_5385
                0x00000000800b2314                RO_800B2314
                0x00000000800b2330                RO_800B2330
                0x00000000800b233c                RO_800B233C
                0x00000000800b2340                RO_800B2340
                0x00000000800b2344                RO_800B2344
                0x00000000800b2348                RO_800B2348
                0x00000000800b2354                RO_800B2354
                0x00000000800b2358                RO_800B2358
                0x00000000800b2368                jtbl_800B2368
                0x00000000800b2388                jtbl_800B2388
                0x00000000800b23c4                RO_800B23C4
                0x00000000800b23cc                RO_800B23CC
                0x00000000800b23d4                RO_800B23D4
                0x00000000800b23e0                jtbl_800B23E0
 build/src/main_segment/dm_manual_main.o(.rodata)
 .rodata        0x00000000800b2400      0xe40 build/src/main_segment/dm_manual_main.o
                0x00000000800b2408                RO_800B2408
                0x00000000800b2410                RO_800B2410
                0x00000000800b2418                RO_800B2418
                0x00000000800b2420                RO_800B2420
                0x00000000800b2428                RO_800B2428
                0x00000000800b2430                RO_800B2430
                0x00000000800b2438                RO_800B2438
                0x00000000800b2440                RO_800B2440
                0x00000000800b2448                virus_1_1
                0x00000000800b246c                RO_800B246C
                0x00000000800b2474                RO_800B2474
                0x00000000800b247c                position_1_1
                0x00000000800b248c                virus_2_1
                0x00000000800b24c8                capsel_2_1
                0x00000000800b24d4                position_2_1
                0x00000000800b24fc                virus_3_1
                0x00000000800b2538                capsel_3_1
                0x00000000800b2544                position_3_1
                0x00000000800b256c                virus_4_1
                0x00000000800b259c                capsel_4_1
                0x00000000800b25b0                position_4_1
                0x00000000800b25f0                mes_1_1
                0x00000000800b2618                mes_1_2
                0x00000000800b2664                mes_1_3
                0x00000000800b26b4                mes_1_4
                0x00000000800b26ec                mes_1_5
                0x00000000800b2738                mes_1_6
                0x00000000800b2780                mes_1_7
                0x00000000800b27d4                mes_1_8
                0x00000000800b2808                mes_2_1
                0x00000000800b284c                mes_2_2
                0x00000000800b2894                mes_2_3
                0x00000000800b28dc                mes_2_4
                0x00000000800b2914                mes_2_5
                0x00000000800b2958                mes_2_6
                0x00000000800b2994                mes_2_7
                0x00000000800b29e0                mes_2_8
                0x00000000800b2a20                mes_2_9
                0x00000000800b2a54                mes_3_1
                0x00000000800b2a98                mes_3_2
                0x00000000800b2adc                mes_3_3
                0x00000000800b2b24                mes_3_4
                0x00000000800b2b58                mes_3_5
                0x00000000800b2ba8                mes_3_6
                0x00000000800b2bf4                mes_3_7
                0x00000000800b2c44                mes_3_8
                0x00000000800b2c90                mes_3_9
                0x00000000800b2cdc                mes_3_10
                0x00000000800b2d28                mes_3_11
                0x00000000800b2d60                mes_3_12
                0x00000000800b2d90                mes_3_13
                0x00000000800b2dd8                mes_3_14
                0x00000000800b2e24                mes_3_15
                0x00000000800b2e58                mes_4_1
                0x00000000800b2e90                mes_4_2
                0x00000000800b2ed4                mes_4_3
                0x00000000800b2f20                mes_4_4
                0x00000000800b2f60                mes_4_5
                0x00000000800b2fac                mes_4_6
                0x00000000800b2fe4                mes_4_7
                0x00000000800b302c                mes_4_8
                0x00000000800b3054                mes_4_9
                0x00000000800b3078                mes_4_10
                0x00000000800b30f0                jtbl_800B30F0
                0x00000000800b3130                _tex_884
                0x00000000800b3140                _pos_885
                0x00000000800b3150                RO_800B3150
                0x00000000800b3168                DBL_800B3168
                0x00000000800b3170                DBL_800B3170
                0x00000000800b3178                _posContPanel
                0x00000000800b3180                _posCircle_924
                0x00000000800b31a0                _posFinger_925
                0x00000000800b31c0                map_x_table_1036
                0x00000000800b31d8                _seqTbl_1037
                0x00000000800b31dc                map_y_table_1038
                0x00000000800b31e0                size_table_1039
 build/src/main_segment/dm_title_main.o(.rodata)
 .rodata        0x00000000800b3240      0x120 build/src/main_segment/dm_title_main.o
                0x00000000800b3240                _stageTbl
                0x00000000800b3270                STR_800B32A8
                0x00000000800b32a8                _mesBootContErr
                0x00000000800b3318                _mesBootCSumErr
 build/src/main_segment/main_story.o(.rodata)
 .rodata        0x00000000800b3360       0xf0 build/src/main_segment/main_story.o
                0x00000000800b3360                DBL_800B3360
                0x00000000800b3368                DBL_800B3368
                0x00000000800b3370                DBL_800B3370
                0x00000000800b3378                DBL_800B3378
                0x00000000800b3380                DBL_800B3380
                0x00000000800b3388                DBL_800B3388
                0x00000000800b3390                DBL_800B3390
                0x00000000800b3398                DBL_800B3398
                0x00000000800b33a0                DBL_800B33A0
                0x00000000800b33a8                DBL_800B33A8
                0x00000000800b33b0                DBL_800B33B0
                0x00000000800b33b8                DBL_800B33B8
                0x00000000800b33d8                jtbl_800B33D8
 build/src/main_segment/lws.o(.rodata)
 .rodata        0x00000000800b3450       0x50 build/src/main_segment/lws.o
                0x00000000800b3450                DBL_800B3450
                0x00000000800b3458                DBL_800B3458
                0x00000000800b3460                DBL_800B3460
                0x00000000800b3468                DBL_800B3468
                0x00000000800b3470                DBL_800B3470
                0x00000000800b3478                DBL_800B3478
                0x00000000800b3480                DBL_800B3480
                0x00000000800b3488                DBL_800B3488
                0x00000000800b3490                DBL_800B3490
                0x00000000800b3498                DBL_800B3498
 build/src/main_segment/calc.o(.rodata)
 .rodata        0x00000000800b34a0       0x50 build/src/main_segment/calc.o
                0x00000000800b34d8                DBL_800B34D8
                0x00000000800b34e0                DBL_800B34E0
                0x00000000800b34e8                DBL_800B34E8
 build/src/main_segment/065080.o(.rodata)
 .rodata        0x00000000800b34f0       0x60 build/src/main_segment/065080.o
                0x00000000800b34f0                DBL_800B34F0
                0x00000000800b34f8                DBL_800B34F8
                0x00000000800b3500                DBL_800B3500
                0x00000000800b3508                DBL_800B3508
                0x00000000800b3510                DBL_800B3510
                0x00000000800b3518                DBL_800B3518
                0x00000000800b3520                DBL_800B3520
                0x00000000800b3528                DBL_800B3528
                0x00000000800b3530                DBL_800B3530
                0x00000000800b3538                DBL_800B3538
                0x00000000800b3540                DBL_800B3540
                0x00000000800b3548                DBL_800B3548
 build/asm/us/data/libmus/player.rodata.o(.rodata)
 .rodata        0x00000000800b3550       0xe0 build/asm/us/data/libmus/player.rodata.o
                0x00000000800b3550                DBL_800B3550
                0x00000000800b3558                DBL_800B3558
                0x00000000800b3560                DBL_800B3560
                0x00000000800b3568                DBL_800B3568
                0x00000000800b3570                DBL_800B3570
                0x00000000800b3578                DBL_800B3578
                0x00000000800b3580                DBL_800B3580
                0x00000000800b3588                DBL_800B3588
                0x00000000800b3590                DBL_800B3590
                0x00000000800b3598                DBL_800B3598
                0x00000000800b35a0                DBL_800B35A0
                0x00000000800b35a8                DBL_800B35A8
                0x00000000800b35b0                DBL_800B35B0
                0x00000000800b35b8                DBL_800B35B8
                0x00000000800b35c0                DBL_800B35C0
                0x00000000800b35c8                DBL_800B35C8
                0x00000000800b35d0                DBL_800B35D0
                0x00000000800b35d8                DBL_800B35D8
                0x00000000800b35e0                DBL_800B35E0
                0x00000000800b35e8                DBL_800B35E8
                0x00000000800b35f0                DBL_800B35F0
                0x00000000800b35f8                DBL_800B35F8
                0x00000000800b3600                DBL_800B3600
                0x00000000800b3608                DBL_800B3608
                0x00000000800b3610                DBL_800B3610
                0x00000000800b3618                DBL_800B3618
                0x00000000800b3620                DBL_800B3620
 build/lib/libmus/src/player_fx.o(.rodata)
 .rodata        0x00000000800b3630       0x10 build/lib/libmus/src/player_fx.o
                0x00000000800b3640                main_segment_RODATA_END = .
                0x0000000000007700                main_segment_RODATA_SIZE = ABSOLUTE ((main_segment_RODATA_END - main_segment_RODATA_START))
                0x00000000800b3640                main_segment_bss_VRAM = ADDR (.main_segment_bss)

.main_segment_bss
                0x00000000800b3640    0x70fd0 load address 0x000000000009b460
                0x00000000800b3640                main_segment_BSS_START = .
 build/asm/us/data/main_segment/800B3640.bss.o(.bss)
 .bss           0x00000000800b3640    0x31d80 build/asm/us/data/main_segment/800B3640.bss.o
                0x00000000800b3640                B_800B3640
                0x00000000800e4640                mt
                0x00000000800e5000                pGameState
                0x00000000800e5008                B_800E5008
                0x00000000800e5198                delpos_cnt
                0x00000000800e519c                B_800E519C
                0x00000000800e51a0                last_flash
                0x00000000800e51b0                _cache_1333
                0x00000000800e53b0                B_800E53B0
 build/asm/us/data/main_segment/game_etc.bss.o(.bss)
 .bss           0x00000000800e53c0      0x4a0 build/asm/us/data/main_segment/game_etc.bss.o
                0x00000000800e53c0                binCount
                0x00000000800e53c4                cont_bg_flg
                0x00000000800e53c8                etcTexAddress
                0x00000000800e53cc                etcLwsAddress
                0x00000000800e53d0                etcLwsTbl
                0x00000000800e5410                logo_ofsY
                0x00000000800e5414                etc_mode
                0x00000000800e5418                g_etc_work
                0x00000000800e57d8                D_800E57D8
                0x00000000800e5818                etc_viewMtx
                0x00000000800e5858                D_800E5858
 build/src/main_segment/screen_print/printf_impl.o(.bss)
 .bss           0x00000000800e5860       0x30 build/src/main_segment/screen_print/printf_impl.o
 build/asm/us/data/main_segment/800E5890.bss.o(.bss)
 .bss           0x00000000800e5890     0x4130 build/asm/us/data/main_segment/800E5890.bss.o
                0x00000000800e5890                sPrinterState
                0x00000000800e58a2                D_800E58A2
                0x00000000800e58b0                B_800E58B0
                0x00000000800e58b4                B_800E58B4
                0x00000000800e58b8                B_800E58B8
                0x00000000800e58bc                B_800E58BC
                0x00000000800e58be                B_800E58BE
                0x00000000800e58c0                B_800E58C0
                0x00000000800e5910                B_800E5910
                0x00000000800e5914                B_800E5914
                0x00000000800e5918                B_800E5918
                0x00000000800e591c                B_800E591C
                0x00000000800e5920                B_800E5920
                0x00000000800e5924                B_800E5924
                0x00000000800e5928                B_800E5928
                0x00000000800e592c                B_800E592C
                0x00000000800e5930                B_800E5930
                0x00000000800e5934                B_800E5934
                0x00000000800e5938                B_800E5938
                0x00000000800e5968                B_800E5968
                0x00000000800e596a                D_800E596A
                0x00000000800e596c                B_800E596C
                0x00000000800e5970                B_800E5970
                0x00000000800e5980                heapTop
                0x00000000800e5984                D_800E5984
                0x00000000800e5990                _texAll
                0x00000000800e5994                _texKaSa
                0x00000000800e59a0                title_mode_type
                0x00000000800e59a4                title_fade_count
                0x00000000800e59a8                title_fade_step
                0x00000000800e59b0                B_800E59B0
                0x00000000800e59b4                B_800E59B4
                0x00000000800e59b8                fin_frame_543
                0x00000000800e59bc                B_800E59BC
                0x00000000800e59c0                B_800E59C0
                0x00000000800e59c4                fin_frame_623
                0x00000000800e59c8                fin_demo_624
                0x00000000800e59cc                fin_frame_667
                0x00000000800e59d0                fin_frame_737
                0x00000000800e59d4                fin_frame_768
                0x00000000800e59d8                title_time
                0x00000000800e59dc                title_wait
                0x00000000800e59e0                title_data
                0x00000000800e59e4                title_bmp_data
                0x00000000800e59e8                lws_data
                0x00000000800e59ec                lws_scene
                0x00000000800e59f0                mess_st
                0x00000000800e5a70                mess_roll_st
                0x00000000800e5af0                B_800E5AF0
                0x00000000800e5ef0                mess_roll_heap
                0x00000000800e5ef4                st_message_count
                0x00000000800e5ef8                st_mes_ptr
                0x00000000800e5efc                loop_flg
                0x00000000800e5f00                story_staff_roll
                0x00000000800e5f04                story_norm
                0x00000000800e5f08                story_viewMtx
                0x00000000800e5f48                D_800E5F48
                0x00000000800e5f50                story_objectMtx
                0x00000000800e8750                wakuGraphic
                0x00000000800e87a8                bgGraphic
                0x00000000800e87ac                storyGraphic
                0x00000000800e87b0                messageData
                0x00000000800e87b4                first_copy
                0x00000000800e87c0                B_800E87C0
                0x00000000800e97c0                randomindex
                0x00000000800e97c8                randomtable
                0x00000000800e98a4                D_800E98A4
                0x00000000800e98b0                rec_buff
                0x00000000800e98b4                D_800E98B4
                0x00000000800e98b8                pRecBuff
                0x00000000800e98c8                oldCont
                0x00000000800e98d0                RecPos
                0x00000000800e98e0                PlayPos
                0x00000000800e98f0                WaitTime
                0x00000000800e9900                max_rec
                0x00000000800e9904                replay_player
                0x00000000800e9908                D_800E9908
                0x00000000800e9910                B_800E9910
                0x00000000800e9914                B_800E9914
                0x00000000800e9918                B_800E9918
                0x00000000800e9924                B_800E9924
                0x00000000800e9928                B_800E9928
                0x00000000800e992c                B_800E992C
                0x00000000800e9930                B_800E9930
                0x00000000800e9934                B_800E9934
                0x00000000800e9938                B_800E9938
                0x00000000800e993c                B_800E993C
                0x00000000800e993e                B_800E993E
                0x00000000800e9940                B_800E9940
                0x00000000800e9944                B_800E9944
                0x00000000800e9948                B_800E9948
                0x00000000800e994c                B_800E994C
                0x00000000800e9950                B_800E9950
                0x00000000800e9954                B_800E9954
                0x00000000800e9958                B_800E9958
                0x00000000800e995c                B_800E995C
                0x00000000800e9960                B_800E9960
                0x00000000800e9964                B_800E9964
                0x00000000800e9968                B_800E9968
                0x00000000800e996c                B_800E996C
                0x00000000800e9970                B_800E9970
                0x00000000800e9980                B_800E9980
                0x00000000800e9984                B_800E9984
                0x00000000800e9988                B_800E9988
                0x00000000800e998c                B_800E998C
                0x00000000800e9990                B_800E9990
                0x00000000800e9994                B_800E9994
                0x00000000800e9998                B_800E9998
                0x00000000800e99a0                B_800E99A0
                0x00000000800e99b8                B_800E99B8
 build/asm/us/data/libmus/aud_sched.bss.o(.bss)
 .bss           0x00000000800e99c0       0x10 build/asm/us/data/libmus/aud_sched.bss.o
                0x00000000800e99c0                audio_sched
                0x00000000800e99c4                sched_mem
 build/asm/us/data/main_segment/800E99D0.bss.o(.bss)
 .bss           0x00000000800e99d0      0x1d0 build/asm/us/data/main_segment/800E99D0.bss.o
                0x00000000800e99d0                B_800E99D0
                0x00000000800e9b80                B_800E9B80
                0x00000000800e9b84                B_800E9B84
                0x00000000800e9b88                B_800E9B88
                0x00000000800e9b90                B_800E9B90
                0x00000000800e9b94                B_800E9B94
 build/asm/us/data/libmus/aud_samples.bss.o(.bss)
 .bss           0x00000000800e9ba0       0x10 build/asm/us/data/libmus/aud_samples.bss.o
                0x00000000800e9ba0                frame_samples
                0x00000000800e9ba4                frame_samples_min
                0x00000000800e9ba8                frame_samples_max
                0x00000000800e9bac                extra_samples
 build/asm/us/data/main_segment/800E9BB0.bss.o(.bss)
 .bss           0x00000000800e9bb0     0xf0e0 build/asm/us/data/main_segment/800E9BB0.bss.o
                0x00000000800e9bb0                aiRootP
                0x00000000800e9bb4                B_800E9BB4
                0x00000000800e9bb6                B_800E9BB6
                0x00000000800e9bc0                ai_char_data
                0x00000000800ea0d0                B_800EA0D0
                0x00000000800ea280                success
                0x00000000800ea281                D_800EA281
                0x00000000800ea284                attack_sprite_idx
                0x00000000800ea290                B_800EA290
                0x00000000800eb4d4                D_800EB4D4
                0x00000000800eb4d8                B_800EB4D8
                0x00000000800eb4f0                main_old
                0x00000000800eb4f4                _menuMain_lastDepth
                0x00000000800eb4f8                aiRecurData
                0x00000000800eb660                B_800EB660
                0x00000000800eb670                B_800EB670
                0x00000000800ebcf0                main_no
                0x00000000800ebcf4                gGfxHead
                0x00000000800ebcf8                gControllerHoldButtons
                0x00000000800ebd02                B_800EBD02
                0x00000000800ebd03                B_800EBD03
                0x00000000800ebd04                B_800EBD04
                0x00000000800ebd05                B_800EBD05
                0x00000000800ebd07                B_800EBD07
                0x00000000800ebd0b                B_800EBD0B
                0x00000000800ebd10                PlayTime
                0x00000000800ebd14                aiNext
                0x00000000800ebd16                main_joy
                0x00000000800ebd1a                D_800EBD1A
                0x00000000800ebd20                sGraphicThread
                0x00000000800ebed0                B_800EBED0
                0x00000000800ebef0                game_map_data
                0x00000000800ed430                B_800ED430
                0x00000000800ed440                B_800ED440
                0x00000000800ef440                gameBackup
                0x00000000800ef448                CapsMagazine
                0x00000000800ef548                attack_effect_idx
                0x00000000800ef54c                diskrom_handle
                0x00000000800ef550                fool_mode
                0x00000000800ef554                joycur1
                0x00000000800ef556                decide
                0x00000000800ef560                evs_mem_data
                0x00000000800efcb0                _menuMain_lastSelect
                0x00000000800efcd0                evs_gamesel
                0x00000000800efce0                B_800EFCE0
                0x00000000800f1ce0                evs_playmax
                0x00000000800f1ce8                aiFieldData
                0x00000000800f1df8                pObjectMtx
                0x00000000800f1e00                evs_default_name
                0x00000000800f1e20                joycur2
                0x00000000800f1e30                sGraphicStack
                0x00000000800f3e30                aiHiErB
                0x00000000800f3e32                B_800F3E32
                0x00000000800f3e34                aiRollFinal
                0x00000000800f3e38                B_800F3E38
                0x00000000800f3e50                watchGame
                0x00000000800f3e54                aiFlagCnt
                0x00000000800f3e56                aiGoalX
                0x00000000800f3e58                D_800F3E58
                0x00000000800f3e5c                watchMenu
                0x00000000800f3e60                B_800F3E60
                0x00000000800f3e64                gControllerPrevHoldButtons
                0x00000000800f3e6e                B_800F3E6E
                0x00000000800f3e6f                B_800F3E6F
                0x00000000800f3e70                B_800F3E70
                0x00000000800f3e71                B_800F3E71
                0x00000000800f3e73                B_800F3E73
                0x00000000800f3e77                B_800F3E77
                0x00000000800f3e78                link_joy
                0x00000000800f3e7c                aiHiErY
                0x00000000800f3e90                attack_sprite
                0x00000000800f4890                watchManual
                0x00000000800f4894                aiRootCnt
                0x00000000800f4895                D_800F4895
                0x00000000800f4898                B_800F4898
                0x00000000800f48b0                B_800F48B0
                0x00000000800f48b8                joygam
                0x00000000800f48c0                gameGeom
                0x00000000800f48c4                joycur
                0x00000000800f48ce                D_800F48CE
                0x00000000800f48d0                ai_param
                0x00000000800f5350                MissRate
                0x00000000800f5358                B_800F5358
                0x00000000800f5370                aiFlag
                0x00000000800f6c70                aiRoot
                0x00000000800f6cd4                __muscontrol_flag
                0x00000000800f6cd8                joyflg
                0x00000000800f6ce0                B_800F6CE0
                0x00000000800f6cf0                virus_map_data
                0x00000000800f72f0                virus_map_disp_order
                0x00000000800f7470                evs_cfg_4p
                0x00000000800f7486                D_800F7486
                0x00000000800f7488                s_hard_mode
                0x00000000800f748c                attack_sprite_address
                0x00000000800f7490                B_800F7490
                0x00000000800f8090                D_800F8090
 build/asm/us/data/libmus/aud_thread.bss.o(.bss)
 .bss           0x00000000800f8c90       0x50 build/asm/us/data/libmus/aud_thread.bss.o
                0x00000000800f8c90                __libmus_alglobals
                0x00000000800f8cdc                D_800F8CDC
 build/asm/us/data/main_segment/800F8CE0.bss.o(.bss)
 .bss           0x00000000800f8ce0    0x2b930 build/asm/us/data/main_segment/800F8CE0.bss.o
                0x00000000800f8ce0                B_800F8CE0
                0x00000000800face0                sound_song_id
                0x00000000800fad28                aiHiErR
                0x00000000800fad2c                gfx_gtask_no
                0x00000000800fad30                B_800FAD30
                0x00000000800fad31                joygmf
                0x00000000800fad36                aiGoalY
                0x00000000800fad38                aipn
                0x00000000800fad39                D_800FAD39
                0x00000000800fad40                aif_field
                0x00000000800fae50                gReverbFx
                0x00000000800fae60                B_800FAE60
                0x00000000800fae64                B_800FAE64
                0x00000000800fae68                B_800FAE68
                0x00000000800fae6c                B_800FAE6C
                0x00000000800fae70                B_800FAE70
                0x00000000800fae74                B_800FAE74
                0x00000000800fae78                evs_select_name_no
                0x00000000800fae7a                D_800FAE7A
                0x00000000800fae80                B_800FAE80
                0x00000000800faf88                gControllerPressedButtons
                0x00000000800faf92                aiSelSpeed
                0x00000000800faf94                B_800FAF94
                0x00000000800faf98                gAudio_800FAF98
                0x00000000800faf9c                aiHiEraseCtr
                0x00000000800fafa0                B_800FAFA0
                0x00000000800fb3a0                aiMoveSF
                0x00000000800fb3a4                evs_game_time
                0x00000000800fb3a8                attack_effect
                0x00000000800fb668                D_800FB668
                0x00000000800fb670                gGfxGlist
                0x0000000080113670                joycnt
                0x00000000801136f0                B_801136F0
                0x00000000801236f0                evs_gamemode
                0x0000000080123700                game_state_data
                0x0000000080124610                main_segment_BSS_END = .
                0x0000000000070fd0                main_segment_BSS_SIZE = ABSOLUTE ((main_segment_BSS_END - main_segment_BSS_START))
                0x0000000000646e68                __romPos = (__romPos + SIZEOF (.main_segment))
                0x0000000000646e68                __romPos = ALIGN (__romPos, 0x10)
                0x000000000009b460                main_segment_ROM_END = __romPos
                0x0000000080124610                main_segment_VRAM_END = .
                0x000000000009b460                buffer1_ROM_START = __romPos
                0x0000000080124610                buffer1_VRAM = ADDR (.buffer1)

.buffer1        0x0000000080124610        0x0 load address 0x000000000009b460
                0x0000000080124610                buffer1_TEXT_START = .
 build/src/buffers/buffer1.o(.text)
 .text          0x0000000080124610        0x0 build/src/buffers/buffer1.o
                0x0000000080124610                buffer1_TEXT_END = .
                0x0000000000000000                buffer1_TEXT_SIZE = ABSOLUTE ((buffer1_TEXT_END - buffer1_TEXT_START))
                0x0000000080124610                buffer1_bss_VRAM = ADDR (.buffer1_bss)

.buffer1_bss    0x0000000080124610       0x10 load address 0x000000000009b460
                0x0000000080124610                buffer1_BSS_START = .
 build/src/buffers/buffer1.o(.bss)
 .bss           0x0000000080124610       0x10 build/src/buffers/buffer1.o
                0x0000000080124610                Heap_bufferp
                0x0000000080124620                buffer1_BSS_END = .
                0x0000000000000010                buffer1_BSS_SIZE = ABSOLUTE ((buffer1_BSS_END - buffer1_BSS_START))
                0x0000000000646e68                __romPos = (__romPos + SIZEOF (.buffer1))
                0x0000000000646e68                __romPos = ALIGN (__romPos, 0x10)
                0x000000000009b460                buffer1_ROM_END = __romPos
                0x0000000080124620                buffer1_VRAM_END = .
                0x000000000009b460                buffer2_ROM_START = __romPos
                0x0000000080205000                buffer2_VRAM = ADDR (.buffer2)

.buffer2        0x0000000080205000        0x0 load address 0x000000000009b460
                0x0000000080205000                buffer2_TEXT_START = .
 build/src/buffers/buffer2.o(.text)
 .text          0x0000000080205000        0x0 build/src/buffers/buffer2.o
                0x0000000080205000                buffer2_TEXT_END = .
                0x0000000000000000                buffer2_TEXT_SIZE = ABSOLUTE ((buffer2_TEXT_END - buffer2_TEXT_START))
                0x0000000080205000                buffer2_bss_VRAM = ADDR (.buffer2_bss)

.buffer2_bss    0x0000000080205000       0x10 load address 0x000000000009b460
                0x0000000080205000                buffer2_BSS_START = .
 build/src/buffers/buffer2.o(.bss)
 .bss           0x0000000080205000       0x10 build/src/buffers/buffer2.o
                0x0000000080205000                gfx_freebuf
                0x0000000080205010                buffer2_BSS_END = .
                0x0000000000000010                buffer2_BSS_SIZE = ABSOLUTE ((buffer2_BSS_END - buffer2_BSS_START))
                0x0000000000646e68                __romPos = (__romPos + SIZEOF (.buffer2))
                0x0000000000646e68                __romPos = ALIGN (__romPos, 0x10)
                0x000000000009b460                buffer2_ROM_END = __romPos
                0x0000000080205010                buffer2_VRAM_END = .
                0x000000000009b460                framebuffer_ROM_START = __romPos
                0x00000000803b5000                framebuffer_VRAM = ADDR (.framebuffer)

.framebuffer    0x00000000803b5000        0x0 load address 0x000000000009b460
                0x00000000803b5000                framebuffer_TEXT_START = .
 build/src/buffers/framebuffer.o(.text)
 .text          0x00000000803b5000        0x0 build/src/buffers/framebuffer.o
                0x00000000803b5000                framebuffer_TEXT_END = .
                0x0000000000000000                framebuffer_TEXT_SIZE = ABSOLUTE ((framebuffer_TEXT_END - framebuffer_TEXT_START))
                0x00000000803b5000                framebuffer_bss_VRAM = ADDR (.framebuffer_bss)

.framebuffer_bss
                0x00000000803b5000    0x4b000 load address 0x000000000009b460
                0x00000000803b5000                framebuffer_BSS_START = .
 build/src/buffers/framebuffer.o(.bss)
 .bss           0x00000000803b5000    0x4b000 build/src/buffers/framebuffer.o
                0x00000000803b5000                gFramebuffers
                0x0000000080400000                framebuffer_BSS_END = .
                0x000000000004b000                framebuffer_BSS_SIZE = ABSOLUTE ((framebuffer_BSS_END - framebuffer_BSS_START))
                0x0000000000646e68                __romPos = (__romPos + SIZEOF (.framebuffer))
                0x0000000000646e68                __romPos = ALIGN (__romPos, 0x10)
                0x000000000009b460                framebuffer_ROM_END = __romPos
                0x0000000080400000                framebuffer_VRAM_END = .
                0x000000000009b460                n64_wave_tables_ROM_START = __romPos
                0x0000000080400000                n64_wave_tables_VRAM = ADDR (.n64_wave_tables)

.n64_wave_tables
                0x0000000080400000   0x11a260 load address 0x000000000009b460
                0x0000000080400000                n64_wave_tables_DATA_START = .
                0x0000000080400000                n64_wave_tables = .
 build/bin/us/n64_wave_tables.o(.data)
 .data          0x0000000080400000   0x11a260 build/bin/us/n64_wave_tables.o
                0x0000000080400000                _binary_bin_us_n64_wave_tables_bin_start
                0x000000008051a260                _binary_bin_us_n64_wave_tables_bin_end
                0x000000008051a260                n64_wave_tables_DATA_END = .
                0x000000000011a260                n64_wave_tables_DATA_SIZE = ABSOLUTE ((n64_wave_tables_DATA_END - n64_wave_tables_DATA_START))
                0x0000000000646e68                __romPos = (__romPos + SIZEOF (.n64_wave_tables))
                0x00000000001b56c0                n64_wave_tables_ROM_END = __romPos
                0x000000008051a260                n64_wave_tables_VRAM_END = .
                0x00000000001b56c0                n64_ptr_tables_v2_ROM_START = __romPos
                0x000000008051a260                n64_ptr_tables_v2_VRAM = ADDR (.n64_ptr_tables_v2)

.n64_ptr_tables_v2
                0x000000008051a260     0x8550 load address 0x00000000001b56c0
                0x000000008051a260                n64_ptr_tables_v2_DATA_START = .
                0x000000008051a260                n64_ptr_tables_v2 = .
 build/bin/us/n64_ptr_tables_v2.o(.data)
 .data          0x000000008051a260     0x8550 build/bin/us/n64_ptr_tables_v2.o
                0x000000008051a260                _binary_bin_us_n64_ptr_tables_v2_bin_start
                0x00000000805227b0                _binary_bin_us_n64_ptr_tables_v2_bin_end
                0x00000000805227b0                n64_ptr_tables_v2_DATA_END = .
                0x0000000000008550                n64_ptr_tables_v2_DATA_SIZE = ABSOLUTE ((n64_ptr_tables_v2_DATA_END - n64_ptr_tables_v2_DATA_START))
                0x0000000000646e68                __romPos = (__romPos + SIZEOF (.n64_ptr_tables_v2))
                0x00000000001bdc10                n64_ptr_tables_v2_ROM_END = __romPos
                0x00000000805227b0                n64_ptr_tables_v2_VRAM_END = .
                0x00000000001bdc10                segment_172130_ROM_START = __romPos
                0x00000000805227b0                segment_172130_VRAM = ADDR (.segment_172130)

.segment_172130
                0x00000000805227b0      0xc30 load address 0x00000000001bdc10
                0x00000000805227b0                segment_172130_DATA_START = .
                0x00000000805227b0                segment_172130 = .
 build/bin/us/segment_172130.o(.data)
 .data          0x00000000805227b0      0xc30 build/bin/us/segment_172130.o
                0x00000000805227b0                _binary_bin_us_segment_172130_bin_start
                0x00000000805233e0                _binary_bin_us_segment_172130_bin_end
                0x00000000805233e0                segment_172130_DATA_END = .
                0x0000000000000c30                segment_172130_DATA_SIZE = ABSOLUTE ((segment_172130_DATA_END - segment_172130_DATA_START))
                0x0000000000646e68                __romPos = (__romPos + SIZEOF (.segment_172130))
                0x00000000001be840                segment_172130_ROM_END = __romPos
                0x00000000805233e0                segment_172130_VRAM_END = .
                0x00000000001be840                segment_172D60_ROM_START = __romPos
                0x00000000805233e0                segment_172D60_VRAM = ADDR (.segment_172D60)

.segment_172D60
                0x00000000805233e0     0x2360 load address 0x00000000001be840
                0x00000000805233e0                segment_172D60_DATA_START = .
                0x00000000805233e0                segment_172D60 = .
 build/bin/us/segment_172D60.o(.data)
 .data          0x00000000805233e0     0x2360 build/bin/us/segment_172D60.o
                0x00000000805233e0                _binary_bin_us_segment_172D60_bin_start
                0x0000000080525740                _binary_bin_us_segment_172D60_bin_end
                0x0000000080525740                segment_172D60_DATA_END = .
                0x0000000000002360                segment_172D60_DATA_SIZE = ABSOLUTE ((segment_172D60_DATA_END - segment_172D60_DATA_START))
                0x0000000000646e68                __romPos = (__romPos + SIZEOF (.segment_172D60))
                0x00000000001c0ba0                segment_172D60_ROM_END = __romPos
                0x0000000080525740                segment_172D60_VRAM_END = .
                0x00000000001c0ba0                segment_1750C0_ROM_START = __romPos
                0x0000000080525740                segment_1750C0_VRAM = ADDR (.segment_1750C0)

.segment_1750C0
                0x0000000080525740     0x2360 load address 0x00000000001c0ba0
                0x0000000080525740                segment_1750C0_DATA_START = .
                0x0000000080525740                segment_1750C0 = .
 build/bin/us/segment_1750C0.o(.data)
 .data          0x0000000080525740     0x2360 build/bin/us/segment_1750C0.o
                0x0000000080525740                _binary_bin_us_segment_1750C0_bin_start
                0x0000000080527aa0                _binary_bin_us_segment_1750C0_bin_end
                0x0000000080527aa0                segment_1750C0_DATA_END = .
                0x0000000000002360                segment_1750C0_DATA_SIZE = ABSOLUTE ((segment_1750C0_DATA_END - segment_1750C0_DATA_START))
                0x0000000000646e68                __romPos = (__romPos + SIZEOF (.segment_1750C0))
                0x00000000001c2f00                segment_1750C0_ROM_END = __romPos
                0x0000000080527aa0                segment_1750C0_VRAM_END = .
                0x00000000001c2f00                segment_177420_ROM_START = __romPos
                0x0000000080527aa0                segment_177420_VRAM = ADDR (.segment_177420)

.segment_177420
                0x0000000080527aa0     0x2200 load address 0x00000000001c2f00
                0x0000000080527aa0                segment_177420_DATA_START = .
                0x0000000080527aa0                segment_177420 = .
 build/bin/us/segment_177420.o(.data)
 .data          0x0000000080527aa0     0x2200 build/bin/us/segment_177420.o
                0x0000000080527aa0                _binary_bin_us_segment_177420_bin_start
                0x0000000080529ca0                _binary_bin_us_segment_177420_bin_end
                0x0000000080529ca0                segment_177420_DATA_END = .
                0x0000000000002200                segment_177420_DATA_SIZE = ABSOLUTE ((segment_177420_DATA_END - segment_177420_DATA_START))
                0x0000000000646e68                __romPos = (__romPos + SIZEOF (.segment_177420))
                0x00000000001c5100                segment_177420_ROM_END = __romPos
                0x0000000080529ca0                segment_177420_VRAM_END = .
                0x00000000001c5100                segment_179620_ROM_START = __romPos
                0x0000000080529ca0                segment_179620_VRAM = ADDR (.segment_179620)

.segment_179620
                0x0000000080529ca0     0x2170 load address 0x00000000001c5100
                0x0000000080529ca0                segment_179620_DATA_START = .
                0x0000000080529ca0                segment_179620 = .
 build/bin/us/segment_179620.o(.data)
 .data          0x0000000080529ca0     0x2170 build/bin/us/segment_179620.o
                0x0000000080529ca0                _binary_bin_us_segment_179620_bin_start
                0x000000008052be10                _binary_bin_us_segment_179620_bin_end
                0x000000008052be10                segment_179620_DATA_END = .
                0x0000000000002170                segment_179620_DATA_SIZE = ABSOLUTE ((segment_179620_DATA_END - segment_179620_DATA_START))
                0x0000000000646e68                __romPos = (__romPos + SIZEOF (.segment_179620))
                0x00000000001c7270                segment_179620_ROM_END = __romPos
                0x000000008052be10                segment_179620_VRAM_END = .
                0x00000000001c7270                segment_17B790_ROM_START = __romPos
                0x000000008052be10                segment_17B790_VRAM = ADDR (.segment_17B790)

.segment_17B790
                0x000000008052be10      0xa50 load address 0x00000000001c7270
                0x000000008052be10                segment_17B790_DATA_START = .
                0x000000008052be10                segment_17B790 = .
 build/bin/us/segment_17B790.o(.data)
 .data          0x000000008052be10      0xa50 build/bin/us/segment_17B790.o
                0x000000008052be10                _binary_bin_us_segment_17B790_bin_start
                0x000000008052c860                _binary_bin_us_segment_17B790_bin_end
                0x000000008052c860                segment_17B790_DATA_END = .
                0x0000000000000a50                segment_17B790_DATA_SIZE = ABSOLUTE ((segment_17B790_DATA_END - segment_17B790_DATA_START))
                0x0000000000646e68                __romPos = (__romPos + SIZEOF (.segment_17B790))
                0x00000000001c7cc0                segment_17B790_ROM_END = __romPos
                0x000000008052c860                segment_17B790_VRAM_END = .
                0x00000000001c7cc0                segment_17C1E0_ROM_START = __romPos
                0x000000008052c860                segment_17C1E0_VRAM = ADDR (.segment_17C1E0)

.segment_17C1E0
                0x000000008052c860      0xf50 load address 0x00000000001c7cc0
                0x000000008052c860                segment_17C1E0_DATA_START = .
                0x000000008052c860                segment_17C1E0 = .
 build/bin/us/segment_17C1E0.o(.data)
 .data          0x000000008052c860      0xf50 build/bin/us/segment_17C1E0.o
                0x000000008052c860                _binary_bin_us_segment_17C1E0_bin_start
                0x000000008052d7b0                _binary_bin_us_segment_17C1E0_bin_end
                0x000000008052d7b0                segment_17C1E0_DATA_END = .
                0x0000000000000f50                segment_17C1E0_DATA_SIZE = ABSOLUTE ((segment_17C1E0_DATA_END - segment_17C1E0_DATA_START))
                0x0000000000646e68                __romPos = (__romPos + SIZEOF (.segment_17C1E0))
                0x00000000001c8c10                segment_17C1E0_ROM_END = __romPos
                0x000000008052d7b0                segment_17C1E0_VRAM_END = .
                0x00000000001c8c10                segment_17D130_ROM_START = __romPos
                0x000000008052d7b0                segment_17D130_VRAM = ADDR (.segment_17D130)

.segment_17D130
                0x000000008052d7b0      0xf60 load address 0x00000000001c8c10
                0x000000008052d7b0                segment_17D130_DATA_START = .
                0x000000008052d7b0                segment_17D130 = .
 build/bin/us/segment_17D130.o(.data)
 .data          0x000000008052d7b0      0xf60 build/bin/us/segment_17D130.o
                0x000000008052d7b0                _binary_bin_us_segment_17D130_bin_start
                0x000000008052e710                _binary_bin_us_segment_17D130_bin_end
                0x000000008052e710                segment_17D130_DATA_END = .
                0x0000000000000f60                segment_17D130_DATA_SIZE = ABSOLUTE ((segment_17D130_DATA_END - segment_17D130_DATA_START))
                0x0000000000646e68                __romPos = (__romPos + SIZEOF (.segment_17D130))
                0x00000000001c9b70                segment_17D130_ROM_END = __romPos
                0x000000008052e710                segment_17D130_VRAM_END = .
                0x00000000001c9b70                segment_17E090_ROM_START = __romPos
                0x000000008052e710                segment_17E090_VRAM = ADDR (.segment_17E090)

.segment_17E090
                0x000000008052e710     0x37b0 load address 0x00000000001c9b70
                0x000000008052e710                segment_17E090_DATA_START = .
                0x000000008052e710                segment_17E090 = .
 build/bin/us/segment_17E090.o(.data)
 .data          0x000000008052e710     0x37b0 build/bin/us/segment_17E090.o
                0x000000008052e710                _binary_bin_us_segment_17E090_bin_start
                0x0000000080531ec0                _binary_bin_us_segment_17E090_bin_end
                0x0000000080531ec0                segment_17E090_DATA_END = .
                0x00000000000037b0                segment_17E090_DATA_SIZE = ABSOLUTE ((segment_17E090_DATA_END - segment_17E090_DATA_START))
                0x0000000000646e68                __romPos = (__romPos + SIZEOF (.segment_17E090))
                0x00000000001cd320                segment_17E090_ROM_END = __romPos
                0x0000000080531ec0                segment_17E090_VRAM_END = .
                0x00000000001cd320                segment_181840_ROM_START = __romPos
                0x0000000080531ec0                segment_181840_VRAM = ADDR (.segment_181840)

.segment_181840
                0x0000000080531ec0     0x37b0 load address 0x00000000001cd320
                0x0000000080531ec0                segment_181840_DATA_START = .
                0x0000000080531ec0                segment_181840 = .
 build/bin/us/segment_181840.o(.data)
 .data          0x0000000080531ec0     0x37b0 build/bin/us/segment_181840.o
                0x0000000080531ec0                _binary_bin_us_segment_181840_bin_start
                0x0000000080535670                _binary_bin_us_segment_181840_bin_end
                0x0000000080535670                segment_181840_DATA_END = .
                0x00000000000037b0                segment_181840_DATA_SIZE = ABSOLUTE ((segment_181840_DATA_END - segment_181840_DATA_START))
                0x0000000000646e68                __romPos = (__romPos + SIZEOF (.segment_181840))
                0x00000000001d0ad0                segment_181840_ROM_END = __romPos
                0x0000000080535670                segment_181840_VRAM_END = .
                0x00000000001d0ad0                segment_184FF0_ROM_START = __romPos
                0x0000000080535670                segment_184FF0_VRAM = ADDR (.segment_184FF0)

.segment_184FF0
                0x0000000080535670     0x2000 load address 0x00000000001d0ad0
                0x0000000080535670                segment_184FF0_DATA_START = .
                0x0000000080535670                segment_184FF0 = .
 build/bin/us/segment_184FF0.o(.data)
 .data          0x0000000080535670     0x2000 build/bin/us/segment_184FF0.o
                0x0000000080535670                _binary_bin_us_segment_184FF0_bin_start
                0x0000000080537670                _binary_bin_us_segment_184FF0_bin_end
                0x0000000080537670                segment_184FF0_DATA_END = .
                0x0000000000002000                segment_184FF0_DATA_SIZE = ABSOLUTE ((segment_184FF0_DATA_END - segment_184FF0_DATA_START))
                0x0000000000646e68                __romPos = (__romPos + SIZEOF (.segment_184FF0))
                0x00000000001d2ad0                segment_184FF0_ROM_END = __romPos
                0x0000000080537670                segment_184FF0_VRAM_END = .
                0x00000000001d2ad0                segment_186FF0_ROM_START = __romPos
                0x0000000080537670                segment_186FF0_VRAM = ADDR (.segment_186FF0)

.segment_186FF0
                0x0000000080537670     0x2000 load address 0x00000000001d2ad0
                0x0000000080537670                segment_186FF0_DATA_START = .
                0x0000000080537670                segment_186FF0 = .
 build/bin/us/segment_186FF0.o(.data)
 .data          0x0000000080537670     0x2000 build/bin/us/segment_186FF0.o
                0x0000000080537670                _binary_bin_us_segment_186FF0_bin_start
                0x0000000080539670                _binary_bin_us_segment_186FF0_bin_end
                0x0000000080539670                segment_186FF0_DATA_END = .
                0x0000000000002000                segment_186FF0_DATA_SIZE = ABSOLUTE ((segment_186FF0_DATA_END - segment_186FF0_DATA_START))
                0x0000000000646e68                __romPos = (__romPos + SIZEOF (.segment_186FF0))
                0x00000000001d4ad0                segment_186FF0_ROM_END = __romPos
                0x0000000080539670                segment_186FF0_VRAM_END = .
                0x00000000001d4ad0                segment_188FF0_ROM_START = __romPos
                0x0000000080539670                segment_188FF0_VRAM = ADDR (.segment_188FF0)

.segment_188FF0
                0x0000000080539670      0xd50 load address 0x00000000001d4ad0
                0x0000000080539670                segment_188FF0_DATA_START = .
                0x0000000080539670                segment_188FF0 = .
 build/bin/us/segment_188FF0.o(.data)
 .data          0x0000000080539670      0xd50 build/bin/us/segment_188FF0.o
                0x0000000080539670                _binary_bin_us_segment_188FF0_bin_start
                0x000000008053a3c0                _binary_bin_us_segment_188FF0_bin_end
                0x000000008053a3c0                segment_188FF0_DATA_END = .
                0x0000000000000d50                segment_188FF0_DATA_SIZE = ABSOLUTE ((segment_188FF0_DATA_END - segment_188FF0_DATA_START))
                0x0000000000646e68                __romPos = (__romPos + SIZEOF (.segment_188FF0))
                0x00000000001d5820                segment_188FF0_ROM_END = __romPos
                0x000000008053a3c0                segment_188FF0_VRAM_END = .
                0x00000000001d5820                segment_189D40_ROM_START = __romPos
                0x000000008053a3c0                segment_189D40_VRAM = ADDR (.segment_189D40)

.segment_189D40
                0x000000008053a3c0     0x2e00 load address 0x00000000001d5820
                0x000000008053a3c0                segment_189D40_DATA_START = .
                0x000000008053a3c0                segment_189D40 = .
 build/bin/us/segment_189D40.o(.data)
 .data          0x000000008053a3c0     0x2e00 build/bin/us/segment_189D40.o
                0x000000008053a3c0                _binary_bin_us_segment_189D40_bin_start
                0x000000008053d1c0                _binary_bin_us_segment_189D40_bin_end
                0x000000008053d1c0                segment_189D40_DATA_END = .
                0x0000000000002e00                segment_189D40_DATA_SIZE = ABSOLUTE ((segment_189D40_DATA_END - segment_189D40_DATA_START))
                0x0000000000646e68                __romPos = (__romPos + SIZEOF (.segment_189D40))
                0x00000000001d8620                segment_189D40_ROM_END = __romPos
                0x000000008053d1c0                segment_189D40_VRAM_END = .
                0x00000000001d8620                segment_18CB40_ROM_START = __romPos
                0x000000008053d1c0                segment_18CB40_VRAM = ADDR (.segment_18CB40)

.segment_18CB40
                0x000000008053d1c0     0x1050 load address 0x00000000001d8620
                0x000000008053d1c0                segment_18CB40_DATA_START = .
                0x000000008053d1c0                segment_18CB40 = .
 build/bin/us/segment_18CB40.o(.data)
 .data          0x000000008053d1c0     0x1050 build/bin/us/segment_18CB40.o
                0x000000008053d1c0                _binary_bin_us_segment_18CB40_bin_start
                0x000000008053e210                _binary_bin_us_segment_18CB40_bin_end
                0x000000008053e210                segment_18CB40_DATA_END = .
                0x0000000000001050                segment_18CB40_DATA_SIZE = ABSOLUTE ((segment_18CB40_DATA_END - segment_18CB40_DATA_START))
                0x0000000000646e68                __romPos = (__romPos + SIZEOF (.segment_18CB40))
                0x00000000001d9670                segment_18CB40_ROM_END = __romPos
                0x000000008053e210                segment_18CB40_VRAM_END = .
                0x00000000001d9670                segment_18DB90_ROM_START = __romPos
                0x000000008053e210                segment_18DB90_VRAM = ADDR (.segment_18DB90)

.segment_18DB90
                0x000000008053e210     0x15d0 load address 0x00000000001d9670
                0x000000008053e210                segment_18DB90_DATA_START = .
                0x000000008053e210                segment_18DB90 = .
 build/bin/us/segment_18DB90.o(.data)
 .data          0x000000008053e210     0x15d0 build/bin/us/segment_18DB90.o
                0x000000008053e210                _binary_bin_us_segment_18DB90_bin_start
                0x000000008053f7e0                _binary_bin_us_segment_18DB90_bin_end
                0x000000008053f7e0                segment_18DB90_DATA_END = .
                0x00000000000015d0                segment_18DB90_DATA_SIZE = ABSOLUTE ((segment_18DB90_DATA_END - segment_18DB90_DATA_START))
                0x0000000000646e68                __romPos = (__romPos + SIZEOF (.segment_18DB90))
                0x00000000001dac40                segment_18DB90_ROM_END = __romPos
                0x000000008053f7e0                segment_18DB90_VRAM_END = .
                0x00000000001dac40                segment_18F160_ROM_START = __romPos
                0x000000008053f7e0                segment_18F160_VRAM = ADDR (.segment_18F160)

.segment_18F160
                0x000000008053f7e0     0x1580 load address 0x00000000001dac40
                0x000000008053f7e0                segment_18F160_DATA_START = .
                0x000000008053f7e0                segment_18F160 = .
 build/bin/us/segment_18F160.o(.data)
 .data          0x000000008053f7e0     0x1580 build/bin/us/segment_18F160.o
                0x000000008053f7e0                _binary_bin_us_segment_18F160_bin_start
                0x0000000080540d60                _binary_bin_us_segment_18F160_bin_end
                0x0000000080540d60                segment_18F160_DATA_END = .
                0x0000000000001580                segment_18F160_DATA_SIZE = ABSOLUTE ((segment_18F160_DATA_END - segment_18F160_DATA_START))
                0x0000000000646e68                __romPos = (__romPos + SIZEOF (.segment_18F160))
                0x00000000001dc1c0                segment_18F160_ROM_END = __romPos
                0x0000000080540d60                segment_18F160_VRAM_END = .
                0x00000000001dc1c0                segment_1906E0_ROM_START = __romPos
                0x0000000080540d60                segment_1906E0_VRAM = ADDR (.segment_1906E0)

.segment_1906E0
                0x0000000080540d60      0xaf0 load address 0x00000000001dc1c0
                0x0000000080540d60                segment_1906E0_DATA_START = .
                0x0000000080540d60                segment_1906E0 = .
 build/bin/us/segment_1906E0.o(.data)
 .data          0x0000000080540d60      0xaf0 build/bin/us/segment_1906E0.o
                0x0000000080540d60                _binary_bin_us_segment_1906E0_bin_start
                0x0000000080541850                _binary_bin_us_segment_1906E0_bin_end
                0x0000000080541850                segment_1906E0_DATA_END = .
                0x0000000000000af0                segment_1906E0_DATA_SIZE = ABSOLUTE ((segment_1906E0_DATA_END - segment_1906E0_DATA_START))
                0x0000000000646e68                __romPos = (__romPos + SIZEOF (.segment_1906E0))
                0x00000000001dccb0                segment_1906E0_ROM_END = __romPos
                0x0000000080541850                segment_1906E0_VRAM_END = .
                0x00000000001dccb0                segment_1911D0_ROM_START = __romPos
                0x0000000080541850                segment_1911D0_VRAM = ADDR (.segment_1911D0)

.segment_1911D0
                0x0000000080541850     0x24f0 load address 0x00000000001dccb0
                0x0000000080541850                segment_1911D0_DATA_START = .
                0x0000000080541850                segment_1911D0 = .
 build/bin/us/segment_1911D0.o(.data)
 .data          0x0000000080541850     0x24f0 build/bin/us/segment_1911D0.o
                0x0000000080541850                _binary_bin_us_segment_1911D0_bin_start
                0x0000000080543d40                _binary_bin_us_segment_1911D0_bin_end
                0x0000000080543d40                segment_1911D0_DATA_END = .
                0x00000000000024f0                segment_1911D0_DATA_SIZE = ABSOLUTE ((segment_1911D0_DATA_END - segment_1911D0_DATA_START))
                0x0000000000646e68                __romPos = (__romPos + SIZEOF (.segment_1911D0))
                0x00000000001df1a0                segment_1911D0_ROM_END = __romPos
                0x0000000080543d40                segment_1911D0_VRAM_END = .
                0x00000000001df1a0                segment_1936C0_ROM_START = __romPos
                0x0000000080543d40                segment_1936C0_VRAM = ADDR (.segment_1936C0)

.segment_1936C0
                0x0000000080543d40      0x130 load address 0x00000000001df1a0
                0x0000000080543d40                segment_1936C0_DATA_START = .
                0x0000000080543d40                segment_1936C0 = .
 build/bin/us/segment_1936C0.o(.data)
 .data          0x0000000080543d40      0x130 build/bin/us/segment_1936C0.o
                0x0000000080543d40                _binary_bin_us_segment_1936C0_bin_start
                0x0000000080543e70                _binary_bin_us_segment_1936C0_bin_end
                0x0000000080543e70                segment_1936C0_DATA_END = .
                0x0000000000000130                segment_1936C0_DATA_SIZE = ABSOLUTE ((segment_1936C0_DATA_END - segment_1936C0_DATA_START))
                0x0000000000646e68                __romPos = (__romPos + SIZEOF (.segment_1936C0))
                0x00000000001df2d0                segment_1936C0_ROM_END = __romPos
                0x0000000080543e70                segment_1936C0_VRAM_END = .
                0x00000000001df2d0                segment_1937F0_ROM_START = __romPos
                0x0000000080543e70                segment_1937F0_VRAM = ADDR (.segment_1937F0)

.segment_1937F0
                0x0000000080543e70      0x880 load address 0x00000000001df2d0
                0x0000000080543e70                segment_1937F0_DATA_START = .
                0x0000000080543e70                segment_1937F0 = .
 build/bin/us/segment_1937F0.o(.data)
 .data          0x0000000080543e70      0x880 build/bin/us/segment_1937F0.o
                0x0000000080543e70                _binary_bin_us_segment_1937F0_bin_start
                0x00000000805446f0                _binary_bin_us_segment_1937F0_bin_end
                0x00000000805446f0                segment_1937F0_DATA_END = .
                0x0000000000000880                segment_1937F0_DATA_SIZE = ABSOLUTE ((segment_1937F0_DATA_END - segment_1937F0_DATA_START))
                0x0000000000646e68                __romPos = (__romPos + SIZEOF (.segment_1937F0))
                0x00000000001dfb50                segment_1937F0_ROM_END = __romPos
                0x00000000805446f0                segment_1937F0_VRAM_END = .
                0x00000000001dfb50                segment_194070_ROM_START = __romPos
                0x00000000805446f0                segment_194070_VRAM = ADDR (.segment_194070)

.segment_194070
                0x00000000805446f0       0xe0 load address 0x00000000001dfb50
                0x00000000805446f0                segment_194070_DATA_START = .
                0x00000000805446f0                segment_194070 = .
 build/bin/us/segment_194070.o(.data)
 .data          0x00000000805446f0       0xe0 build/bin/us/segment_194070.o
                0x00000000805446f0                _binary_bin_us_segment_194070_bin_start
                0x00000000805447d0                _binary_bin_us_segment_194070_bin_end
                0x00000000805447d0                segment_194070_DATA_END = .
                0x00000000000000e0                segment_194070_DATA_SIZE = ABSOLUTE ((segment_194070_DATA_END - segment_194070_DATA_START))
                0x0000000000646e68                __romPos = (__romPos + SIZEOF (.segment_194070))
                0x00000000001dfc30                segment_194070_ROM_END = __romPos
                0x00000000805447d0                segment_194070_VRAM_END = .
                0x00000000001dfc30                segment_194150_ROM_START = __romPos
                0x00000000805447d0                segment_194150_VRAM = ADDR (.segment_194150)

.segment_194150
                0x00000000805447d0      0x7c0 load address 0x00000000001dfc30
                0x00000000805447d0                segment_194150_DATA_START = .
                0x00000000805447d0                segment_194150 = .
 build/bin/us/segment_194150.o(.data)
 .data          0x00000000805447d0      0x7c0 build/bin/us/segment_194150.o
                0x00000000805447d0                _binary_bin_us_segment_194150_bin_start
                0x0000000080544f90                _binary_bin_us_segment_194150_bin_end
                0x0000000080544f90                segment_194150_DATA_END = .
                0x00000000000007c0                segment_194150_DATA_SIZE = ABSOLUTE ((segment_194150_DATA_END - segment_194150_DATA_START))
                0x0000000000646e68                __romPos = (__romPos + SIZEOF (.segment_194150))
                0x00000000001e03f0                segment_194150_ROM_END = __romPos
                0x0000000080544f90                segment_194150_VRAM_END = .
                0x00000000001e03f0                segment_194910_ROM_START = __romPos
                0x0000000080544f90                segment_194910_VRAM = ADDR (.segment_194910)

.segment_194910
                0x0000000080544f90      0x980 load address 0x00000000001e03f0
                0x0000000080544f90                segment_194910_DATA_START = .
                0x0000000080544f90                segment_194910 = .
 build/bin/us/segment_194910.o(.data)
 .data          0x0000000080544f90      0x980 build/bin/us/segment_194910.o
                0x0000000080544f90                _binary_bin_us_segment_194910_bin_start
                0x0000000080545910                _binary_bin_us_segment_194910_bin_end
                0x0000000080545910                segment_194910_DATA_END = .
                0x0000000000000980                segment_194910_DATA_SIZE = ABSOLUTE ((segment_194910_DATA_END - segment_194910_DATA_START))
                0x0000000000646e68                __romPos = (__romPos + SIZEOF (.segment_194910))
                0x00000000001e0d70                segment_194910_ROM_END = __romPos
                0x0000000080545910                segment_194910_VRAM_END = .
                0x00000000001e0d70                segment_195290_ROM_START = __romPos
                0x0000000080545910                segment_195290_VRAM = ADDR (.segment_195290)

.segment_195290
                0x0000000080545910      0x390 load address 0x00000000001e0d70
                0x0000000080545910                segment_195290_DATA_START = .
                0x0000000080545910                segment_195290 = .
 build/bin/us/segment_195290.o(.data)
 .data          0x0000000080545910      0x390 build/bin/us/segment_195290.o
                0x0000000080545910                _binary_bin_us_segment_195290_bin_start
                0x0000000080545ca0                _binary_bin_us_segment_195290_bin_end
                0x0000000080545ca0                segment_195290_DATA_END = .
                0x0000000000000390                segment_195290_DATA_SIZE = ABSOLUTE ((segment_195290_DATA_END - segment_195290_DATA_START))
                0x0000000000646e68                __romPos = (__romPos + SIZEOF (.segment_195290))
                0x00000000001e1100                segment_195290_ROM_END = __romPos
                0x0000000080545ca0                segment_195290_VRAM_END = .
                0x00000000001e1100                segment_game_etc_ROM_START = __romPos
                0x0000000080545ca0                segment_game_etc_VRAM = ADDR (.segment_game_etc)

.segment_game_etc
                0x0000000080545ca0    0x269a0 load address 0x00000000001e1100
                0x0000000080545ca0                segment_game_etc_DATA_START = .
                0x0000000080545ca0                segment_game_etc = .
 build/bin/us/segment_game_etc.o(.data)
 .data          0x0000000080545ca0    0x269a0 build/bin/us/segment_game_etc.o
                0x0000000080545ca0                _binary_bin_us_segment_game_etc_bin_start
                0x000000008056c640                _binary_bin_us_segment_game_etc_bin_end
                0x000000008056c640                segment_game_etc_DATA_END = .
                0x00000000000269a0                segment_game_etc_DATA_SIZE = ABSOLUTE ((segment_game_etc_DATA_END - segment_game_etc_DATA_START))
                0x0000000000646e68                __romPos = (__romPos + SIZEOF (.segment_game_etc))
                0x0000000000207aa0                segment_game_etc_ROM_END = __romPos
                0x000000008056c640                segment_game_etc_VRAM_END = .
                0x0000000000207aa0                segment_menu_bg_ROM_START = __romPos
                0x000000008056c640                segment_menu_bg_VRAM = ADDR (.segment_menu_bg)

.segment_menu_bg
                0x000000008056c640     0x3a90 load address 0x0000000000207aa0
                0x000000008056c640                segment_menu_bg_DATA_START = .
                0x000000008056c640                segment_menu_bg = .
 build/bin/us/segment_menu_bg.o(.data)
 .data          0x000000008056c640     0x3a90 build/bin/us/segment_menu_bg.o
                0x000000008056c640                _binary_bin_us_segment_menu_bg_bin_start
                0x00000000805700d0                _binary_bin_us_segment_menu_bg_bin_end
                0x00000000805700d0                segment_menu_bg_DATA_END = .
                0x0000000000003a90                segment_menu_bg_DATA_SIZE = ABSOLUTE ((segment_menu_bg_DATA_END - segment_menu_bg_DATA_START))
                0x0000000000646e68                __romPos = (__romPos + SIZEOF (.segment_menu_bg))
                0x000000000020b530                segment_menu_bg_ROM_END = __romPos
                0x00000000805700d0                segment_menu_bg_VRAM_END = .
                0x000000000020b530                segment_menu_bg2_ROM_START = __romPos
                0x00000000805700d0                segment_menu_bg2_VRAM = ADDR (.segment_menu_bg2)

.segment_menu_bg2
                0x00000000805700d0     0x3a90 load address 0x000000000020b530
                0x00000000805700d0                segment_menu_bg2_DATA_START = .
                0x00000000805700d0                segment_menu_bg2 = .
 build/bin/us/segment_menu_bg2.o(.data)
 .data          0x00000000805700d0     0x3a90 build/bin/us/segment_menu_bg2.o
                0x00000000805700d0                _binary_bin_us_segment_menu_bg2_bin_start
                0x0000000080573b60                _binary_bin_us_segment_menu_bg2_bin_end
                0x0000000080573b60                segment_menu_bg2_DATA_END = .
                0x0000000000003a90                segment_menu_bg2_DATA_SIZE = ABSOLUTE ((segment_menu_bg2_DATA_END - segment_menu_bg2_DATA_START))
                0x0000000000646e68                __romPos = (__romPos + SIZEOF (.segment_menu_bg2))
                0x000000000020efc0                segment_menu_bg2_ROM_END = __romPos
                0x0000000080573b60                segment_menu_bg2_VRAM_END = .
                0x000000000020efc0                segment_coffee01_ROM_START = __romPos
                0x0000000080573b60                segment_coffee01_VRAM = ADDR (.segment_coffee01)

.segment_coffee01
                0x0000000080573b60    0x26130 load address 0x000000000020efc0
                0x0000000080573b60                segment_coffee01_DATA_START = .
                0x0000000080573b60                segment_coffee01 = .
 build/bin/us/segment_coffee01.o(.data)
 .data          0x0000000080573b60    0x26130 build/bin/us/segment_coffee01.o
                0x0000000080573b60                _binary_bin_us_segment_coffee01_bin_start
                0x0000000080599c90                _binary_bin_us_segment_coffee01_bin_end
                0x0000000080599c90                segment_coffee01_DATA_END = .
                0x0000000000026130                segment_coffee01_DATA_SIZE = ABSOLUTE ((segment_coffee01_DATA_END - segment_coffee01_DATA_START))
                0x0000000000646e68                __romPos = (__romPos + SIZEOF (.segment_coffee01))
                0x00000000002350f0                segment_coffee01_ROM_END = __romPos
                0x0000000080599c90                segment_coffee01_VRAM_END = .
                0x00000000002350f0                segment_title_all_ROM_START = __romPos
                0x0000000080599c90                segment_title_all_VRAM = ADDR (.segment_title_all)

.segment_title_all
                0x0000000080599c90   0x12d100 load address 0x00000000002350f0
                0x0000000080599c90                segment_title_all_DATA_START = .
                0x0000000080599c90                segment_title_all = .
 build/bin/us/segment_title_all.o(.data)
 .data          0x0000000080599c90   0x12d100 build/bin/us/segment_title_all.o
                0x0000000080599c90                _binary_bin_us_segment_title_all_bin_start
                0x00000000806c6d90                _binary_bin_us_segment_title_all_bin_end
                0x00000000806c6d90                segment_title_all_DATA_END = .
                0x000000000012d100                segment_title_all_DATA_SIZE = ABSOLUTE ((segment_title_all_DATA_END - segment_title_all_DATA_START))
                0x0000000000646e68                __romPos = (__romPos + SIZEOF (.segment_title_all))
                0x00000000003621f0                segment_title_all_ROM_END = __romPos
                0x00000000806c6d90                segment_title_all_VRAM_END = .
                0x00000000003621f0                segment_title_bmp_ROM_START = __romPos
                0x00000000806c6d90                segment_title_bmp_VRAM = ADDR (.segment_title_bmp)

.segment_title_bmp
                0x00000000806c6d90     0x2c70 load address 0x00000000003621f0
                0x00000000806c6d90                segment_title_bmp_DATA_START = .
                0x00000000806c6d90                segment_title_bmp = .
 build/bin/us/segment_title_bmp.o(.data)
 .data          0x00000000806c6d90     0x2c70 build/bin/us/segment_title_bmp.o
                0x00000000806c6d90                _binary_bin_us_segment_title_bmp_bin_start
                0x00000000806c9a00                _binary_bin_us_segment_title_bmp_bin_end
                0x00000000806c9a00                segment_title_bmp_DATA_END = .
                0x0000000000002c70                segment_title_bmp_DATA_SIZE = ABSOLUTE ((segment_title_bmp_DATA_END - segment_title_bmp_DATA_START))
                0x0000000000646e68                __romPos = (__romPos + SIZEOF (.segment_title_bmp))
                0x0000000000364e60                segment_title_bmp_ROM_END = __romPos
                0x00000000806c9a00                segment_title_bmp_VRAM_END = .
                0x0000000000364e60                segment_waku_ROM_START = __romPos
                0x00000000806c9a00                segment_waku_VRAM = ADDR (.segment_waku)

.segment_waku   0x00000000806c9a00    0x13590 load address 0x0000000000364e60
                0x00000000806c9a00                segment_waku_DATA_START = .
                0x00000000806c9a00                segment_waku = .
 build/bin/us/segment_waku.o(.data)
 .data          0x00000000806c9a00    0x13590 build/bin/us/segment_waku.o
                0x00000000806c9a00                _binary_bin_us_segment_waku_bin_start
                0x00000000806dcf90                _binary_bin_us_segment_waku_bin_end
                0x00000000806dcf90                segment_waku_DATA_END = .
                0x0000000000013590                segment_waku_DATA_SIZE = ABSOLUTE ((segment_waku_DATA_END - segment_waku_DATA_START))
                0x0000000000646e68                __romPos = (__romPos + SIZEOF (.segment_waku))
                0x00000000003783f0                segment_waku_ROM_END = __romPos
                0x00000000806dcf90                segment_waku_VRAM_END = .
                0x00000000003783f0                segment_waku2_ROM_START = __romPos
                0x00000000806dcf90                segment_waku2_VRAM = ADDR (.segment_waku2)

.segment_waku2  0x00000000806dcf90     0xa8b0 load address 0x00000000003783f0
                0x00000000806dcf90                segment_waku2_DATA_START = .
                0x00000000806dcf90                segment_waku2 = .
 build/bin/us/segment_waku2.o(.data)
 .data          0x00000000806dcf90     0xa8b0 build/bin/us/segment_waku2.o
                0x00000000806dcf90                _binary_bin_us_segment_waku2_bin_start
                0x00000000806e7840                _binary_bin_us_segment_waku2_bin_end
                0x00000000806e7840                segment_waku2_DATA_END = .
                0x000000000000a8b0                segment_waku2_DATA_SIZE = ABSOLUTE ((segment_waku2_DATA_END - segment_waku2_DATA_START))
                0x0000000000646e68                __romPos = (__romPos + SIZEOF (.segment_waku2))
                0x0000000000382ca0                segment_waku2_ROM_END = __romPos
                0x00000000806e7840                segment_waku2_VRAM_END = .
                0x0000000000382ca0                segment_story_bg01_ROM_START = __romPos
                0x00000000806e7840                segment_story_bg01_VRAM = ADDR (.segment_story_bg01)

.segment_story_bg01
                0x00000000806e7840     0xca10 load address 0x0000000000382ca0
                0x00000000806e7840                segment_story_bg01_DATA_START = .
                0x00000000806e7840                segment_story_bg01 = .
 build/bin/us/segment_story_bg01.o(.data)
 .data          0x00000000806e7840     0xca10 build/bin/us/segment_story_bg01.o
                0x00000000806e7840                _binary_bin_us_segment_story_bg01_bin_start
                0x00000000806f4250                _binary_bin_us_segment_story_bg01_bin_end
                0x00000000806f4250                segment_story_bg01_DATA_END = .
                0x000000000000ca10                segment_story_bg01_DATA_SIZE = ABSOLUTE ((segment_story_bg01_DATA_END - segment_story_bg01_DATA_START))
                0x0000000000646e68                __romPos = (__romPos + SIZEOF (.segment_story_bg01))
                0x000000000038f6b0                segment_story_bg01_ROM_END = __romPos
                0x00000000806f4250                segment_story_bg01_VRAM_END = .
                0x000000000038f6b0                segment_story_bg02_ROM_START = __romPos
                0x00000000806f4250                segment_story_bg02_VRAM = ADDR (.segment_story_bg02)

.segment_story_bg02
                0x00000000806f4250     0xca10 load address 0x000000000038f6b0
                0x00000000806f4250                segment_story_bg02_DATA_START = .
                0x00000000806f4250                segment_story_bg02 = .
 build/bin/us/segment_story_bg02.o(.data)
 .data          0x00000000806f4250     0xca10 build/bin/us/segment_story_bg02.o
                0x00000000806f4250                _binary_bin_us_segment_story_bg02_bin_start
                0x0000000080700c60                _binary_bin_us_segment_story_bg02_bin_end
                0x0000000080700c60                segment_story_bg02_DATA_END = .
                0x000000000000ca10                segment_story_bg02_DATA_SIZE = ABSOLUTE ((segment_story_bg02_DATA_END - segment_story_bg02_DATA_START))
                0x0000000000646e68                __romPos = (__romPos + SIZEOF (.segment_story_bg02))
                0x000000000039c0c0                segment_story_bg02_ROM_END = __romPos
                0x0000000080700c60                segment_story_bg02_VRAM_END = .
                0x000000000039c0c0                segment_story_bg03_ROM_START = __romPos
                0x0000000080700c60                segment_story_bg03_VRAM = ADDR (.segment_story_bg03)

.segment_story_bg03
                0x0000000080700c60     0xca10 load address 0x000000000039c0c0
                0x0000000080700c60                segment_story_bg03_DATA_START = .
                0x0000000080700c60                segment_story_bg03 = .
 build/bin/us/segment_story_bg03.o(.data)
 .data          0x0000000080700c60     0xca10 build/bin/us/segment_story_bg03.o
                0x0000000080700c60                _binary_bin_us_segment_story_bg03_bin_start
                0x000000008070d670                _binary_bin_us_segment_story_bg03_bin_end
                0x000000008070d670                segment_story_bg03_DATA_END = .
                0x000000000000ca10                segment_story_bg03_DATA_SIZE = ABSOLUTE ((segment_story_bg03_DATA_END - segment_story_bg03_DATA_START))
                0x0000000000646e68                __romPos = (__romPos + SIZEOF (.segment_story_bg03))
                0x00000000003a8ad0                segment_story_bg03_ROM_END = __romPos
                0x000000008070d670                segment_story_bg03_VRAM_END = .
                0x00000000003a8ad0                segment_story_bg04_ROM_START = __romPos
                0x000000008070d670                segment_story_bg04_VRAM = ADDR (.segment_story_bg04)

.segment_story_bg04
                0x000000008070d670     0xca10 load address 0x00000000003a8ad0
                0x000000008070d670                segment_story_bg04_DATA_START = .
                0x000000008070d670                segment_story_bg04 = .
 build/bin/us/segment_story_bg04.o(.data)
 .data          0x000000008070d670     0xca10 build/bin/us/segment_story_bg04.o
                0x000000008070d670                _binary_bin_us_segment_story_bg04_bin_start
                0x000000008071a080                _binary_bin_us_segment_story_bg04_bin_end
                0x000000008071a080                segment_story_bg04_DATA_END = .
                0x000000000000ca10                segment_story_bg04_DATA_SIZE = ABSOLUTE ((segment_story_bg04_DATA_END - segment_story_bg04_DATA_START))
                0x0000000000646e68                __romPos = (__romPos + SIZEOF (.segment_story_bg04))
                0x00000000003b54e0                segment_story_bg04_ROM_END = __romPos
                0x000000008071a080                segment_story_bg04_VRAM_END = .
                0x00000000003b54e0                segment_story_bg05_ROM_START = __romPos
                0x000000008071a080                segment_story_bg05_VRAM = ADDR (.segment_story_bg05)

.segment_story_bg05
                0x000000008071a080     0xca10 load address 0x00000000003b54e0
                0x000000008071a080                segment_story_bg05_DATA_START = .
                0x000000008071a080                segment_story_bg05 = .
 build/bin/us/segment_story_bg05.o(.data)
 .data          0x000000008071a080     0xca10 build/bin/us/segment_story_bg05.o
                0x000000008071a080                _binary_bin_us_segment_story_bg05_bin_start
                0x0000000080726a90                _binary_bin_us_segment_story_bg05_bin_end
                0x0000000080726a90                segment_story_bg05_DATA_END = .
                0x000000000000ca10                segment_story_bg05_DATA_SIZE = ABSOLUTE ((segment_story_bg05_DATA_END - segment_story_bg05_DATA_START))
                0x0000000000646e68                __romPos = (__romPos + SIZEOF (.segment_story_bg05))
                0x00000000003c1ef0                segment_story_bg05_ROM_END = __romPos
                0x0000000080726a90                segment_story_bg05_VRAM_END = .
                0x00000000003c1ef0                segment_story_bg07_ROM_START = __romPos
                0x0000000080726a90                segment_story_bg07_VRAM = ADDR (.segment_story_bg07)

.segment_story_bg07
                0x0000000080726a90     0xca10 load address 0x00000000003c1ef0
                0x0000000080726a90                segment_story_bg07_DATA_START = .
                0x0000000080726a90                segment_story_bg07 = .
 build/bin/us/segment_story_bg07.o(.data)
 .data          0x0000000080726a90     0xca10 build/bin/us/segment_story_bg07.o
                0x0000000080726a90                _binary_bin_us_segment_story_bg07_bin_start
                0x00000000807334a0                _binary_bin_us_segment_story_bg07_bin_end
                0x00000000807334a0                segment_story_bg07_DATA_END = .
                0x000000000000ca10                segment_story_bg07_DATA_SIZE = ABSOLUTE ((segment_story_bg07_DATA_END - segment_story_bg07_DATA_START))
                0x0000000000646e68                __romPos = (__romPos + SIZEOF (.segment_story_bg07))
                0x00000000003ce900                segment_story_bg07_ROM_END = __romPos
                0x00000000807334a0                segment_story_bg07_VRAM_END = .
                0x00000000003ce900                segment_story_bg08_ROM_START = __romPos
                0x00000000807334a0                segment_story_bg08_VRAM = ADDR (.segment_story_bg08)

.segment_story_bg08
                0x00000000807334a0     0xca10 load address 0x00000000003ce900
                0x00000000807334a0                segment_story_bg08_DATA_START = .
                0x00000000807334a0                segment_story_bg08 = .
 build/bin/us/segment_story_bg08.o(.data)
 .data          0x00000000807334a0     0xca10 build/bin/us/segment_story_bg08.o
                0x00000000807334a0                _binary_bin_us_segment_story_bg08_bin_start
                0x000000008073feb0                _binary_bin_us_segment_story_bg08_bin_end
                0x000000008073feb0                segment_story_bg08_DATA_END = .
                0x000000000000ca10                segment_story_bg08_DATA_SIZE = ABSOLUTE ((segment_story_bg08_DATA_END - segment_story_bg08_DATA_START))
                0x0000000000646e68                __romPos = (__romPos + SIZEOF (.segment_story_bg08))
                0x00000000003db310                segment_story_bg08_ROM_END = __romPos
                0x000000008073feb0                segment_story_bg08_VRAM_END = .
                0x00000000003db310                segment_story_bg09_ROM_START = __romPos
                0x000000008073feb0                segment_story_bg09_VRAM = ADDR (.segment_story_bg09)

.segment_story_bg09
                0x000000008073feb0     0xca10 load address 0x00000000003db310
                0x000000008073feb0                segment_story_bg09_DATA_START = .
                0x000000008073feb0                segment_story_bg09 = .
 build/bin/us/segment_story_bg09.o(.data)
 .data          0x000000008073feb0     0xca10 build/bin/us/segment_story_bg09.o
                0x000000008073feb0                _binary_bin_us_segment_story_bg09_bin_start
                0x000000008074c8c0                _binary_bin_us_segment_story_bg09_bin_end
                0x000000008074c8c0                segment_story_bg09_DATA_END = .
                0x000000000000ca10                segment_story_bg09_DATA_SIZE = ABSOLUTE ((segment_story_bg09_DATA_END - segment_story_bg09_DATA_START))
                0x0000000000646e68                __romPos = (__romPos + SIZEOF (.segment_story_bg09))
                0x00000000003e7d20                segment_story_bg09_ROM_END = __romPos
                0x000000008074c8c0                segment_story_bg09_VRAM_END = .
                0x00000000003e7d20                segment_story_bg10_ROM_START = __romPos
                0x000000008074c8c0                segment_story_bg10_VRAM = ADDR (.segment_story_bg10)

.segment_story_bg10
                0x000000008074c8c0     0xca10 load address 0x00000000003e7d20
                0x000000008074c8c0                segment_story_bg10_DATA_START = .
                0x000000008074c8c0                segment_story_bg10 = .
 build/bin/us/segment_story_bg10.o(.data)
 .data          0x000000008074c8c0     0xca10 build/bin/us/segment_story_bg10.o
                0x000000008074c8c0                _binary_bin_us_segment_story_bg10_bin_start
                0x00000000807592d0                _binary_bin_us_segment_story_bg10_bin_end
                0x00000000807592d0                segment_story_bg10_DATA_END = .
                0x000000000000ca10                segment_story_bg10_DATA_SIZE = ABSOLUTE ((segment_story_bg10_DATA_END - segment_story_bg10_DATA_START))
                0x0000000000646e68                __romPos = (__romPos + SIZEOF (.segment_story_bg10))
                0x00000000003f4730                segment_story_bg10_ROM_END = __romPos
                0x00000000807592d0                segment_story_bg10_VRAM_END = .
                0x00000000003f4730                segment_story_bg11_ROM_START = __romPos
                0x00000000807592d0                segment_story_bg11_VRAM = ADDR (.segment_story_bg11)

.segment_story_bg11
                0x00000000807592d0     0xca10 load address 0x00000000003f4730
                0x00000000807592d0                segment_story_bg11_DATA_START = .
                0x00000000807592d0                segment_story_bg11 = .
 build/bin/us/segment_story_bg11.o(.data)
 .data          0x00000000807592d0     0xca10 build/bin/us/segment_story_bg11.o
                0x00000000807592d0                _binary_bin_us_segment_story_bg11_bin_start
                0x0000000080765ce0                _binary_bin_us_segment_story_bg11_bin_end
                0x0000000080765ce0                segment_story_bg11_DATA_END = .
                0x000000000000ca10                segment_story_bg11_DATA_SIZE = ABSOLUTE ((segment_story_bg11_DATA_END - segment_story_bg11_DATA_START))
                0x0000000000646e68                __romPos = (__romPos + SIZEOF (.segment_story_bg11))
                0x0000000000401140                segment_story_bg11_ROM_END = __romPos
                0x0000000080765ce0                segment_story_bg11_VRAM_END = .
                0x0000000000401140                segment_menu_char_ROM_START = __romPos
                0x0000000080765ce0                segment_menu_char_VRAM = ADDR (.segment_menu_char)

.segment_menu_char
                0x0000000080765ce0    0x10be0 load address 0x0000000000401140
                0x0000000080765ce0                segment_menu_char_DATA_START = .
                0x0000000080765ce0                segment_menu_char = .
 build/bin/us/segment_menu_char.o(.data)
 .data          0x0000000080765ce0    0x10be0 build/bin/us/segment_menu_char.o
                0x0000000080765ce0                _binary_bin_us_segment_menu_char_bin_start
                0x00000000807768c0                _binary_bin_us_segment_menu_char_bin_end
                0x00000000807768c0                segment_menu_char_DATA_END = .
                0x0000000000010be0                segment_menu_char_DATA_SIZE = ABSOLUTE ((segment_menu_char_DATA_END - segment_menu_char_DATA_START))
                0x0000000000646e68                __romPos = (__romPos + SIZEOF (.segment_menu_char))
                0x0000000000411d20                segment_menu_char_ROM_END = __romPos
                0x00000000807768c0                segment_menu_char_VRAM_END = .
                0x0000000000411d20                segment_menu_common_ROM_START = __romPos
                0x00000000807768c0                segment_menu_common_VRAM = ADDR (.segment_menu_common)

.segment_menu_common
                0x00000000807768c0    0x288d0 load address 0x0000000000411d20
                0x00000000807768c0                segment_menu_common_DATA_START = .
                0x00000000807768c0                segment_menu_common = .
 build/bin/us/segment_menu_common.o(.data)
 .data          0x00000000807768c0    0x288d0 build/bin/us/segment_menu_common.o
                0x00000000807768c0                _binary_bin_us_segment_menu_common_bin_start
                0x000000008079f190                _binary_bin_us_segment_menu_common_bin_end
                0x000000008079f190                segment_menu_common_DATA_END = .
                0x00000000000288d0                segment_menu_common_DATA_SIZE = ABSOLUTE ((segment_menu_common_DATA_END - segment_menu_common_DATA_START))
                0x0000000000646e68                __romPos = (__romPos + SIZEOF (.segment_menu_common))
                0x000000000043a5f0                segment_menu_common_ROM_END = __romPos
                0x000000008079f190                segment_menu_common_VRAM_END = .
                0x000000000043a5f0                segment_menu_level_ROM_START = __romPos
                0x000000008079f190                segment_menu_level_VRAM = ADDR (.segment_menu_level)

.segment_menu_level
                0x000000008079f190    0x19810 load address 0x000000000043a5f0
                0x000000008079f190                segment_menu_level_DATA_START = .
                0x000000008079f190                segment_menu_level = .
 build/bin/us/segment_menu_level.o(.data)
 .data          0x000000008079f190    0x19810 build/bin/us/segment_menu_level.o
                0x000000008079f190                _binary_bin_us_segment_menu_level_bin_start
                0x00000000807b89a0                _binary_bin_us_segment_menu_level_bin_end
                0x00000000807b89a0                segment_menu_level_DATA_END = .
                0x0000000000019810                segment_menu_level_DATA_SIZE = ABSOLUTE ((segment_menu_level_DATA_END - segment_menu_level_DATA_START))
                0x0000000000646e68                __romPos = (__romPos + SIZEOF (.segment_menu_level))
                0x0000000000453e00                segment_menu_level_ROM_END = __romPos
                0x00000000807b89a0                segment_menu_level_VRAM_END = .
                0x0000000000453e00                segment_menu_main_ROM_START = __romPos
                0x00000000807b89a0                segment_menu_main_VRAM = ADDR (.segment_menu_main)

.segment_menu_main
                0x00000000807b89a0    0x26910 load address 0x0000000000453e00
                0x00000000807b89a0                segment_menu_main_DATA_START = .
                0x00000000807b89a0                segment_menu_main = .
 build/bin/us/segment_menu_main.o(.data)
 .data          0x00000000807b89a0    0x26910 build/bin/us/segment_menu_main.o
                0x00000000807b89a0                _binary_bin_us_segment_menu_main_bin_start
                0x00000000807df2b0                _binary_bin_us_segment_menu_main_bin_end
                0x00000000807df2b0                segment_menu_main_DATA_END = .
                0x0000000000026910                segment_menu_main_DATA_SIZE = ABSOLUTE ((segment_menu_main_DATA_END - segment_menu_main_DATA_START))
                0x0000000000646e68                __romPos = (__romPos + SIZEOF (.segment_menu_main))
                0x000000000047a710                segment_menu_main_ROM_END = __romPos
                0x00000000807df2b0                segment_menu_main_VRAM_END = .
                0x000000000047a710                segment_menu_name_ROM_START = __romPos
                0x00000000807df2b0                segment_menu_name_VRAM = ADDR (.segment_menu_name)

.segment_menu_name
                0x00000000807df2b0     0xbe20 load address 0x000000000047a710
                0x00000000807df2b0                segment_menu_name_DATA_START = .
                0x00000000807df2b0                segment_menu_name = .
 build/bin/us/segment_menu_name.o(.data)
 .data          0x00000000807df2b0     0xbe20 build/bin/us/segment_menu_name.o
                0x00000000807df2b0                _binary_bin_us_segment_menu_name_bin_start
                0x00000000807eb0d0                _binary_bin_us_segment_menu_name_bin_end
                0x00000000807eb0d0                segment_menu_name_DATA_END = .
                0x000000000000be20                segment_menu_name_DATA_SIZE = ABSOLUTE ((segment_menu_name_DATA_END - segment_menu_name_DATA_START))
                0x0000000000646e68                __romPos = (__romPos + SIZEOF (.segment_menu_name))
                0x0000000000486530                segment_menu_name_ROM_END = __romPos
                0x00000000807eb0d0                segment_menu_name_VRAM_END = .
                0x0000000000486530                segment_menu_p2_ROM_START = __romPos
                0x00000000807eb0d0                segment_menu_p2_VRAM = ADDR (.segment_menu_p2)

.segment_menu_p2
                0x00000000807eb0d0     0x9ea0 load address 0x0000000000486530
                0x00000000807eb0d0                segment_menu_p2_DATA_START = .
                0x00000000807eb0d0                segment_menu_p2 = .
 build/bin/us/segment_menu_p2.o(.data)
 .data          0x00000000807eb0d0     0x9ea0 build/bin/us/segment_menu_p2.o
                0x00000000807eb0d0                _binary_bin_us_segment_menu_p2_bin_start
                0x00000000807f4f70                _binary_bin_us_segment_menu_p2_bin_end
                0x00000000807f4f70                segment_menu_p2_DATA_END = .
                0x0000000000009ea0                segment_menu_p2_DATA_SIZE = ABSOLUTE ((segment_menu_p2_DATA_END - segment_menu_p2_DATA_START))
                0x0000000000646e68                __romPos = (__romPos + SIZEOF (.segment_menu_p2))
                0x00000000004903d0                segment_menu_p2_ROM_END = __romPos
                0x00000000807f4f70                segment_menu_p2_VRAM_END = .
                0x00000000004903d0                segment_menu_p4_ROM_START = __romPos
                0x00000000807f4f70                segment_menu_p4_VRAM = ADDR (.segment_menu_p4)

.segment_menu_p4
                0x00000000807f4f70     0xdac0 load address 0x00000000004903d0
                0x00000000807f4f70                segment_menu_p4_DATA_START = .
                0x00000000807f4f70                segment_menu_p4 = .
 build/bin/us/segment_menu_p4.o(.data)
 .data          0x00000000807f4f70     0xdac0 build/bin/us/segment_menu_p4.o
                0x00000000807f4f70                _binary_bin_us_segment_menu_p4_bin_start
                0x0000000080802a30                _binary_bin_us_segment_menu_p4_bin_end
                0x0000000080802a30                segment_menu_p4_DATA_END = .
                0x000000000000dac0                segment_menu_p4_DATA_SIZE = ABSOLUTE ((segment_menu_p4_DATA_END - segment_menu_p4_DATA_START))
                0x0000000000646e68                __romPos = (__romPos + SIZEOF (.segment_menu_p4))
                0x000000000049de90                segment_menu_p4_ROM_END = __romPos
                0x0000000080802a30                segment_menu_p4_VRAM_END = .
                0x000000000049de90                segment_menu_rank_ROM_START = __romPos
                0x0000000080802a30                segment_menu_rank_VRAM = ADDR (.segment_menu_rank)

.segment_menu_rank
                0x0000000080802a30     0x9310 load address 0x000000000049de90
                0x0000000080802a30                segment_menu_rank_DATA_START = .
                0x0000000080802a30                segment_menu_rank = .
 build/bin/us/segment_menu_rank.o(.data)
 .data          0x0000000080802a30     0x9310 build/bin/us/segment_menu_rank.o
                0x0000000080802a30                _binary_bin_us_segment_menu_rank_bin_start
                0x000000008080bd40                _binary_bin_us_segment_menu_rank_bin_end
                0x000000008080bd40                segment_menu_rank_DATA_END = .
                0x0000000000009310                segment_menu_rank_DATA_SIZE = ABSOLUTE ((segment_menu_rank_DATA_END - segment_menu_rank_DATA_START))
                0x0000000000646e68                __romPos = (__romPos + SIZEOF (.segment_menu_rank))
                0x00000000004a71a0                segment_menu_rank_ROM_END = __romPos
                0x000000008080bd40                segment_menu_rank_VRAM_END = .
                0x00000000004a71a0                segment_menu_setup_ROM_START = __romPos
                0x000000008080bd40                segment_menu_setup_VRAM = ADDR (.segment_menu_setup)

.segment_menu_setup
                0x000000008080bd40    0x1c6c0 load address 0x00000000004a71a0
                0x000000008080bd40                segment_menu_setup_DATA_START = .
                0x000000008080bd40                segment_menu_setup = .
 build/bin/us/segment_menu_setup.o(.data)
 .data          0x000000008080bd40    0x1c6c0 build/bin/us/segment_menu_setup.o
                0x000000008080bd40                _binary_bin_us_segment_menu_setup_bin_start
                0x0000000080828400                _binary_bin_us_segment_menu_setup_bin_end
                0x0000000080828400                segment_menu_setup_DATA_END = .
                0x000000000001c6c0                segment_menu_setup_DATA_SIZE = ABSOLUTE ((segment_menu_setup_DATA_END - segment_menu_setup_DATA_START))
                0x0000000000646e68                __romPos = (__romPos + SIZEOF (.segment_menu_setup))
                0x00000000004c3860                segment_menu_setup_ROM_END = __romPos
                0x0000000080828400                segment_menu_setup_VRAM_END = .
                0x00000000004c3860                segment_menu_story_ROM_START = __romPos
                0x0000000080828400                segment_menu_story_VRAM = ADDR (.segment_menu_story)

.segment_menu_story
                0x0000000080828400    0x1b240 load address 0x00000000004c3860
                0x0000000080828400                segment_menu_story_DATA_START = .
                0x0000000080828400                segment_menu_story = .
 build/bin/us/segment_menu_story.o(.data)
 .data          0x0000000080828400    0x1b240 build/bin/us/segment_menu_story.o
                0x0000000080828400                _binary_bin_us_segment_menu_story_bin_start
                0x0000000080843640                _binary_bin_us_segment_menu_story_bin_end
                0x0000000080843640                segment_menu_story_DATA_END = .
                0x000000000001b240                segment_menu_story_DATA_SIZE = ABSOLUTE ((segment_menu_story_DATA_END - segment_menu_story_DATA_START))
                0x0000000000646e68                __romPos = (__romPos + SIZEOF (.segment_menu_story))
                0x00000000004deaa0                segment_menu_story_ROM_END = __romPos
                0x0000000080843640                segment_menu_story_VRAM_END = .
                0x00000000004deaa0                segment_menu_cont_ROM_START = __romPos
                0x0000000080843640                segment_menu_cont_VRAM = ADDR (.segment_menu_cont)

.segment_menu_cont
                0x0000000080843640     0x84c0 load address 0x00000000004deaa0
                0x0000000080843640                segment_menu_cont_DATA_START = .
                0x0000000080843640                segment_menu_cont = .
 build/bin/us/segment_menu_cont.o(.data)
 .data          0x0000000080843640     0x84c0 build/bin/us/segment_menu_cont.o
                0x0000000080843640                _binary_bin_us_segment_menu_cont_bin_start
                0x000000008084bb00                _binary_bin_us_segment_menu_cont_bin_end
                0x000000008084bb00                segment_menu_cont_DATA_END = .
                0x00000000000084c0                segment_menu_cont_DATA_SIZE = ABSOLUTE ((segment_menu_cont_DATA_END - segment_menu_cont_DATA_START))
                0x0000000000646e68                __romPos = (__romPos + SIZEOF (.segment_menu_cont))
                0x00000000004e6f60                segment_menu_cont_ROM_END = __romPos
                0x000000008084bb00                segment_menu_cont_VRAM_END = .
                0x00000000004e6f60                segment_menu_kasa_ROM_START = __romPos
                0x000000008084bb00                segment_menu_kasa_VRAM = ADDR (.segment_menu_kasa)

.segment_menu_kasa
                0x000000008084bb00     0xe610 load address 0x00000000004e6f60
                0x000000008084bb00                segment_menu_kasa_DATA_START = .
                0x000000008084bb00                segment_menu_kasa = .
 build/bin/us/segment_menu_kasa.o(.data)
 .data          0x000000008084bb00     0xe610 build/bin/us/segment_menu_kasa.o
                0x000000008084bb00                _binary_bin_us_segment_menu_kasa_bin_start
                0x000000008085a110                _binary_bin_us_segment_menu_kasa_bin_end
                0x000000008085a110                segment_menu_kasa_DATA_END = .
                0x000000000000e610                segment_menu_kasa_DATA_SIZE = ABSOLUTE ((segment_menu_kasa_DATA_END - segment_menu_kasa_DATA_START))
                0x0000000000646e68                __romPos = (__romPos + SIZEOF (.segment_menu_kasa))
                0x00000000004f5570                segment_menu_kasa_ROM_END = __romPos
                0x000000008085a110                segment_menu_kasa_VRAM_END = .
                0x00000000004f5570                segment_game_al_ROM_START = __romPos
                0x000000008085a110                segment_game_al_VRAM = ADDR (.segment_game_al)

.segment_game_al
                0x000000008085a110     0xf4c0 load address 0x00000000004f5570
                0x000000008085a110                segment_game_al_DATA_START = .
                0x000000008085a110                segment_game_al = .
 build/bin/us/segment_game_al.o(.data)
 .data          0x000000008085a110     0xf4c0 build/bin/us/segment_game_al.o
                0x000000008085a110                _binary_bin_us_segment_game_al_bin_start
                0x00000000808695d0                _binary_bin_us_segment_game_al_bin_end
                0x00000000808695d0                segment_game_al_DATA_END = .
                0x000000000000f4c0                segment_game_al_DATA_SIZE = ABSOLUTE ((segment_game_al_DATA_END - segment_game_al_DATA_START))
                0x0000000000646e68                __romPos = (__romPos + SIZEOF (.segment_game_al))
                0x0000000000504a30                segment_game_al_ROM_END = __romPos
                0x00000000808695d0                segment_game_al_VRAM_END = .
                0x0000000000504a30                segment_game_p1_ROM_START = __romPos
                0x00000000808695d0                segment_game_p1_VRAM = ADDR (.segment_game_p1)

.segment_game_p1
                0x00000000808695d0    0x116c0 load address 0x0000000000504a30
                0x00000000808695d0                segment_game_p1_DATA_START = .
                0x00000000808695d0                segment_game_p1 = .
 build/bin/us/segment_game_p1.o(.data)
 .data          0x00000000808695d0    0x116c0 build/bin/us/segment_game_p1.o
                0x00000000808695d0                _binary_bin_us_segment_game_p1_bin_start
                0x000000008087ac90                _binary_bin_us_segment_game_p1_bin_end
                0x000000008087ac90                segment_game_p1_DATA_END = .
                0x00000000000116c0                segment_game_p1_DATA_SIZE = ABSOLUTE ((segment_game_p1_DATA_END - segment_game_p1_DATA_START))
                0x0000000000646e68                __romPos = (__romPos + SIZEOF (.segment_game_p1))
                0x00000000005160f0                segment_game_p1_ROM_END = __romPos
                0x000000008087ac90                segment_game_p1_VRAM_END = .
                0x00000000005160f0                segment_game_p2_ROM_START = __romPos
                0x000000008087ac90                segment_game_p2_VRAM = ADDR (.segment_game_p2)

.segment_game_p2
                0x000000008087ac90    0x122b0 load address 0x00000000005160f0
                0x000000008087ac90                segment_game_p2_DATA_START = .
                0x000000008087ac90                segment_game_p2 = .
 build/bin/us/segment_game_p2.o(.data)
 .data          0x000000008087ac90    0x122b0 build/bin/us/segment_game_p2.o
                0x000000008087ac90                _binary_bin_us_segment_game_p2_bin_start
                0x000000008088cf40                _binary_bin_us_segment_game_p2_bin_end
                0x000000008088cf40                segment_game_p2_DATA_END = .
                0x00000000000122b0                segment_game_p2_DATA_SIZE = ABSOLUTE ((segment_game_p2_DATA_END - segment_game_p2_DATA_START))
                0x0000000000646e68                __romPos = (__romPos + SIZEOF (.segment_game_p2))
                0x00000000005283a0                segment_game_p2_ROM_END = __romPos
                0x000000008088cf40                segment_game_p2_VRAM_END = .
                0x00000000005283a0                segment_game_p4_ROM_START = __romPos
                0x000000008088cf40                segment_game_p4_VRAM = ADDR (.segment_game_p4)

.segment_game_p4
                0x000000008088cf40    0x1ef70 load address 0x00000000005283a0
                0x000000008088cf40                segment_game_p4_DATA_START = .
                0x000000008088cf40                segment_game_p4 = .
 build/bin/us/segment_game_p4.o(.data)
 .data          0x000000008088cf40    0x1ef70 build/bin/us/segment_game_p4.o
                0x000000008088cf40                _binary_bin_us_segment_game_p4_bin_start
                0x00000000808abeb0                _binary_bin_us_segment_game_p4_bin_end
                0x00000000808abeb0                segment_game_p4_DATA_END = .
                0x000000000001ef70                segment_game_p4_DATA_SIZE = ABSOLUTE ((segment_game_p4_DATA_END - segment_game_p4_DATA_START))
                0x0000000000646e68                __romPos = (__romPos + SIZEOF (.segment_game_p4))
                0x0000000000547310                segment_game_p4_ROM_END = __romPos
                0x00000000808abeb0                segment_game_p4_VRAM_END = .
                0x0000000000547310                segment_game_ls_ROM_START = __romPos
                0x00000000808abeb0                segment_game_ls_VRAM = ADDR (.segment_game_ls)

.segment_game_ls
                0x00000000808abeb0    0x33400 load address 0x0000000000547310
                0x00000000808abeb0                segment_game_ls_DATA_START = .
                0x00000000808abeb0                segment_game_ls = .
 build/bin/us/segment_game_ls.o(.data)
 .data          0x00000000808abeb0    0x33400 build/bin/us/segment_game_ls.o
                0x00000000808abeb0                _binary_bin_us_segment_game_ls_bin_start
                0x00000000808df2b0                _binary_bin_us_segment_game_ls_bin_end
                0x00000000808df2b0                segment_game_ls_DATA_END = .
                0x0000000000033400                segment_game_ls_DATA_SIZE = ABSOLUTE ((segment_game_ls_DATA_END - segment_game_ls_DATA_START))
                0x0000000000646e68                __romPos = (__romPos + SIZEOF (.segment_game_ls))
                0x000000000057a710                segment_game_ls_ROM_END = __romPos
                0x00000000808df2b0                segment_game_ls_VRAM_END = .
                0x000000000057a710                segment_game_item_ROM_START = __romPos
                0x00000000808df2b0                segment_game_item_VRAM = ADDR (.segment_game_item)

.segment_game_item
                0x00000000808df2b0     0x1a40 load address 0x000000000057a710
                0x00000000808df2b0                segment_game_item_DATA_START = .
                0x00000000808df2b0                segment_game_item = .
 build/bin/us/segment_game_item.o(.data)
 .data          0x00000000808df2b0     0x1a40 build/bin/us/segment_game_item.o
                0x00000000808df2b0                _binary_bin_us_segment_game_item_bin_start
                0x00000000808e0cf0                _binary_bin_us_segment_game_item_bin_end
                0x00000000808e0cf0                segment_game_item_DATA_END = .
                0x0000000000001a40                segment_game_item_DATA_SIZE = ABSOLUTE ((segment_game_item_DATA_END - segment_game_item_DATA_START))
                0x0000000000646e68                __romPos = (__romPos + SIZEOF (.segment_game_item))
                0x000000000057c150                segment_game_item_ROM_END = __romPos
                0x00000000808e0cf0                segment_game_item_VRAM_END = .
                0x000000000057c150                segment_anime_a_ROM_START = __romPos
                0x00000000808e0cf0                segment_anime_a_VRAM = ADDR (.segment_anime_a)

.segment_anime_a
                0x00000000808e0cf0    0x10370 load address 0x000000000057c150
                0x00000000808e0cf0                segment_anime_a_DATA_START = .
                0x00000000808e0cf0                segment_anime_a = .
 build/bin/us/segment_anime_a.o(.data)
 .data          0x00000000808e0cf0    0x10370 build/bin/us/segment_anime_a.o
                0x00000000808e0cf0                _binary_bin_us_segment_anime_a_bin_start
                0x00000000808f1060                _binary_bin_us_segment_anime_a_bin_end
                0x00000000808f1060                segment_anime_a_DATA_END = .
                0x0000000000010370                segment_anime_a_DATA_SIZE = ABSOLUTE ((segment_anime_a_DATA_END - segment_anime_a_DATA_START))
                0x0000000000646e68                __romPos = (__romPos + SIZEOF (.segment_anime_a))
                0x000000000058c4c0                segment_anime_a_ROM_END = __romPos
                0x00000000808f1060                segment_anime_a_VRAM_END = .
                0x000000000058c4c0                segment_anime_b_ROM_START = __romPos
                0x00000000808f1060                segment_anime_b_VRAM = ADDR (.segment_anime_b)

.segment_anime_b
                0x00000000808f1060     0x6100 load address 0x000000000058c4c0
                0x00000000808f1060                segment_anime_b_DATA_START = .
                0x00000000808f1060                segment_anime_b = .
 build/bin/us/segment_anime_b.o(.data)
 .data          0x00000000808f1060     0x6100 build/bin/us/segment_anime_b.o
                0x00000000808f1060                _binary_bin_us_segment_anime_b_bin_start
                0x00000000808f7160                _binary_bin_us_segment_anime_b_bin_end
                0x00000000808f7160                segment_anime_b_DATA_END = .
                0x0000000000006100                segment_anime_b_DATA_SIZE = ABSOLUTE ((segment_anime_b_DATA_END - segment_anime_b_DATA_START))
                0x0000000000646e68                __romPos = (__romPos + SIZEOF (.segment_anime_b))
                0x00000000005925c0                segment_anime_b_ROM_END = __romPos
                0x00000000808f7160                segment_anime_b_VRAM_END = .
                0x00000000005925c0                segment_anime_c_ROM_START = __romPos
                0x00000000808f7160                segment_anime_c_VRAM = ADDR (.segment_anime_c)

.segment_anime_c
                0x00000000808f7160    0x10ff0 load address 0x00000000005925c0
                0x00000000808f7160                segment_anime_c_DATA_START = .
                0x00000000808f7160                segment_anime_c = .
 build/bin/us/segment_anime_c.o(.data)
 .data          0x00000000808f7160    0x10ff0 build/bin/us/segment_anime_c.o
                0x00000000808f7160                _binary_bin_us_segment_anime_c_bin_start
                0x0000000080908150                _binary_bin_us_segment_anime_c_bin_end
                0x0000000080908150                segment_anime_c_DATA_END = .
                0x0000000000010ff0                segment_anime_c_DATA_SIZE = ABSOLUTE ((segment_anime_c_DATA_END - segment_anime_c_DATA_START))
                0x0000000000646e68                __romPos = (__romPos + SIZEOF (.segment_anime_c))
                0x00000000005a35b0                segment_anime_c_ROM_END = __romPos
                0x0000000080908150                segment_anime_c_VRAM_END = .
                0x00000000005a35b0                segment_anime_d_ROM_START = __romPos
                0x0000000080908150                segment_anime_d_VRAM = ADDR (.segment_anime_d)

.segment_anime_d
                0x0000000080908150     0x8a30 load address 0x00000000005a35b0
                0x0000000080908150                segment_anime_d_DATA_START = .
                0x0000000080908150                segment_anime_d = .
 build/bin/us/segment_anime_d.o(.data)
 .data          0x0000000080908150     0x8a30 build/bin/us/segment_anime_d.o
                0x0000000080908150                _binary_bin_us_segment_anime_d_bin_start
                0x0000000080910b80                _binary_bin_us_segment_anime_d_bin_end
                0x0000000080910b80                segment_anime_d_DATA_END = .
                0x0000000000008a30                segment_anime_d_DATA_SIZE = ABSOLUTE ((segment_anime_d_DATA_END - segment_anime_d_DATA_START))
                0x0000000000646e68                __romPos = (__romPos + SIZEOF (.segment_anime_d))
                0x00000000005abfe0                segment_anime_d_ROM_END = __romPos
                0x0000000080910b80                segment_anime_d_VRAM_END = .
                0x00000000005abfe0                segment_anime_e_ROM_START = __romPos
                0x0000000080910b80                segment_anime_e_VRAM = ADDR (.segment_anime_e)

.segment_anime_e
                0x0000000080910b80     0xa0b0 load address 0x00000000005abfe0
                0x0000000080910b80                segment_anime_e_DATA_START = .
                0x0000000080910b80                segment_anime_e = .
 build/bin/us/segment_anime_e.o(.data)
 .data          0x0000000080910b80     0xa0b0 build/bin/us/segment_anime_e.o
                0x0000000080910b80                _binary_bin_us_segment_anime_e_bin_start
                0x000000008091ac30                _binary_bin_us_segment_anime_e_bin_end
                0x000000008091ac30                segment_anime_e_DATA_END = .
                0x000000000000a0b0                segment_anime_e_DATA_SIZE = ABSOLUTE ((segment_anime_e_DATA_END - segment_anime_e_DATA_START))
                0x0000000000646e68                __romPos = (__romPos + SIZEOF (.segment_anime_e))
                0x00000000005b6090                segment_anime_e_ROM_END = __romPos
                0x000000008091ac30                segment_anime_e_VRAM_END = .
                0x00000000005b6090                segment_anime_f_ROM_START = __romPos
                0x000000008091ac30                segment_anime_f_VRAM = ADDR (.segment_anime_f)

.segment_anime_f
                0x000000008091ac30     0x6c50 load address 0x00000000005b6090
                0x000000008091ac30                segment_anime_f_DATA_START = .
                0x000000008091ac30                segment_anime_f = .
 build/bin/us/segment_anime_f.o(.data)
 .data          0x000000008091ac30     0x6c50 build/bin/us/segment_anime_f.o
                0x000000008091ac30                _binary_bin_us_segment_anime_f_bin_start
                0x0000000080921880                _binary_bin_us_segment_anime_f_bin_end
                0x0000000080921880                segment_anime_f_DATA_END = .
                0x0000000000006c50                segment_anime_f_DATA_SIZE = ABSOLUTE ((segment_anime_f_DATA_END - segment_anime_f_DATA_START))
                0x0000000000646e68                __romPos = (__romPos + SIZEOF (.segment_anime_f))
                0x00000000005bcce0                segment_anime_f_ROM_END = __romPos
                0x0000000080921880                segment_anime_f_VRAM_END = .
                0x00000000005bcce0                segment_anime_g_ROM_START = __romPos
                0x0000000080921880                segment_anime_g_VRAM = ADDR (.segment_anime_g)

.segment_anime_g
                0x0000000080921880     0xd430 load address 0x00000000005bcce0
                0x0000000080921880                segment_anime_g_DATA_START = .
                0x0000000080921880                segment_anime_g = .
 build/bin/us/segment_anime_g.o(.data)
 .data          0x0000000080921880     0xd430 build/bin/us/segment_anime_g.o
                0x0000000080921880                _binary_bin_us_segment_anime_g_bin_start
                0x000000008092ecb0                _binary_bin_us_segment_anime_g_bin_end
                0x000000008092ecb0                segment_anime_g_DATA_END = .
                0x000000000000d430                segment_anime_g_DATA_SIZE = ABSOLUTE ((segment_anime_g_DATA_END - segment_anime_g_DATA_START))
                0x0000000000646e68                __romPos = (__romPos + SIZEOF (.segment_anime_g))
                0x00000000005ca110                segment_anime_g_ROM_END = __romPos
                0x000000008092ecb0                segment_anime_g_VRAM_END = .
                0x00000000005ca110                segment_anime_h_ROM_START = __romPos
                0x000000008092ecb0                segment_anime_h_VRAM = ADDR (.segment_anime_h)

.segment_anime_h
                0x000000008092ecb0     0x5740 load address 0x00000000005ca110
                0x000000008092ecb0                segment_anime_h_DATA_START = .
                0x000000008092ecb0                segment_anime_h = .
 build/bin/us/segment_anime_h.o(.data)
 .data          0x000000008092ecb0     0x5740 build/bin/us/segment_anime_h.o
                0x000000008092ecb0                _binary_bin_us_segment_anime_h_bin_start
                0x00000000809343f0                _binary_bin_us_segment_anime_h_bin_end
                0x00000000809343f0                segment_anime_h_DATA_END = .
                0x0000000000005740                segment_anime_h_DATA_SIZE = ABSOLUTE ((segment_anime_h_DATA_END - segment_anime_h_DATA_START))
                0x0000000000646e68                __romPos = (__romPos + SIZEOF (.segment_anime_h))
                0x00000000005cf850                segment_anime_h_ROM_END = __romPos
                0x00000000809343f0                segment_anime_h_VRAM_END = .
                0x00000000005cf850                segment_anime_i_ROM_START = __romPos
                0x00000000809343f0                segment_anime_i_VRAM = ADDR (.segment_anime_i)

.segment_anime_i
                0x00000000809343f0     0x93a0 load address 0x00000000005cf850
                0x00000000809343f0                segment_anime_i_DATA_START = .
                0x00000000809343f0                segment_anime_i = .
 build/bin/us/segment_anime_i.o(.data)
 .data          0x00000000809343f0     0x93a0 build/bin/us/segment_anime_i.o
                0x00000000809343f0                _binary_bin_us_segment_anime_i_bin_start
                0x000000008093d790                _binary_bin_us_segment_anime_i_bin_end
                0x000000008093d790                segment_anime_i_DATA_END = .
                0x00000000000093a0                segment_anime_i_DATA_SIZE = ABSOLUTE ((segment_anime_i_DATA_END - segment_anime_i_DATA_START))
                0x0000000000646e68                __romPos = (__romPos + SIZEOF (.segment_anime_i))
                0x00000000005d8bf0                segment_anime_i_ROM_END = __romPos
                0x000000008093d790                segment_anime_i_VRAM_END = .
                0x00000000005d8bf0                segment_anime_j_ROM_START = __romPos
                0x000000008093d790                segment_anime_j_VRAM = ADDR (.segment_anime_j)

.segment_anime_j
                0x000000008093d790     0xac30 load address 0x00000000005d8bf0
                0x000000008093d790                segment_anime_j_DATA_START = .
                0x000000008093d790                segment_anime_j = .
 build/bin/us/segment_anime_j.o(.data)
 .data          0x000000008093d790     0xac30 build/bin/us/segment_anime_j.o
                0x000000008093d790                _binary_bin_us_segment_anime_j_bin_start
                0x00000000809483c0                _binary_bin_us_segment_anime_j_bin_end
                0x00000000809483c0                segment_anime_j_DATA_END = .
                0x000000000000ac30                segment_anime_j_DATA_SIZE = ABSOLUTE ((segment_anime_j_DATA_END - segment_anime_j_DATA_START))
                0x0000000000646e68                __romPos = (__romPos + SIZEOF (.segment_anime_j))
                0x00000000005e3820                segment_anime_j_ROM_END = __romPos
                0x00000000809483c0                segment_anime_j_VRAM_END = .
                0x00000000005e3820                segment_anime_k_ROM_START = __romPos
                0x00000000809483c0                segment_anime_k_VRAM = ADDR (.segment_anime_k)

.segment_anime_k
                0x00000000809483c0     0x51b0 load address 0x00000000005e3820
                0x00000000809483c0                segment_anime_k_DATA_START = .
                0x00000000809483c0                segment_anime_k = .
 build/bin/us/segment_anime_k.o(.data)
 .data          0x00000000809483c0     0x51b0 build/bin/us/segment_anime_k.o
                0x00000000809483c0                _binary_bin_us_segment_anime_k_bin_start
                0x000000008094d570                _binary_bin_us_segment_anime_k_bin_end
                0x000000008094d570                segment_anime_k_DATA_END = .
                0x00000000000051b0                segment_anime_k_DATA_SIZE = ABSOLUTE ((segment_anime_k_DATA_END - segment_anime_k_DATA_START))
                0x0000000000646e68                __romPos = (__romPos + SIZEOF (.segment_anime_k))
                0x00000000005e89d0                segment_anime_k_ROM_END = __romPos
                0x000000008094d570                segment_anime_k_VRAM_END = .
                0x00000000005e89d0                segment_anime_l_ROM_START = __romPos
                0x000000008094d570                segment_anime_l_VRAM = ADDR (.segment_anime_l)

.segment_anime_l
                0x000000008094d570     0xccd0 load address 0x00000000005e89d0
                0x000000008094d570                segment_anime_l_DATA_START = .
                0x000000008094d570                segment_anime_l = .
 build/bin/us/segment_anime_l.o(.data)
 .data          0x000000008094d570     0xccd0 build/bin/us/segment_anime_l.o
                0x000000008094d570                _binary_bin_us_segment_anime_l_bin_start
                0x000000008095a240                _binary_bin_us_segment_anime_l_bin_end
                0x000000008095a240                segment_anime_l_DATA_END = .
                0x000000000000ccd0                segment_anime_l_DATA_SIZE = ABSOLUTE ((segment_anime_l_DATA_END - segment_anime_l_DATA_START))
                0x0000000000646e68                __romPos = (__romPos + SIZEOF (.segment_anime_l))
                0x00000000005f56a0                segment_anime_l_ROM_END = __romPos
                0x000000008095a240                segment_anime_l_VRAM_END = .
                0x00000000005f56a0                segment_anime_m_ROM_START = __romPos
                0x000000008095a240                segment_anime_m_VRAM = ADDR (.segment_anime_m)

.segment_anime_m
                0x000000008095a240     0x6b60 load address 0x00000000005f56a0
                0x000000008095a240                segment_anime_m_DATA_START = .
                0x000000008095a240                segment_anime_m = .
 build/bin/us/segment_anime_m.o(.data)
 .data          0x000000008095a240     0x6b60 build/bin/us/segment_anime_m.o
                0x000000008095a240                _binary_bin_us_segment_anime_m_bin_start
                0x0000000080960da0                _binary_bin_us_segment_anime_m_bin_end
                0x0000000080960da0                segment_anime_m_DATA_END = .
                0x0000000000006b60                segment_anime_m_DATA_SIZE = ABSOLUTE ((segment_anime_m_DATA_END - segment_anime_m_DATA_START))
                0x0000000000646e68                __romPos = (__romPos + SIZEOF (.segment_anime_m))
                0x00000000005fc200                segment_anime_m_ROM_END = __romPos
                0x0000000080960da0                segment_anime_m_VRAM_END = .
                0x00000000005fc200                segment_anime_n_ROM_START = __romPos
                0x0000000080960da0                segment_anime_n_VRAM = ADDR (.segment_anime_n)

.segment_anime_n
                0x0000000080960da0     0x8f80 load address 0x00000000005fc200
                0x0000000080960da0                segment_anime_n_DATA_START = .
                0x0000000080960da0                segment_anime_n = .
 build/bin/us/segment_anime_n.o(.data)
 .data          0x0000000080960da0     0x8f80 build/bin/us/segment_anime_n.o
                0x0000000080960da0                _binary_bin_us_segment_anime_n_bin_start
                0x0000000080969d20                _binary_bin_us_segment_anime_n_bin_end
                0x0000000080969d20                segment_anime_n_DATA_END = .
                0x0000000000008f80                segment_anime_n_DATA_SIZE = ABSOLUTE ((segment_anime_n_DATA_END - segment_anime_n_DATA_START))
                0x0000000000646e68                __romPos = (__romPos + SIZEOF (.segment_anime_n))
                0x0000000000605180                segment_anime_n_ROM_END = __romPos
                0x0000000080969d20                segment_anime_n_VRAM_END = .
                0x0000000000605180                segment_anime_o_ROM_START = __romPos
                0x0000000080969d20                segment_anime_o_VRAM = ADDR (.segment_anime_o)

.segment_anime_o
                0x0000000080969d20     0x6b60 load address 0x0000000000605180
                0x0000000080969d20                segment_anime_o_DATA_START = .
                0x0000000080969d20                segment_anime_o = .
 build/bin/us/segment_anime_o.o(.data)
 .data          0x0000000080969d20     0x6b60 build/bin/us/segment_anime_o.o
                0x0000000080969d20                _binary_bin_us_segment_anime_o_bin_start
                0x0000000080970880                _binary_bin_us_segment_anime_o_bin_end
                0x0000000080970880                segment_anime_o_DATA_END = .
                0x0000000000006b60                segment_anime_o_DATA_SIZE = ABSOLUTE ((segment_anime_o_DATA_END - segment_anime_o_DATA_START))
                0x0000000000646e68                __romPos = (__romPos + SIZEOF (.segment_anime_o))
                0x000000000060bce0                segment_anime_o_ROM_END = __romPos
                0x0000000080970880                segment_anime_o_VRAM_END = .
                0x000000000060bce0                segment_anime_mario_ROM_START = __romPos
                0x0000000080970880                segment_anime_mario_VRAM = ADDR (.segment_anime_mario)

.segment_anime_mario
                0x0000000080970880    0x2d790 load address 0x000000000060bce0
                0x0000000080970880                segment_anime_mario_DATA_START = .
                0x0000000080970880                segment_anime_mario = .
 build/bin/us/segment_anime_mario.o(.data)
 .data          0x0000000080970880    0x2d790 build/bin/us/segment_anime_mario.o
                0x0000000080970880                _binary_bin_us_segment_anime_mario_bin_start
                0x000000008099e010                _binary_bin_us_segment_anime_mario_bin_end
                0x000000008099e010                segment_anime_mario_DATA_END = .
                0x000000000002d790                segment_anime_mario_DATA_SIZE = ABSOLUTE ((segment_anime_mario_DATA_END - segment_anime_mario_DATA_START))
                0x0000000000646e68                __romPos = (__romPos + SIZEOF (.segment_anime_mario))
                0x0000000000639470                segment_anime_mario_ROM_END = __romPos
                0x000000008099e010                segment_anime_mario_VRAM_END = .
                0x0000000000639470                segment_anime_virus_b_ROM_START = __romPos
                0x000000008099e010                segment_anime_virus_b_VRAM = ADDR (.segment_anime_virus_b)

.segment_anime_virus_b
                0x000000008099e010     0x1bf0 load address 0x0000000000639470
                0x000000008099e010                segment_anime_virus_b_DATA_START = .
                0x000000008099e010                segment_anime_virus_b = .
 build/bin/us/segment_anime_virus_b.o(.data)
 .data          0x000000008099e010     0x1bf0 build/bin/us/segment_anime_virus_b.o
                0x000000008099e010                _binary_bin_us_segment_anime_virus_b_bin_start
                0x000000008099fc00                _binary_bin_us_segment_anime_virus_b_bin_end
                0x000000008099fc00                segment_anime_virus_b_DATA_END = .
                0x0000000000001bf0                segment_anime_virus_b_DATA_SIZE = ABSOLUTE ((segment_anime_virus_b_DATA_END - segment_anime_virus_b_DATA_START))
                0x0000000000646e68                __romPos = (__romPos + SIZEOF (.segment_anime_virus_b))
                0x000000000063b060                segment_anime_virus_b_ROM_END = __romPos
                0x000000008099fc00                segment_anime_virus_b_VRAM_END = .
                0x000000000063b060                segment_anime_virus_r_ROM_START = __romPos
                0x000000008099fc00                segment_anime_virus_r_VRAM = ADDR (.segment_anime_virus_r)

.segment_anime_virus_r
                0x000000008099fc00     0x15a0 load address 0x000000000063b060
                0x000000008099fc00                segment_anime_virus_r_DATA_START = .
                0x000000008099fc00                segment_anime_virus_r = .
 build/bin/us/segment_anime_virus_r.o(.data)
 .data          0x000000008099fc00     0x15a0 build/bin/us/segment_anime_virus_r.o
                0x000000008099fc00                _binary_bin_us_segment_anime_virus_r_bin_start
                0x00000000809a11a0                _binary_bin_us_segment_anime_virus_r_bin_end
                0x00000000809a11a0                segment_anime_virus_r_DATA_END = .
                0x00000000000015a0                segment_anime_virus_r_DATA_SIZE = ABSOLUTE ((segment_anime_virus_r_DATA_END - segment_anime_virus_r_DATA_START))
                0x0000000000646e68                __romPos = (__romPos + SIZEOF (.segment_anime_virus_r))
                0x000000000063c600                segment_anime_virus_r_ROM_END = __romPos
                0x00000000809a11a0                segment_anime_virus_r_VRAM_END = .
                0x000000000063c600                segment_anime_virus_y_ROM_START = __romPos
                0x00000000809a11a0                segment_anime_virus_y_VRAM = ADDR (.segment_anime_virus_y)

.segment_anime_virus_y
                0x00000000809a11a0     0x15a0 load address 0x000000000063c600
                0x00000000809a11a0                segment_anime_virus_y_DATA_START = .
                0x00000000809a11a0                segment_anime_virus_y = .
 build/bin/us/segment_anime_virus_y.o(.data)
 .data          0x00000000809a11a0     0x15a0 build/bin/us/segment_anime_virus_y.o
                0x00000000809a11a0                _binary_bin_us_segment_anime_virus_y_bin_start
                0x00000000809a2740                _binary_bin_us_segment_anime_virus_y_bin_end
                0x00000000809a2740                segment_anime_virus_y_DATA_END = .
                0x00000000000015a0                segment_anime_virus_y_DATA_SIZE = ABSOLUTE ((segment_anime_virus_y_DATA_END - segment_anime_virus_y_DATA_START))
                0x0000000000646e68                __romPos = (__romPos + SIZEOF (.segment_anime_virus_y))
                0x000000000063dba0                segment_anime_virus_y_ROM_END = __romPos
                0x00000000809a2740                segment_anime_virus_y_VRAM_END = .
                0x000000000063dba0                segment_anime_smog_ROM_START = __romPos
                0x00000000809a2740                segment_anime_smog_VRAM = ADDR (.segment_anime_smog)

.segment_anime_smog
                0x00000000809a2740     0x1340 load address 0x000000000063dba0
                0x00000000809a2740                segment_anime_smog_DATA_START = .
                0x00000000809a2740                segment_anime_smog = .
 build/bin/us/segment_anime_smog.o(.data)
 .data          0x00000000809a2740     0x1340 build/bin/us/segment_anime_smog.o
                0x00000000809a2740                _binary_bin_us_segment_anime_smog_bin_start
                0x00000000809a3a80                _binary_bin_us_segment_anime_smog_bin_end
                0x00000000809a3a80                segment_anime_smog_DATA_END = .
                0x0000000000001340                segment_anime_smog_DATA_SIZE = ABSOLUTE ((segment_anime_smog_DATA_END - segment_anime_smog_DATA_START))
                0x0000000000646e68                __romPos = (__romPos + SIZEOF (.segment_anime_smog))
                0x000000000063eee0                segment_anime_smog_ROM_END = __romPos
                0x00000000809a3a80                segment_anime_smog_VRAM_END = .
                0x000000000063eee0                segment_tutorial_data_ROM_START = __romPos
                0x00000000809a3a80                segment_tutorial_data_VRAM = ADDR (.segment_tutorial_data)

.segment_tutorial_data
                0x00000000809a3a80     0x7f88 load address 0x000000000063eee0
                0x00000000809a3a80                segment_tutorial_data_DATA_START = .
                0x00000000809a3a80                segment_tutorial_data = .
 build/bin/us/segment_tutorial_data.o(.data)
 .data          0x00000000809a3a80     0x7f88 build/bin/us/segment_tutorial_data.o
                0x00000000809a3a80                _binary_bin_us_segment_tutorial_data_bin_start
                0x00000000809aba08                _binary_bin_us_segment_tutorial_data_bin_end
                0x00000000809aba08                segment_tutorial_data_DATA_END = .
                0x0000000000007f88                segment_tutorial_data_DATA_SIZE = ABSOLUTE ((segment_tutorial_data_DATA_END - segment_tutorial_data_DATA_START))
                0x0000000000646e68                __romPos = (__romPos + SIZEOF (.segment_tutorial_data))
                0x0000000000646e68                segment_tutorial_data_ROM_END = __romPos
                0x00000000809aba08                segment_tutorial_data_VRAM_END = .

/DISCARD/
 *(*)
                0x00000000a4040000                SP_MEM_ADDR_REG = 0xa4040000
                0x00000000a4040004                SP_DRAM_ADDR_REG = 0xa4040004
                0x00000000a4040008                SP_RD_LEN_REG = 0xa4040008
                0x00000000a404000c                SP_WR_LEN_REG = 0xa404000c
                0x00000000a4040010                SP_STATUS_REG = 0xa4040010
                0x00000000a4040014                SP_DMA_FULL_REG = 0xa4040014
                0x00000000a4040018                SP_DMA_BUSY_REG = 0xa4040018
                0x00000000a404001c                SP_SEMAPHORE_REG = 0xa404001c
                0x00000000a4080000                SP_PC = 0xa4080000
                0x00000000a4100000                DPC_START_REG = 0xa4100000
                0x00000000a4100004                DPC_END_REG = 0xa4100004
                0x00000000a4100008                DPC_CURRENT_REG = 0xa4100008
                0x00000000a410000c                DPC_STATUS_REG = 0xa410000c
                0x00000000a4100010                DPC_CLOCK_REG = 0xa4100010
                0x00000000a4100014                DPC_BUFBUSY_REG = 0xa4100014
                0x00000000a4100018                DPC_PIPEBUSY_REG = 0xa4100018
                0x00000000a410001c                DPC_TMEM_REG = 0xa410001c
                0x00000000a4200000                DPS_TBIST_REG = 0xa4200000
                0x00000000a4200004                DPS_TEST_MODE_REG = 0xa4200004
                0x00000000a4200008                DPS_BUFTEST_ADDR_REG = 0xa4200008
                0x00000000a420000c                DPS_BUFTEST_DATA_REG = 0xa420000c
                0x00000000a4300000                MI_MODE_REG = 0xa4300000
                0x00000000a4300004                MI_VERSION_REG = 0xa4300004
                0x00000000a4300008                MI_INTR_REG = 0xa4300008
                0x00000000a430000c                MI_INTR_MASK_REG = 0xa430000c
                0x00000000a4400000                VI_STATUS_REG = 0xa4400000
                0x00000000a4400004                VI_DRAM_ADDR_REG = 0xa4400004
                0x00000000a4400008                VI_WIDTH_REG = 0xa4400008
                0x00000000a440000c                VI_INTR_REG = 0xa440000c
                0x00000000a4400010                VI_CURRENT_REG = 0xa4400010
                0x00000000a4400014                VI_BURST_REG = 0xa4400014
                0x00000000a4400018                VI_V_SYNC_REG = 0xa4400018
                0x00000000a440001c                VI_H_SYNC_REG = 0xa440001c
                0x00000000a4400020                VI_LEAP_REG = 0xa4400020
                0x00000000a4400024                VI_H_START_REG = 0xa4400024
                0x00000000a4400028                VI_V_START_REG = 0xa4400028
                0x00000000a440002c                VI_V_BURST_REG = 0xa440002c
                0x00000000a4400030                VI_X_SCALE_REG = 0xa4400030
                0x00000000a4400034                VI_Y_SCALE_REG = 0xa4400034
                0x00000000a4500000                AI_DRAM_ADDR_REG = 0xa4500000
                0x00000000a4500004                AI_LEN_REG = 0xa4500004
                0x00000000a4500008                AI_CONTROL_REG = 0xa4500008
                0x00000000a450000c                AI_STATUS_REG = 0xa450000c
                0x00000000a4500010                AI_DACRATE_REG = 0xa4500010
                0x00000000a4500014                AI_BITRATE_REG = 0xa4500014
                0x00000000a4600000                PI_DRAM_ADDR_REG = 0xa4600000
                0x00000000a4600004                PI_CART_ADDR_REG = 0xa4600004
                0x00000000a4600005                D_A4600005 = 0xa4600005
                0x00000000a4600006                D_A4600006 = 0xa4600006
                0x00000000a4600007                D_A4600007 = 0xa4600007
                0x00000000a4600008                PI_RD_LEN_REG = 0xa4600008
                0x00000000a460000c                PI_WR_LEN_REG = 0xa460000c
                0x00000000a4600010                PI_STATUS_REG = 0xa4600010
                0x00000000a4600014                PI_BSD_DOM1_LAT_REG = 0xa4600014
                0x00000000a4600018                PI_BSD_DOM1_PWD_REG = 0xa4600018
                0x00000000a460001c                PI_BSD_DOM1_PGS_REG = 0xa460001c
                0x00000000a4600020                PI_BSD_DOM1_RLS_REG = 0xa4600020
                0x00000000a4600024                PI_BSD_DOM2_LAT_REG = 0xa4600024
                0x00000000a4600028                PI_BSD_DOM2_LWD_REG = 0xa4600028
                0x00000000a460002c                PI_BSD_DOM2_PGS_REG = 0xa460002c
                0x00000000a4600030                PI_BSD_DOM2_RLS_REG = 0xa4600030
                0x00000000a4700000                RI_MODE_REG = 0xa4700000
                0x00000000a4700004                RI_CONFIG_REG = 0xa4700004
                0x00000000a4700008                RI_CURRENT_LOAD_REG = 0xa4700008
                0x00000000a470000c                RI_SELECT_REG = 0xa470000c
                0x00000000a4700010                RI_REFRESH_REG = 0xa4700010
                0x00000000a4700014                RI_LATENCY_REG = 0xa4700014
                0x00000000a4700018                RI_RERROR_REG = 0xa4700018
                0x00000000a470001c                RI_WERROR_REG = 0xa470001c
                0x00000000a4800000                SI_DRAM_ADDR_REG = 0xa4800000
                0x00000000a4800004                SI_PIF_ADDR_RD64B_REG = 0xa4800004
                0x00000000a4800008                D_A4800008 = 0xa4800008
                0x00000000a480000c                D_A480000C = 0xa480000c
                0x00000000a4800010                SI_PIF_ADDR_WR64B_REG = 0xa4800010
                0x00000000a4800014                D_A4800014 = 0xa4800014
                0x00000000a4800018                SI_STATUS_REG = 0xa4800018
                0x00000000769d4d13                ROMHEADER_CHECKSUM1 = 0x769d4d13
                0x00000000da233ffe                ROMHEADER_CHECKSUM2 = 0xda233ffe
                0x0000000000008001                boot_BSS_START_HI = (boot_BSS_START >> 0x10)
                0x0000000000000e60                boot_BSS_START_LO = (boot_BSS_START & 0xffff)
                0x0000000000000001                boot_BSS_SIZE_HI = (boot_BSS_SIZE >> 0x10)
                0x0000000000008de0                boot_BSS_SIZE_LO = (boot_BSS_SIZE & 0xffff)
                0x0000000000008000                bootproc_HI = (bootproc >> 0x10)
                0x0000000000000494                bootproc_LO = (bootproc & 0xffff)
                0x0000000000008001                gBootThreadStack_HI = (gBootThreadStack >> 0x10)
                0x000000000000d8c0                gBootThreadStack_LO = (gBootThreadStack & 0xffff)
                0x000000008001f8c0                gBootThreadStackTop = (gBootThreadStack + 0x2000)
                0x0000000000008001                gBootThreadStackTop_HI = (gBootThreadStackTop >> 0x10)
                0x000000000000f8c0                gBootThreadStackTop_LO = (gBootThreadStackTop & 0xffff)
OUTPUT(build/drmario64.us.elf elf32-tradbigmips)
