
Discarded input sections

 .reginfo       0x0000000000000000       0x18 build/src/rom_header/rom_header.o
 .mdebug        0x0000000000000000     0x735c build/src/rom_header/rom_header.o
 .note          0x0000000000000000       0x14 build/src/rom_header/rom_header.o
 .comment       0x0000000000000000       0x37 build/src/rom_header/rom_header.o
 .reginfo       0x0000000000000000       0x18 build/src/entry/entry.o
 .MIPS.abiflags
                0x0000000000000000       0x18 build/src/entry/entry.o
 .pdr           0x0000000000000000       0x20 build/src/entry/entry.o
 .gnu.attributes
                0x0000000000000000       0x10 build/src/entry/entry.o
 .bss           0x0000000000000000        0x0 build/src/boot/boot_main.o
 .reginfo       0x0000000000000000       0x18 build/src/boot/boot_main.o
 .mdebug        0x0000000000000000     0xf2c4 build/src/boot/boot_main.o
 .note          0x0000000000000000       0x14 build/src/boot/boot_main.o
 .comment       0x0000000000000000       0x37 build/src/boot/boot_main.o
 .bss           0x0000000000000000        0x0 build/src/boot/dmadata.o
 .reginfo       0x0000000000000000       0x18 build/src/boot/dmadata.o
 .mdebug        0x0000000000000000     0xecb4 build/src/boot/dmadata.o
 .note          0x0000000000000000       0x14 build/src/boot/dmadata.o
 .comment       0x0000000000000000       0x37 build/src/boot/dmadata.o
 .data          0x0000000000000000        0x0 build/src/gzip/inflate.o
 .bss           0x0000000000000000        0x0 build/src/gzip/inflate.o
 .reginfo       0x0000000000000000       0x18 build/src/gzip/inflate.o
 .mdebug        0x0000000000000000     0x806c build/src/gzip/inflate.o
 .note          0x0000000000000000       0x14 build/src/gzip/inflate.o
 .comment       0x0000000000000000       0x37 build/src/gzip/inflate.o
 .data          0x0000000000000000        0x0 build/src/gzip/unzip.o
 .bss           0x0000000000000000        0x0 build/src/gzip/unzip.o
 .reginfo       0x0000000000000000       0x18 build/src/gzip/unzip.o
 .mdebug        0x0000000000000000     0xf710 build/src/gzip/unzip.o
 .note          0x0000000000000000       0x14 build/src/gzip/unzip.o
 .comment       0x0000000000000000       0x37 build/src/gzip/unzip.o
 .data          0x0000000000000000        0x0 build/src/boot/util.o
 .bss           0x0000000000000000        0x0 build/src/boot/util.o
 .reginfo       0x0000000000000000       0x18 build/src/boot/util.o
 .mdebug        0x0000000000000000     0x77c8 build/src/boot/util.o
 .note          0x0000000000000000       0x14 build/src/boot/util.o
 .comment       0x0000000000000000       0x37 build/src/boot/util.o
 .bss           0x0000000000000000        0x0 build/src/boot/rom_offsets.o
 .reginfo       0x0000000000000000       0x18 build/src/boot/rom_offsets.o
 .mdebug        0x0000000000000000     0x97b8 build/src/boot/rom_offsets.o
 .note          0x0000000000000000       0x14 build/src/boot/rom_offsets.o
 .comment       0x0000000000000000       0x37 build/src/boot/rom_offsets.o
 .bss           0x0000000000000000        0x0 build/src/gateway/003630.o
 .reginfo       0x0000000000000000       0x18 build/src/gateway/003630.o
 .mdebug        0x0000000000000000     0x761c build/src/gateway/003630.o
 .note          0x0000000000000000       0x14 build/src/gateway/003630.o
 .comment       0x0000000000000000       0x37 build/src/gateway/003630.o
 .data          0x0000000000000000        0x0 build/asm/cn/libultra/aigetlen.o
 .bss           0x0000000000000000        0x0 build/asm/cn/libultra/aigetlen.o
 .reginfo       0x0000000000000000       0x18 build/asm/cn/libultra/aigetlen.o
 .MIPS.abiflags
                0x0000000000000000       0x18 build/asm/cn/libultra/aigetlen.o
 .pdr           0x0000000000000000        0x0 build/asm/cn/libultra/aigetlen.o
 .gnu.attributes
                0x0000000000000000       0x10 build/asm/cn/libultra/aigetlen.o
 .data          0x0000000000000000        0x0 build/asm/cn/libultra/aigetstat.o
 .bss           0x0000000000000000        0x0 build/asm/cn/libultra/aigetstat.o
 .reginfo       0x0000000000000000       0x18 build/asm/cn/libultra/aigetstat.o
 .MIPS.abiflags
                0x0000000000000000       0x18 build/asm/cn/libultra/aigetstat.o
 .pdr           0x0000000000000000        0x0 build/asm/cn/libultra/aigetstat.o
 .gnu.attributes
                0x0000000000000000       0x10 build/asm/cn/libultra/aigetstat.o
 .data          0x0000000000000000        0x0 build/asm/cn/libultra/aisetfreq.o
 .bss           0x0000000000000000        0x0 build/asm/cn/libultra/aisetfreq.o
 .reginfo       0x0000000000000000       0x18 build/asm/cn/libultra/aisetfreq.o
 .MIPS.abiflags
                0x0000000000000000       0x18 build/asm/cn/libultra/aisetfreq.o
 .pdr           0x0000000000000000        0x0 build/asm/cn/libultra/aisetfreq.o
 .gnu.attributes
                0x0000000000000000       0x10 build/asm/cn/libultra/aisetfreq.o
 .data          0x0000000000000000        0x0 build/asm/cn/libultra/aisetnextbuf.o
 .bss           0x0000000000000000        0x0 build/asm/cn/libultra/aisetnextbuf.o
 .reginfo       0x0000000000000000       0x18 build/asm/cn/libultra/aisetnextbuf.o
 .MIPS.abiflags
                0x0000000000000000       0x18 build/asm/cn/libultra/aisetnextbuf.o
 .pdr           0x0000000000000000        0x0 build/asm/cn/libultra/aisetnextbuf.o
 .gnu.attributes
                0x0000000000000000       0x10 build/asm/cn/libultra/aisetnextbuf.o
 .data          0x0000000000000000        0x0 build/asm/cn/libultra/env.o
 .bss           0x0000000000000000        0x0 build/asm/cn/libultra/env.o
 .reginfo       0x0000000000000000       0x18 build/asm/cn/libultra/env.o
 .MIPS.abiflags
                0x0000000000000000       0x18 build/asm/cn/libultra/env.o
 .pdr           0x0000000000000000        0x0 build/asm/cn/libultra/env.o
 .gnu.attributes
                0x0000000000000000       0x10 build/asm/cn/libultra/env.o
 .data          0x0000000000000000        0x0 build/asm/cn/libultra/sl.o
 .bss           0x0000000000000000        0x0 build/asm/cn/libultra/sl.o
 .reginfo       0x0000000000000000       0x18 build/asm/cn/libultra/sl.o
 .MIPS.abiflags
                0x0000000000000000       0x18 build/asm/cn/libultra/sl.o
 .pdr           0x0000000000000000        0x0 build/asm/cn/libultra/sl.o
 .gnu.attributes
                0x0000000000000000       0x10 build/asm/cn/libultra/sl.o
 .data          0x0000000000000000        0x0 build/asm/cn/libultra/heapinit.o
 .bss           0x0000000000000000        0x0 build/asm/cn/libultra/heapinit.o
 .reginfo       0x0000000000000000       0x18 build/asm/cn/libultra/heapinit.o
 .MIPS.abiflags
                0x0000000000000000       0x18 build/asm/cn/libultra/heapinit.o
 .pdr           0x0000000000000000        0x0 build/asm/cn/libultra/heapinit.o
 .gnu.attributes
                0x0000000000000000       0x10 build/asm/cn/libultra/heapinit.o
 .data          0x0000000000000000        0x0 build/asm/cn/libultra/synthesizer.o
 .bss           0x0000000000000000        0x0 build/asm/cn/libultra/synthesizer.o
 .reginfo       0x0000000000000000       0x18 build/asm/cn/libultra/synthesizer.o
 .MIPS.abiflags
                0x0000000000000000       0x18 build/asm/cn/libultra/synthesizer.o
 .pdr           0x0000000000000000        0x0 build/asm/cn/libultra/synthesizer.o
 .gnu.attributes
                0x0000000000000000       0x10 build/asm/cn/libultra/synthesizer.o
 .data          0x0000000000000000        0x0 build/asm/cn/libultra/syndelete.o
 .bss           0x0000000000000000        0x0 build/asm/cn/libultra/syndelete.o
 .reginfo       0x0000000000000000       0x18 build/asm/cn/libultra/syndelete.o
 .MIPS.abiflags
                0x0000000000000000       0x18 build/asm/cn/libultra/syndelete.o
 .pdr           0x0000000000000000        0x0 build/asm/cn/libultra/syndelete.o
 .gnu.attributes
                0x0000000000000000       0x10 build/asm/cn/libultra/syndelete.o
 .data          0x0000000000000000        0x0 build/asm/cn/libultra/synaddplayer.o
 .bss           0x0000000000000000        0x0 build/asm/cn/libultra/synaddplayer.o
 .reginfo       0x0000000000000000       0x18 build/asm/cn/libultra/synaddplayer.o
 .MIPS.abiflags
                0x0000000000000000       0x18 build/asm/cn/libultra/synaddplayer.o
 .pdr           0x0000000000000000        0x0 build/asm/cn/libultra/synaddplayer.o
 .gnu.attributes
                0x0000000000000000       0x10 build/asm/cn/libultra/synaddplayer.o
 .data          0x0000000000000000        0x0 build/asm/cn/libultra/synallocvoice.o
 .bss           0x0000000000000000        0x0 build/asm/cn/libultra/synallocvoice.o
 .reginfo       0x0000000000000000       0x18 build/asm/cn/libultra/synallocvoice.o
 .MIPS.abiflags
                0x0000000000000000       0x18 build/asm/cn/libultra/synallocvoice.o
 .pdr           0x0000000000000000        0x0 build/asm/cn/libultra/synallocvoice.o
 .gnu.attributes
                0x0000000000000000       0x10 build/asm/cn/libultra/synallocvoice.o
 .data          0x0000000000000000        0x0 build/asm/cn/libultra/synstopvoice.o
 .bss           0x0000000000000000        0x0 build/asm/cn/libultra/synstopvoice.o
 .reginfo       0x0000000000000000       0x18 build/asm/cn/libultra/synstopvoice.o
 .MIPS.abiflags
                0x0000000000000000       0x18 build/asm/cn/libultra/synstopvoice.o
 .pdr           0x0000000000000000        0x0 build/asm/cn/libultra/synstopvoice.o
 .gnu.attributes
                0x0000000000000000       0x10 build/asm/cn/libultra/synstopvoice.o
 .data          0x0000000000000000        0x0 build/asm/cn/libultra/synstartvoice.o
 .bss           0x0000000000000000        0x0 build/asm/cn/libultra/synstartvoice.o
 .reginfo       0x0000000000000000       0x18 build/asm/cn/libultra/synstartvoice.o
 .MIPS.abiflags
                0x0000000000000000       0x18 build/asm/cn/libultra/synstartvoice.o
 .pdr           0x0000000000000000        0x0 build/asm/cn/libultra/synstartvoice.o
 .gnu.attributes
                0x0000000000000000       0x10 build/asm/cn/libultra/synstartvoice.o
 .data          0x0000000000000000        0x0 build/asm/cn/libultra/synsetpitch.o
 .bss           0x0000000000000000        0x0 build/asm/cn/libultra/synsetpitch.o
 .reginfo       0x0000000000000000       0x18 build/asm/cn/libultra/synsetpitch.o
 .MIPS.abiflags
                0x0000000000000000       0x18 build/asm/cn/libultra/synsetpitch.o
 .pdr           0x0000000000000000        0x0 build/asm/cn/libultra/synsetpitch.o
 .gnu.attributes
                0x0000000000000000       0x10 build/asm/cn/libultra/synsetpitch.o
 .data          0x0000000000000000        0x0 build/asm/cn/libultra/synsetvol.o
 .bss           0x0000000000000000        0x0 build/asm/cn/libultra/synsetvol.o
 .reginfo       0x0000000000000000       0x18 build/asm/cn/libultra/synsetvol.o
 .MIPS.abiflags
                0x0000000000000000       0x18 build/asm/cn/libultra/synsetvol.o
 .pdr           0x0000000000000000        0x0 build/asm/cn/libultra/synsetvol.o
 .gnu.attributes
                0x0000000000000000       0x10 build/asm/cn/libultra/synsetvol.o
 .data          0x0000000000000000        0x0 build/asm/cn/libultra/synsetfxmix.o
 .bss           0x0000000000000000        0x0 build/asm/cn/libultra/synsetfxmix.o
 .reginfo       0x0000000000000000       0x18 build/asm/cn/libultra/synsetfxmix.o
 .MIPS.abiflags
                0x0000000000000000       0x18 build/asm/cn/libultra/synsetfxmix.o
 .pdr           0x0000000000000000        0x0 build/asm/cn/libultra/synsetfxmix.o
 .gnu.attributes
                0x0000000000000000       0x10 build/asm/cn/libultra/synsetfxmix.o
 .data          0x0000000000000000        0x0 build/asm/cn/libultra/synsetpan.o
 .bss           0x0000000000000000        0x0 build/asm/cn/libultra/synsetpan.o
 .reginfo       0x0000000000000000       0x18 build/asm/cn/libultra/synsetpan.o
 .MIPS.abiflags
                0x0000000000000000       0x18 build/asm/cn/libultra/synsetpan.o
 .pdr           0x0000000000000000        0x0 build/asm/cn/libultra/synsetpan.o
 .gnu.attributes
                0x0000000000000000       0x10 build/asm/cn/libultra/synsetpan.o
 .data          0x0000000000000000        0x0 build/asm/cn/libultra/synallocfx.o
 .bss           0x0000000000000000        0x0 build/asm/cn/libultra/synallocfx.o
 .reginfo       0x0000000000000000       0x18 build/asm/cn/libultra/synallocfx.o
 .MIPS.abiflags
                0x0000000000000000       0x18 build/asm/cn/libultra/synallocfx.o
 .pdr           0x0000000000000000        0x0 build/asm/cn/libultra/synallocfx.o
 .gnu.attributes
                0x0000000000000000       0x10 build/asm/cn/libultra/synallocfx.o
 .data          0x0000000000000000        0x0 build/asm/cn/libultra/invaldcache.o
 .bss           0x0000000000000000        0x0 build/asm/cn/libultra/invaldcache.o
 .reginfo       0x0000000000000000       0x18 build/asm/cn/libultra/invaldcache.o
 .MIPS.abiflags
                0x0000000000000000       0x18 build/asm/cn/libultra/invaldcache.o
 .pdr           0x0000000000000000        0x0 build/asm/cn/libultra/invaldcache.o
 .gnu.attributes
                0x0000000000000000       0x10 build/asm/cn/libultra/invaldcache.o
 .data          0x0000000000000000        0x0 build/asm/cn/libultra/writebackdcacheall.o
 .bss           0x0000000000000000        0x0 build/asm/cn/libultra/writebackdcacheall.o
 .reginfo       0x0000000000000000       0x18 build/asm/cn/libultra/writebackdcacheall.o
 .MIPS.abiflags
                0x0000000000000000       0x18 build/asm/cn/libultra/writebackdcacheall.o
 .pdr           0x0000000000000000        0x0 build/asm/cn/libultra/writebackdcacheall.o
 .gnu.attributes
                0x0000000000000000       0x10 build/asm/cn/libultra/writebackdcacheall.o
 .data          0x0000000000000000        0x0 build/asm/cn/libultra/contquery.o
 .bss           0x0000000000000000        0x0 build/asm/cn/libultra/contquery.o
 .reginfo       0x0000000000000000       0x18 build/asm/cn/libultra/contquery.o
 .MIPS.abiflags
                0x0000000000000000       0x18 build/asm/cn/libultra/contquery.o
 .pdr           0x0000000000000000        0x0 build/asm/cn/libultra/contquery.o
 .gnu.attributes
                0x0000000000000000       0x10 build/asm/cn/libultra/contquery.o
 .data          0x0000000000000000        0x0 build/asm/cn/libultra/contreaddata.o
 .bss           0x0000000000000000        0x0 build/asm/cn/libultra/contreaddata.o
 .reginfo       0x0000000000000000       0x18 build/asm/cn/libultra/contreaddata.o
 .MIPS.abiflags
                0x0000000000000000       0x18 build/asm/cn/libultra/contreaddata.o
 .pdr           0x0000000000000000        0x0 build/asm/cn/libultra/contreaddata.o
 .gnu.attributes
                0x0000000000000000       0x10 build/asm/cn/libultra/contreaddata.o
 .data          0x0000000000000000        0x0 build/asm/cn/libultra/controller.o
 .bss           0x0000000000000000        0x0 build/asm/cn/libultra/controller.o
 .reginfo       0x0000000000000000       0x18 build/asm/cn/libultra/controller.o
 .MIPS.abiflags
                0x0000000000000000       0x18 build/asm/cn/libultra/controller.o
 .pdr           0x0000000000000000        0x0 build/asm/cn/libultra/controller.o
 .gnu.attributes
                0x0000000000000000       0x10 build/asm/cn/libultra/controller.o
 .data          0x0000000000000000        0x0 build/asm/cn/libultra/contsetch.o
 .bss           0x0000000000000000        0x0 build/asm/cn/libultra/contsetch.o
 .reginfo       0x0000000000000000       0x18 build/asm/cn/libultra/contsetch.o
 .MIPS.abiflags
                0x0000000000000000       0x18 build/asm/cn/libultra/contsetch.o
 .pdr           0x0000000000000000        0x0 build/asm/cn/libultra/contsetch.o
 .gnu.attributes
                0x0000000000000000       0x10 build/asm/cn/libultra/contsetch.o
 .data          0x0000000000000000        0x0 build/asm/cn/libultra/os/virtualtophysical.o
 .bss           0x0000000000000000        0x0 build/asm/cn/libultra/os/virtualtophysical.o
 .reginfo       0x0000000000000000       0x18 build/asm/cn/libultra/os/virtualtophysical.o
 .MIPS.abiflags
                0x0000000000000000       0x18 build/asm/cn/libultra/os/virtualtophysical.o
 .pdr           0x0000000000000000        0x0 build/asm/cn/libultra/os/virtualtophysical.o
 .gnu.attributes
                0x0000000000000000       0x10 build/asm/cn/libultra/os/virtualtophysical.o
 .data          0x0000000000000000        0x0 build/asm/cn/libultra/sqrtf.o
 .bss           0x0000000000000000        0x0 build/asm/cn/libultra/sqrtf.o
 .reginfo       0x0000000000000000       0x18 build/asm/cn/libultra/sqrtf.o
 .MIPS.abiflags
                0x0000000000000000       0x18 build/asm/cn/libultra/sqrtf.o
 .pdr           0x0000000000000000        0x0 build/asm/cn/libultra/sqrtf.o
 .gnu.attributes
                0x0000000000000000       0x10 build/asm/cn/libultra/sqrtf.o
 .data          0x0000000000000000        0x0 build/asm/cn/libultra/cosf.o
 .bss           0x0000000000000000        0x0 build/asm/cn/libultra/cosf.o
 .reginfo       0x0000000000000000       0x18 build/asm/cn/libultra/cosf.o
 .MIPS.abiflags
                0x0000000000000000       0x18 build/asm/cn/libultra/cosf.o
 .pdr           0x0000000000000000        0x0 build/asm/cn/libultra/cosf.o
 .gnu.attributes
                0x0000000000000000       0x10 build/asm/cn/libultra/cosf.o
 .data          0x0000000000000000        0x0 build/asm/cn/libultra/ortho.o
 .bss           0x0000000000000000        0x0 build/asm/cn/libultra/ortho.o
 .reginfo       0x0000000000000000       0x18 build/asm/cn/libultra/ortho.o
 .MIPS.abiflags
                0x0000000000000000       0x18 build/asm/cn/libultra/ortho.o
 .pdr           0x0000000000000000        0x0 build/asm/cn/libultra/ortho.o
 .gnu.attributes
                0x0000000000000000       0x10 build/asm/cn/libultra/ortho.o
 .data          0x0000000000000000        0x0 build/asm/cn/libultra/perspective.o
 .bss           0x0000000000000000        0x0 build/asm/cn/libultra/perspective.o
 .reginfo       0x0000000000000000       0x18 build/asm/cn/libultra/perspective.o
 .MIPS.abiflags
                0x0000000000000000       0x18 build/asm/cn/libultra/perspective.o
 .pdr           0x0000000000000000        0x0 build/asm/cn/libultra/perspective.o
 .gnu.attributes
                0x0000000000000000       0x10 build/asm/cn/libultra/perspective.o
 .data          0x0000000000000000        0x0 build/asm/cn/libultra/rotateRPY.o
 .bss           0x0000000000000000        0x0 build/asm/cn/libultra/rotateRPY.o
 .reginfo       0x0000000000000000       0x18 build/asm/cn/libultra/rotateRPY.o
 .MIPS.abiflags
                0x0000000000000000       0x18 build/asm/cn/libultra/rotateRPY.o
 .pdr           0x0000000000000000        0x0 build/asm/cn/libultra/rotateRPY.o
 .gnu.attributes
                0x0000000000000000       0x10 build/asm/cn/libultra/rotateRPY.o
 .data          0x0000000000000000        0x0 build/asm/cn/libultra/sinf.o
 .bss           0x0000000000000000        0x0 build/asm/cn/libultra/sinf.o
 .reginfo       0x0000000000000000       0x18 build/asm/cn/libultra/sinf.o
 .MIPS.abiflags
                0x0000000000000000       0x18 build/asm/cn/libultra/sinf.o
 .pdr           0x0000000000000000        0x0 build/asm/cn/libultra/sinf.o
 .gnu.attributes
                0x0000000000000000       0x10 build/asm/cn/libultra/sinf.o
 .data          0x0000000000000000        0x0 build/asm/cn/libultra/sins.o
 .bss           0x0000000000000000        0x0 build/asm/cn/libultra/sins.o
 .reginfo       0x0000000000000000       0x18 build/asm/cn/libultra/sins.o
 .MIPS.abiflags
                0x0000000000000000       0x18 build/asm/cn/libultra/sins.o
 .pdr           0x0000000000000000        0x0 build/asm/cn/libultra/sins.o
 .gnu.attributes
                0x0000000000000000       0x10 build/asm/cn/libultra/sins.o
 .data          0x0000000000000000        0x0 build/asm/cn/libultra/bcmp.o
 .bss           0x0000000000000000        0x0 build/asm/cn/libultra/bcmp.o
 .reginfo       0x0000000000000000       0x18 build/asm/cn/libultra/bcmp.o
 .MIPS.abiflags
                0x0000000000000000       0x18 build/asm/cn/libultra/bcmp.o
 .pdr           0x0000000000000000        0x0 build/asm/cn/libultra/bcmp.o
 .gnu.attributes
                0x0000000000000000       0x10 build/asm/cn/libultra/bcmp.o
 .data          0x0000000000000000        0x0 build/asm/cn/libultra/bcopy.o
 .bss           0x0000000000000000        0x0 build/asm/cn/libultra/bcopy.o
 .reginfo       0x0000000000000000       0x18 build/asm/cn/libultra/bcopy.o
 .MIPS.abiflags
                0x0000000000000000       0x18 build/asm/cn/libultra/bcopy.o
 .pdr           0x0000000000000000        0x0 build/asm/cn/libultra/bcopy.o
 .gnu.attributes
                0x0000000000000000       0x10 build/asm/cn/libultra/bcopy.o
 .data          0x0000000000000000        0x0 build/asm/cn/libultra/bzero.o
 .bss           0x0000000000000000        0x0 build/asm/cn/libultra/bzero.o
 .reginfo       0x0000000000000000       0x18 build/asm/cn/libultra/bzero.o
 .MIPS.abiflags
                0x0000000000000000       0x18 build/asm/cn/libultra/bzero.o
 .pdr           0x0000000000000000        0x0 build/asm/cn/libultra/bzero.o
 .gnu.attributes
                0x0000000000000000       0x10 build/asm/cn/libultra/bzero.o
 .data          0x0000000000000000        0x0 build/asm/cn/libultra/string.o
 .bss           0x0000000000000000        0x0 build/asm/cn/libultra/string.o
 .reginfo       0x0000000000000000       0x18 build/asm/cn/libultra/string.o
 .MIPS.abiflags
                0x0000000000000000       0x18 build/asm/cn/libultra/string.o
 .pdr           0x0000000000000000        0x0 build/asm/cn/libultra/string.o
 .gnu.attributes
                0x0000000000000000       0x10 build/asm/cn/libultra/string.o
 .data          0x0000000000000000        0x0 build/asm/cn/libultra/os/createmesgqueue.o
 .bss           0x0000000000000000        0x0 build/asm/cn/libultra/os/createmesgqueue.o
 .reginfo       0x0000000000000000       0x18 build/asm/cn/libultra/os/createmesgqueue.o
 .MIPS.abiflags
                0x0000000000000000       0x18 build/asm/cn/libultra/os/createmesgqueue.o
 .pdr           0x0000000000000000        0x0 build/asm/cn/libultra/os/createmesgqueue.o
 .gnu.attributes
                0x0000000000000000       0x10 build/asm/cn/libultra/os/createmesgqueue.o
 .data          0x0000000000000000        0x0 build/asm/cn/libultra/os/recvmesg.o
 .bss           0x0000000000000000        0x0 build/asm/cn/libultra/os/recvmesg.o
 .reginfo       0x0000000000000000       0x18 build/asm/cn/libultra/os/recvmesg.o
 .MIPS.abiflags
                0x0000000000000000       0x18 build/asm/cn/libultra/os/recvmesg.o
 .pdr           0x0000000000000000        0x0 build/asm/cn/libultra/os/recvmesg.o
 .gnu.attributes
                0x0000000000000000       0x10 build/asm/cn/libultra/os/recvmesg.o
 .data          0x0000000000000000        0x0 build/asm/cn/libultra/sptask.o
 .bss           0x0000000000000000        0x0 build/asm/cn/libultra/sptask.o
 .reginfo       0x0000000000000000       0x18 build/asm/cn/libultra/sptask.o
 .MIPS.abiflags
                0x0000000000000000       0x18 build/asm/cn/libultra/sptask.o
 .pdr           0x0000000000000000        0x0 build/asm/cn/libultra/sptask.o
 .gnu.attributes
                0x0000000000000000       0x10 build/asm/cn/libultra/sptask.o
 .data          0x0000000000000000        0x0 build/asm/cn/libultra/sptaskyield.o
 .bss           0x0000000000000000        0x0 build/asm/cn/libultra/sptaskyield.o
 .reginfo       0x0000000000000000       0x18 build/asm/cn/libultra/sptaskyield.o
 .MIPS.abiflags
                0x0000000000000000       0x18 build/asm/cn/libultra/sptaskyield.o
 .pdr           0x0000000000000000        0x0 build/asm/cn/libultra/sptaskyield.o
 .gnu.attributes
                0x0000000000000000       0x10 build/asm/cn/libultra/sptaskyield.o
 .data          0x0000000000000000        0x0 build/asm/cn/libultra/sptaskyielded.o
 .bss           0x0000000000000000        0x0 build/asm/cn/libultra/sptaskyielded.o
 .reginfo       0x0000000000000000       0x18 build/asm/cn/libultra/sptaskyielded.o
 .MIPS.abiflags
                0x0000000000000000       0x18 build/asm/cn/libultra/sptaskyielded.o
 .pdr           0x0000000000000000        0x0 build/asm/cn/libultra/sptaskyielded.o
 .gnu.attributes
                0x0000000000000000       0x10 build/asm/cn/libultra/sptaskyielded.o
 .data          0x0000000000000000        0x0 build/asm/cn/libultra/sched.o
 .bss           0x0000000000000000        0x0 build/asm/cn/libultra/sched.o
 .reginfo       0x0000000000000000       0x18 build/asm/cn/libultra/sched.o
 .MIPS.abiflags
                0x0000000000000000       0x18 build/asm/cn/libultra/sched.o
 .pdr           0x0000000000000000        0x0 build/asm/cn/libultra/sched.o
 .gnu.attributes
                0x0000000000000000       0x10 build/asm/cn/libultra/sched.o
 .data          0x0000000000000000        0x0 build/asm/cn/libultra/sirawdma.o
 .bss           0x0000000000000000        0x0 build/asm/cn/libultra/sirawdma.o
 .reginfo       0x0000000000000000       0x18 build/asm/cn/libultra/sirawdma.o
 .MIPS.abiflags
                0x0000000000000000       0x18 build/asm/cn/libultra/sirawdma.o
 .pdr           0x0000000000000000        0x0 build/asm/cn/libultra/sirawdma.o
 .gnu.attributes
                0x0000000000000000       0x10 build/asm/cn/libultra/sirawdma.o
 .data          0x0000000000000000        0x0 build/asm/cn/libultra/io/siacs.o
 .bss           0x0000000000000000        0x0 build/asm/cn/libultra/io/siacs.o
 .reginfo       0x0000000000000000       0x18 build/asm/cn/libultra/io/siacs.o
 .MIPS.abiflags
                0x0000000000000000       0x18 build/asm/cn/libultra/io/siacs.o
 .pdr           0x0000000000000000        0x0 build/asm/cn/libultra/io/siacs.o
 .gnu.attributes
                0x0000000000000000       0x10 build/asm/cn/libultra/io/siacs.o
 .data          0x0000000000000000        0x0 build/asm/cn/libultra/os/createthread.o
 .bss           0x0000000000000000        0x0 build/asm/cn/libultra/os/createthread.o
 .reginfo       0x0000000000000000       0x18 build/asm/cn/libultra/os/createthread.o
 .MIPS.abiflags
                0x0000000000000000       0x18 build/asm/cn/libultra/os/createthread.o
 .pdr           0x0000000000000000        0x0 build/asm/cn/libultra/os/createthread.o
 .gnu.attributes
                0x0000000000000000       0x10 build/asm/cn/libultra/os/createthread.o
 .data          0x0000000000000000        0x0 build/asm/cn/libultra/os/startthread.o
 .bss           0x0000000000000000        0x0 build/asm/cn/libultra/os/startthread.o
 .reginfo       0x0000000000000000       0x18 build/asm/cn/libultra/os/startthread.o
 .MIPS.abiflags
                0x0000000000000000       0x18 build/asm/cn/libultra/os/startthread.o
 .pdr           0x0000000000000000        0x0 build/asm/cn/libultra/os/startthread.o
 .gnu.attributes
                0x0000000000000000       0x10 build/asm/cn/libultra/os/startthread.o
 .data          0x0000000000000000        0x0 build/asm/cn/libultra/os/stopthread.o
 .bss           0x0000000000000000        0x0 build/asm/cn/libultra/os/stopthread.o
 .reginfo       0x0000000000000000       0x18 build/asm/cn/libultra/os/stopthread.o
 .MIPS.abiflags
                0x0000000000000000       0x18 build/asm/cn/libultra/os/stopthread.o
 .pdr           0x0000000000000000        0x0 build/asm/cn/libultra/os/stopthread.o
 .gnu.attributes
                0x0000000000000000       0x10 build/asm/cn/libultra/os/stopthread.o
 .data          0x0000000000000000        0x0 build/asm/cn/libultra/os/thread.o
 .bss           0x0000000000000000        0x0 build/asm/cn/libultra/os/thread.o
 .reginfo       0x0000000000000000       0x18 build/asm/cn/libultra/os/thread.o
 .MIPS.abiflags
                0x0000000000000000       0x18 build/asm/cn/libultra/os/thread.o
 .pdr           0x0000000000000000        0x0 build/asm/cn/libultra/os/thread.o
 .gnu.attributes
                0x0000000000000000       0x10 build/asm/cn/libultra/os/thread.o
 .data          0x0000000000000000        0x0 build/asm/cn/libultra/os/gettime.o
 .bss           0x0000000000000000        0x0 build/asm/cn/libultra/os/gettime.o
 .reginfo       0x0000000000000000       0x18 build/asm/cn/libultra/os/gettime.o
 .MIPS.abiflags
                0x0000000000000000       0x18 build/asm/cn/libultra/os/gettime.o
 .pdr           0x0000000000000000        0x0 build/asm/cn/libultra/os/gettime.o
 .gnu.attributes
                0x0000000000000000       0x10 build/asm/cn/libultra/os/gettime.o
 .data          0x0000000000000000        0x0 build/asm/cn/libultra/os/settime.o
 .bss           0x0000000000000000        0x0 build/asm/cn/libultra/os/settime.o
 .reginfo       0x0000000000000000       0x18 build/asm/cn/libultra/os/settime.o
 .MIPS.abiflags
                0x0000000000000000       0x18 build/asm/cn/libultra/os/settime.o
 .pdr           0x0000000000000000        0x0 build/asm/cn/libultra/os/settime.o
 .gnu.attributes
                0x0000000000000000       0x10 build/asm/cn/libultra/os/settime.o
 .data          0x0000000000000000        0x0 build/asm/cn/libultra/os/settimer.o
 .bss           0x0000000000000000        0x0 build/asm/cn/libultra/os/settimer.o
 .reginfo       0x0000000000000000       0x18 build/asm/cn/libultra/os/settimer.o
 .MIPS.abiflags
                0x0000000000000000       0x18 build/asm/cn/libultra/os/settimer.o
 .pdr           0x0000000000000000        0x0 build/asm/cn/libultra/os/settimer.o
 .gnu.attributes
                0x0000000000000000       0x10 build/asm/cn/libultra/os/settimer.o
 .data          0x0000000000000000        0x0 build/asm/cn/libultra/os/timerintr.o
 .bss           0x0000000000000000        0x0 build/asm/cn/libultra/os/timerintr.o
 .reginfo       0x0000000000000000       0x18 build/asm/cn/libultra/os/timerintr.o
 .MIPS.abiflags
                0x0000000000000000       0x18 build/asm/cn/libultra/os/timerintr.o
 .pdr           0x0000000000000000        0x0 build/asm/cn/libultra/os/timerintr.o
 .gnu.attributes
                0x0000000000000000       0x10 build/asm/cn/libultra/os/timerintr.o
 .data          0x0000000000000000        0x0 build/asm/cn/libultra/probetlb.o
 .bss           0x0000000000000000        0x0 build/asm/cn/libultra/probetlb.o
 .reginfo       0x0000000000000000       0x18 build/asm/cn/libultra/probetlb.o
 .MIPS.abiflags
                0x0000000000000000       0x18 build/asm/cn/libultra/probetlb.o
 .pdr           0x0000000000000000        0x0 build/asm/cn/libultra/probetlb.o
 .gnu.attributes
                0x0000000000000000       0x10 build/asm/cn/libultra/probetlb.o
 .data          0x0000000000000000        0x0 build/asm/cn/libultra/io/vigetcurrframebuf.o
 .bss           0x0000000000000000        0x0 build/asm/cn/libultra/io/vigetcurrframebuf.o
 .reginfo       0x0000000000000000       0x18 build/asm/cn/libultra/io/vigetcurrframebuf.o
 .MIPS.abiflags
                0x0000000000000000       0x18 build/asm/cn/libultra/io/vigetcurrframebuf.o
 .pdr           0x0000000000000000        0x0 build/asm/cn/libultra/io/vigetcurrframebuf.o
 .gnu.attributes
                0x0000000000000000       0x10 build/asm/cn/libultra/io/vigetcurrframebuf.o
 .data          0x0000000000000000        0x0 build/asm/cn/libultra/io/vigetnextframebuf.o
 .bss           0x0000000000000000        0x0 build/asm/cn/libultra/io/vigetnextframebuf.o
 .reginfo       0x0000000000000000       0x18 build/asm/cn/libultra/io/vigetnextframebuf.o
 .MIPS.abiflags
                0x0000000000000000       0x18 build/asm/cn/libultra/io/vigetnextframebuf.o
 .pdr           0x0000000000000000        0x0 build/asm/cn/libultra/io/vigetnextframebuf.o
 .gnu.attributes
                0x0000000000000000       0x10 build/asm/cn/libultra/io/vigetnextframebuf.o
 .data          0x0000000000000000        0x0 build/asm/cn/libultra/io/vimgr.o
 .bss           0x0000000000000000        0x0 build/asm/cn/libultra/io/vimgr.o
 .reginfo       0x0000000000000000       0x18 build/asm/cn/libultra/io/vimgr.o
 .MIPS.abiflags
                0x0000000000000000       0x18 build/asm/cn/libultra/io/vimgr.o
 .pdr           0x0000000000000000        0x0 build/asm/cn/libultra/io/vimgr.o
 .gnu.attributes
                0x0000000000000000       0x10 build/asm/cn/libultra/io/vimgr.o
 .data          0x0000000000000000        0x0 build/asm/cn/libultra/visetevent.o
 .bss           0x0000000000000000        0x0 build/asm/cn/libultra/visetevent.o
 .reginfo       0x0000000000000000       0x18 build/asm/cn/libultra/visetevent.o
 .MIPS.abiflags
                0x0000000000000000       0x18 build/asm/cn/libultra/visetevent.o
 .pdr           0x0000000000000000        0x0 build/asm/cn/libultra/visetevent.o
 .gnu.attributes
                0x0000000000000000       0x10 build/asm/cn/libultra/visetevent.o
 .data          0x0000000000000000        0x0 build/asm/cn/libultra/visetmode.o
 .bss           0x0000000000000000        0x0 build/asm/cn/libultra/visetmode.o
 .reginfo       0x0000000000000000       0x18 build/asm/cn/libultra/visetmode.o
 .MIPS.abiflags
                0x0000000000000000       0x18 build/asm/cn/libultra/visetmode.o
 .pdr           0x0000000000000000        0x0 build/asm/cn/libultra/visetmode.o
 .gnu.attributes
                0x0000000000000000       0x10 build/asm/cn/libultra/visetmode.o
 .data          0x0000000000000000        0x0 build/asm/cn/libultra/visetspecial.o
 .bss           0x0000000000000000        0x0 build/asm/cn/libultra/visetspecial.o
 .reginfo       0x0000000000000000       0x18 build/asm/cn/libultra/visetspecial.o
 .MIPS.abiflags
                0x0000000000000000       0x18 build/asm/cn/libultra/visetspecial.o
 .pdr           0x0000000000000000        0x0 build/asm/cn/libultra/visetspecial.o
 .gnu.attributes
                0x0000000000000000       0x10 build/asm/cn/libultra/visetspecial.o
 .data          0x0000000000000000        0x0 build/asm/cn/libultra/visetyscale.o
 .bss           0x0000000000000000        0x0 build/asm/cn/libultra/visetyscale.o
 .reginfo       0x0000000000000000       0x18 build/asm/cn/libultra/visetyscale.o
 .MIPS.abiflags
                0x0000000000000000       0x18 build/asm/cn/libultra/visetyscale.o
 .pdr           0x0000000000000000        0x0 build/asm/cn/libultra/visetyscale.o
 .gnu.attributes
                0x0000000000000000       0x10 build/asm/cn/libultra/visetyscale.o
 .data          0x0000000000000000        0x0 build/asm/cn/libultra/viswapbuf.o
 .bss           0x0000000000000000        0x0 build/asm/cn/libultra/viswapbuf.o
 .reginfo       0x0000000000000000       0x18 build/asm/cn/libultra/viswapbuf.o
 .MIPS.abiflags
                0x0000000000000000       0x18 build/asm/cn/libultra/viswapbuf.o
 .pdr           0x0000000000000000        0x0 build/asm/cn/libultra/viswapbuf.o
 .gnu.attributes
                0x0000000000000000       0x10 build/asm/cn/libultra/viswapbuf.o
 .data          0x0000000000000000        0x0 build/asm/cn/libultra/viswapcontext.o
 .bss           0x0000000000000000        0x0 build/asm/cn/libultra/viswapcontext.o
 .reginfo       0x0000000000000000       0x18 build/asm/cn/libultra/viswapcontext.o
 .MIPS.abiflags
                0x0000000000000000       0x18 build/asm/cn/libultra/viswapcontext.o
 .pdr           0x0000000000000000        0x0 build/asm/cn/libultra/viswapcontext.o
 .gnu.attributes
                0x0000000000000000       0x10 build/asm/cn/libultra/viswapcontext.o
 .data          0x0000000000000000        0x0 build/asm/cn/libultra/viblack.o
 .bss           0x0000000000000000        0x0 build/asm/cn/libultra/viblack.o
 .reginfo       0x0000000000000000       0x18 build/asm/cn/libultra/viblack.o
 .MIPS.abiflags
                0x0000000000000000       0x18 build/asm/cn/libultra/viblack.o
 .pdr           0x0000000000000000        0x0 build/asm/cn/libultra/viblack.o
 .gnu.attributes
                0x0000000000000000       0x10 build/asm/cn/libultra/viblack.o
 .data          0x0000000000000000        0x0 build/asm/cn/libultra/mtxident.o
 .bss           0x0000000000000000        0x0 build/asm/cn/libultra/mtxident.o
 .reginfo       0x0000000000000000       0x18 build/asm/cn/libultra/mtxident.o
 .MIPS.abiflags
                0x0000000000000000       0x18 build/asm/cn/libultra/mtxident.o
 .pdr           0x0000000000000000        0x0 build/asm/cn/libultra/mtxident.o
 .gnu.attributes
                0x0000000000000000       0x10 build/asm/cn/libultra/mtxident.o
 .data          0x0000000000000000        0x0 build/asm/cn/libultra/mtxidentf.o
 .bss           0x0000000000000000        0x0 build/asm/cn/libultra/mtxidentf.o
 .reginfo       0x0000000000000000       0x18 build/asm/cn/libultra/mtxidentf.o
 .MIPS.abiflags
                0x0000000000000000       0x18 build/asm/cn/libultra/mtxidentf.o
 .pdr           0x0000000000000000        0x0 build/asm/cn/libultra/mtxidentf.o
 .gnu.attributes
                0x0000000000000000       0x10 build/asm/cn/libultra/mtxidentf.o
 .data          0x0000000000000000        0x0 build/asm/cn/libultra/mtxf2l.o
 .bss           0x0000000000000000        0x0 build/asm/cn/libultra/mtxf2l.o
 .reginfo       0x0000000000000000       0x18 build/asm/cn/libultra/mtxf2l.o
 .MIPS.abiflags
                0x0000000000000000       0x18 build/asm/cn/libultra/mtxf2l.o
 .pdr           0x0000000000000000        0x0 build/asm/cn/libultra/mtxf2l.o
 .gnu.attributes
                0x0000000000000000       0x10 build/asm/cn/libultra/mtxf2l.o
 .data          0x0000000000000000        0x0 build/asm/cn/libultra/mtxl2f.o
 .bss           0x0000000000000000        0x0 build/asm/cn/libultra/mtxl2f.o
 .reginfo       0x0000000000000000       0x18 build/asm/cn/libultra/mtxl2f.o
 .MIPS.abiflags
                0x0000000000000000       0x18 build/asm/cn/libultra/mtxl2f.o
 .pdr           0x0000000000000000        0x0 build/asm/cn/libultra/mtxl2f.o
 .gnu.attributes
                0x0000000000000000       0x10 build/asm/cn/libultra/mtxl2f.o
 .data          0x0000000000000000        0x0 build/asm/cn/libultra/mtxcatf.o
 .bss           0x0000000000000000        0x0 build/asm/cn/libultra/mtxcatf.o
 .reginfo       0x0000000000000000       0x18 build/asm/cn/libultra/mtxcatf.o
 .MIPS.abiflags
                0x0000000000000000       0x18 build/asm/cn/libultra/mtxcatf.o
 .pdr           0x0000000000000000        0x0 build/asm/cn/libultra/mtxcatf.o
 .gnu.attributes
                0x0000000000000000       0x10 build/asm/cn/libultra/mtxcatf.o
 .data          0x0000000000000000        0x0 build/asm/cn/libultra/scale.o
 .bss           0x0000000000000000        0x0 build/asm/cn/libultra/scale.o
 .reginfo       0x0000000000000000       0x18 build/asm/cn/libultra/scale.o
 .MIPS.abiflags
                0x0000000000000000       0x18 build/asm/cn/libultra/scale.o
 .pdr           0x0000000000000000        0x0 build/asm/cn/libultra/scale.o
 .gnu.attributes
                0x0000000000000000       0x10 build/asm/cn/libultra/scale.o
 .data          0x0000000000000000        0x0 build/asm/cn/libultra/scalef.o
 .bss           0x0000000000000000        0x0 build/asm/cn/libultra/scalef.o
 .reginfo       0x0000000000000000       0x18 build/asm/cn/libultra/scalef.o
 .MIPS.abiflags
                0x0000000000000000       0x18 build/asm/cn/libultra/scalef.o
 .pdr           0x0000000000000000        0x0 build/asm/cn/libultra/scalef.o
 .gnu.attributes
                0x0000000000000000       0x10 build/asm/cn/libultra/scalef.o
 .data          0x0000000000000000        0x0 build/asm/cn/libultra/translate.o
 .bss           0x0000000000000000        0x0 build/asm/cn/libultra/translate.o
 .reginfo       0x0000000000000000       0x18 build/asm/cn/libultra/translate.o
 .MIPS.abiflags
                0x0000000000000000       0x18 build/asm/cn/libultra/translate.o
 .pdr           0x0000000000000000        0x0 build/asm/cn/libultra/translate.o
 .gnu.attributes
                0x0000000000000000       0x10 build/asm/cn/libultra/translate.o
 .data          0x0000000000000000        0x0 build/asm/cn/libultra/translatef.o
 .bss           0x0000000000000000        0x0 build/asm/cn/libultra/translatef.o
 .reginfo       0x0000000000000000       0x18 build/asm/cn/libultra/translatef.o
 .MIPS.abiflags
                0x0000000000000000       0x18 build/asm/cn/libultra/translatef.o
 .pdr           0x0000000000000000        0x0 build/asm/cn/libultra/translatef.o
 .gnu.attributes
                0x0000000000000000       0x10 build/asm/cn/libultra/translatef.o
 .data          0x0000000000000000        0x0 build/asm/cn/libultra/conteepprobe.o
 .bss           0x0000000000000000        0x0 build/asm/cn/libultra/conteepprobe.o
 .reginfo       0x0000000000000000       0x18 build/asm/cn/libultra/conteepprobe.o
 .MIPS.abiflags
                0x0000000000000000       0x18 build/asm/cn/libultra/conteepprobe.o
 .pdr           0x0000000000000000        0x0 build/asm/cn/libultra/conteepprobe.o
 .gnu.attributes
                0x0000000000000000       0x10 build/asm/cn/libultra/conteepprobe.o
 .data          0x0000000000000000        0x0 build/asm/cn/libultra/conteeplongwrite.o
 .bss           0x0000000000000000        0x0 build/asm/cn/libultra/conteeplongwrite.o
 .reginfo       0x0000000000000000       0x18 build/asm/cn/libultra/conteeplongwrite.o
 .MIPS.abiflags
                0x0000000000000000       0x18 build/asm/cn/libultra/conteeplongwrite.o
 .pdr           0x0000000000000000        0x0 build/asm/cn/libultra/conteeplongwrite.o
 .gnu.attributes
                0x0000000000000000       0x10 build/asm/cn/libultra/conteeplongwrite.o
 .data          0x0000000000000000        0x0 build/asm/cn/libultra/conteeplongread.o
 .bss           0x0000000000000000        0x0 build/asm/cn/libultra/conteeplongread.o
 .reginfo       0x0000000000000000       0x18 build/asm/cn/libultra/conteeplongread.o
 .MIPS.abiflags
                0x0000000000000000       0x18 build/asm/cn/libultra/conteeplongread.o
 .pdr           0x0000000000000000        0x0 build/asm/cn/libultra/conteeplongread.o
 .gnu.attributes
                0x0000000000000000       0x10 build/asm/cn/libultra/conteeplongread.o
 .data          0x0000000000000000        0x0 build/asm/cn/libultra/os/exceptasm.o
 .bss           0x0000000000000000        0x0 build/asm/cn/libultra/os/exceptasm.o
 .reginfo       0x0000000000000000       0x18 build/asm/cn/libultra/os/exceptasm.o
 .MIPS.abiflags
                0x0000000000000000       0x18 build/asm/cn/libultra/os/exceptasm.o
 .pdr           0x0000000000000000        0x0 build/asm/cn/libultra/os/exceptasm.o
 .gnu.attributes
                0x0000000000000000       0x10 build/asm/cn/libultra/os/exceptasm.o
 .data          0x0000000000000000        0x0 build/asm/cn/libultra/interrupt.o
 .bss           0x0000000000000000        0x0 build/asm/cn/libultra/interrupt.o
 .reginfo       0x0000000000000000       0x18 build/asm/cn/libultra/interrupt.o
 .MIPS.abiflags
                0x0000000000000000       0x18 build/asm/cn/libultra/interrupt.o
 .pdr           0x0000000000000000        0x0 build/asm/cn/libultra/interrupt.o
 .gnu.attributes
                0x0000000000000000       0x10 build/asm/cn/libultra/interrupt.o
 .data          0x0000000000000000        0x0 build/asm/cn/libultra/setintmask.o
 .bss           0x0000000000000000        0x0 build/asm/cn/libultra/setintmask.o
 .reginfo       0x0000000000000000       0x18 build/asm/cn/libultra/setintmask.o
 .MIPS.abiflags
                0x0000000000000000       0x18 build/asm/cn/libultra/setintmask.o
 .pdr           0x0000000000000000        0x0 build/asm/cn/libultra/setintmask.o
 .gnu.attributes
                0x0000000000000000       0x10 build/asm/cn/libultra/setintmask.o
 .data          0x0000000000000000        0x0 build/asm/cn/libultra/io/pimgr.o
 .bss           0x0000000000000000        0x0 build/asm/cn/libultra/io/pimgr.o
 .reginfo       0x0000000000000000       0x18 build/asm/cn/libultra/io/pimgr.o
 .MIPS.abiflags
                0x0000000000000000       0x18 build/asm/cn/libultra/io/pimgr.o
 .pdr           0x0000000000000000        0x0 build/asm/cn/libultra/io/pimgr.o
 .gnu.attributes
                0x0000000000000000       0x10 build/asm/cn/libultra/io/pimgr.o
 .data          0x0000000000000000        0x0 build/asm/cn/libultra/epirawdma.o
 .bss           0x0000000000000000        0x0 build/asm/cn/libultra/epirawdma.o
 .reginfo       0x0000000000000000       0x18 build/asm/cn/libultra/epirawdma.o
 .MIPS.abiflags
                0x0000000000000000       0x18 build/asm/cn/libultra/epirawdma.o
 .pdr           0x0000000000000000        0x0 build/asm/cn/libultra/epirawdma.o
 .gnu.attributes
                0x0000000000000000       0x10 build/asm/cn/libultra/epirawdma.o
 .data          0x0000000000000000        0x0 build/asm/cn/libultra/io/epiwrite.o
 .bss           0x0000000000000000        0x0 build/asm/cn/libultra/io/epiwrite.o
 .reginfo       0x0000000000000000       0x18 build/asm/cn/libultra/io/epiwrite.o
 .MIPS.abiflags
                0x0000000000000000       0x18 build/asm/cn/libultra/io/epiwrite.o
 .pdr           0x0000000000000000        0x0 build/asm/cn/libultra/io/epiwrite.o
 .gnu.attributes
                0x0000000000000000       0x10 build/asm/cn/libultra/io/epiwrite.o
 .data          0x0000000000000000        0x0 build/asm/cn/libultra/epidma.o
 .bss           0x0000000000000000        0x0 build/asm/cn/libultra/epidma.o
 .reginfo       0x0000000000000000       0x18 build/asm/cn/libultra/epidma.o
 .MIPS.abiflags
                0x0000000000000000       0x18 build/asm/cn/libultra/epidma.o
 .pdr           0x0000000000000000        0x0 build/asm/cn/libultra/epidma.o
 .gnu.attributes
                0x0000000000000000       0x10 build/asm/cn/libultra/epidma.o
 .data          0x0000000000000000        0x0 build/asm/cn/libultra/epilinkhandle.o
 .bss           0x0000000000000000        0x0 build/asm/cn/libultra/epilinkhandle.o
 .reginfo       0x0000000000000000       0x18 build/asm/cn/libultra/epilinkhandle.o
 .MIPS.abiflags
                0x0000000000000000       0x18 build/asm/cn/libultra/epilinkhandle.o
 .pdr           0x0000000000000000        0x0 build/asm/cn/libultra/epilinkhandle.o
 .gnu.attributes
                0x0000000000000000       0x10 build/asm/cn/libultra/epilinkhandle.o
 .data          0x0000000000000000        0x0 build/asm/cn/libultra/cartrominit.o
 .bss           0x0000000000000000        0x0 build/asm/cn/libultra/cartrominit.o
 .reginfo       0x0000000000000000       0x18 build/asm/cn/libultra/cartrominit.o
 .MIPS.abiflags
                0x0000000000000000       0x18 build/asm/cn/libultra/cartrominit.o
 .pdr           0x0000000000000000        0x0 build/asm/cn/libultra/cartrominit.o
 .gnu.attributes
                0x0000000000000000       0x10 build/asm/cn/libultra/cartrominit.o
 .data          0x0000000000000000        0x0 build/asm/cn/libultra/devmgr.o
 .bss           0x0000000000000000        0x0 build/asm/cn/libultra/devmgr.o
 .reginfo       0x0000000000000000       0x18 build/asm/cn/libultra/devmgr.o
 .MIPS.abiflags
                0x0000000000000000       0x18 build/asm/cn/libultra/devmgr.o
 .pdr           0x0000000000000000        0x0 build/asm/cn/libultra/devmgr.o
 .gnu.attributes
                0x0000000000000000       0x10 build/asm/cn/libultra/devmgr.o
 .data          0x0000000000000000        0x0 build/asm/cn/libultra/io/piacs.o
 .bss           0x0000000000000000        0x0 build/asm/cn/libultra/io/piacs.o
 .reginfo       0x0000000000000000       0x18 build/asm/cn/libultra/io/piacs.o
 .MIPS.abiflags
                0x0000000000000000       0x18 build/asm/cn/libultra/io/piacs.o
 .pdr           0x0000000000000000        0x0 build/asm/cn/libultra/io/piacs.o
 .gnu.attributes
                0x0000000000000000       0x10 build/asm/cn/libultra/io/piacs.o
 .data          0x0000000000000000        0x0 build/asm/cn/libultra/skapi.o
 .bss           0x0000000000000000        0x0 build/asm/cn/libultra/skapi.o
 .reginfo       0x0000000000000000       0x18 build/asm/cn/libultra/skapi.o
 .MIPS.abiflags
                0x0000000000000000       0x18 build/asm/cn/libultra/skapi.o
 .pdr           0x0000000000000000        0x0 build/asm/cn/libultra/skapi.o
 .gnu.attributes
                0x0000000000000000       0x10 build/asm/cn/libultra/skapi.o
 .data          0x0000000000000000        0x0 build/asm/cn/libultra/common.o
 .bss           0x0000000000000000        0x0 build/asm/cn/libultra/common.o
 .reginfo       0x0000000000000000       0x18 build/asm/cn/libultra/common.o
 .MIPS.abiflags
                0x0000000000000000       0x18 build/asm/cn/libultra/common.o
 .pdr           0x0000000000000000        0x0 build/asm/cn/libultra/common.o
 .gnu.attributes
                0x0000000000000000       0x10 build/asm/cn/libultra/common.o
 .data          0x0000000000000000        0x0 build/asm/cn/libultra/nops_00B250.o
 .bss           0x0000000000000000        0x0 build/asm/cn/libultra/nops_00B250.o
 .reginfo       0x0000000000000000       0x18 build/asm/cn/libultra/nops_00B250.o
 .MIPS.abiflags
                0x0000000000000000       0x18 build/asm/cn/libultra/nops_00B250.o
 .pdr           0x0000000000000000        0x0 build/asm/cn/libultra/nops_00B250.o
 .gnu.attributes
                0x0000000000000000       0x10 build/asm/cn/libultra/nops_00B250.o
 .data          0x0000000000000000        0x0 build/asm/cn/libultra/os/initialize.o
 .bss           0x0000000000000000        0x0 build/asm/cn/libultra/os/initialize.o
 .reginfo       0x0000000000000000       0x18 build/asm/cn/libultra/os/initialize.o
 .MIPS.abiflags
                0x0000000000000000       0x18 build/asm/cn/libultra/os/initialize.o
 .pdr           0x0000000000000000        0x0 build/asm/cn/libultra/os/initialize.o
 .gnu.attributes
                0x0000000000000000       0x10 build/asm/cn/libultra/os/initialize.o
 .data          0x0000000000000000        0x0 build/asm/cn/libultra/ai.o
 .bss           0x0000000000000000        0x0 build/asm/cn/libultra/ai.o
 .reginfo       0x0000000000000000       0x18 build/asm/cn/libultra/ai.o
 .MIPS.abiflags
                0x0000000000000000       0x18 build/asm/cn/libultra/ai.o
 .pdr           0x0000000000000000        0x0 build/asm/cn/libultra/ai.o
 .gnu.attributes
                0x0000000000000000       0x10 build/asm/cn/libultra/ai.o
 .data          0x0000000000000000        0x0 build/asm/cn/libultra/drvrNew.o
 .bss           0x0000000000000000        0x0 build/asm/cn/libultra/drvrNew.o
 .reginfo       0x0000000000000000       0x18 build/asm/cn/libultra/drvrNew.o
 .MIPS.abiflags
                0x0000000000000000       0x18 build/asm/cn/libultra/drvrNew.o
 .pdr           0x0000000000000000        0x0 build/asm/cn/libultra/drvrNew.o
 .gnu.attributes
                0x0000000000000000       0x10 build/asm/cn/libultra/drvrNew.o
 .data          0x0000000000000000        0x0 build/asm/cn/libultra/load.o
 .bss           0x0000000000000000        0x0 build/asm/cn/libultra/load.o
 .reginfo       0x0000000000000000       0x18 build/asm/cn/libultra/load.o
 .MIPS.abiflags
                0x0000000000000000       0x18 build/asm/cn/libultra/load.o
 .pdr           0x0000000000000000        0x0 build/asm/cn/libultra/load.o
 .gnu.attributes
                0x0000000000000000       0x10 build/asm/cn/libultra/load.o
 .data          0x0000000000000000        0x0 build/asm/cn/libultra/auxbus.o
 .bss           0x0000000000000000        0x0 build/asm/cn/libultra/auxbus.o
 .reginfo       0x0000000000000000       0x18 build/asm/cn/libultra/auxbus.o
 .MIPS.abiflags
                0x0000000000000000       0x18 build/asm/cn/libultra/auxbus.o
 .pdr           0x0000000000000000        0x0 build/asm/cn/libultra/auxbus.o
 .gnu.attributes
                0x0000000000000000       0x10 build/asm/cn/libultra/auxbus.o
 .data          0x0000000000000000        0x0 build/asm/cn/libultra/filter.o
 .bss           0x0000000000000000        0x0 build/asm/cn/libultra/filter.o
 .reginfo       0x0000000000000000       0x18 build/asm/cn/libultra/filter.o
 .MIPS.abiflags
                0x0000000000000000       0x18 build/asm/cn/libultra/filter.o
 .pdr           0x0000000000000000        0x0 build/asm/cn/libultra/filter.o
 .gnu.attributes
                0x0000000000000000       0x10 build/asm/cn/libultra/filter.o
 .data          0x0000000000000000        0x0 build/asm/cn/libultra/mainbus.o
 .bss           0x0000000000000000        0x0 build/asm/cn/libultra/mainbus.o
 .reginfo       0x0000000000000000       0x18 build/asm/cn/libultra/mainbus.o
 .MIPS.abiflags
                0x0000000000000000       0x18 build/asm/cn/libultra/mainbus.o
 .pdr           0x0000000000000000        0x0 build/asm/cn/libultra/mainbus.o
 .gnu.attributes
                0x0000000000000000       0x10 build/asm/cn/libultra/mainbus.o
 .data          0x0000000000000000        0x0 build/asm/cn/libultra/resample.o
 .bss           0x0000000000000000        0x0 build/asm/cn/libultra/resample.o
 .reginfo       0x0000000000000000       0x18 build/asm/cn/libultra/resample.o
 .MIPS.abiflags
                0x0000000000000000       0x18 build/asm/cn/libultra/resample.o
 .pdr           0x0000000000000000        0x0 build/asm/cn/libultra/resample.o
 .gnu.attributes
                0x0000000000000000       0x10 build/asm/cn/libultra/resample.o
 .data          0x0000000000000000        0x0 build/asm/cn/libultra/reverb.o
 .bss           0x0000000000000000        0x0 build/asm/cn/libultra/reverb.o
 .reginfo       0x0000000000000000       0x18 build/asm/cn/libultra/reverb.o
 .MIPS.abiflags
                0x0000000000000000       0x18 build/asm/cn/libultra/reverb.o
 .pdr           0x0000000000000000        0x0 build/asm/cn/libultra/reverb.o
 .gnu.attributes
                0x0000000000000000       0x10 build/asm/cn/libultra/reverb.o
 .data          0x0000000000000000        0x0 build/asm/cn/libultra/save.o
 .bss           0x0000000000000000        0x0 build/asm/cn/libultra/save.o
 .reginfo       0x0000000000000000       0x18 build/asm/cn/libultra/save.o
 .MIPS.abiflags
                0x0000000000000000       0x18 build/asm/cn/libultra/save.o
 .pdr           0x0000000000000000        0x0 build/asm/cn/libultra/save.o
 .gnu.attributes
                0x0000000000000000       0x10 build/asm/cn/libultra/save.o
 .data          0x0000000000000000        0x0 build/asm/cn/libultra/heapalloc.o
 .bss           0x0000000000000000        0x0 build/asm/cn/libultra/heapalloc.o
 .reginfo       0x0000000000000000       0x18 build/asm/cn/libultra/heapalloc.o
 .MIPS.abiflags
                0x0000000000000000       0x18 build/asm/cn/libultra/heapalloc.o
 .pdr           0x0000000000000000        0x0 build/asm/cn/libultra/heapalloc.o
 .gnu.attributes
                0x0000000000000000       0x10 build/asm/cn/libultra/heapalloc.o
 .data          0x0000000000000000        0x0 build/asm/cn/libultra/copy.o
 .bss           0x0000000000000000        0x0 build/asm/cn/libultra/copy.o
 .reginfo       0x0000000000000000       0x18 build/asm/cn/libultra/copy.o
 .MIPS.abiflags
                0x0000000000000000       0x18 build/asm/cn/libultra/copy.o
 .pdr           0x0000000000000000        0x0 build/asm/cn/libultra/copy.o
 .gnu.attributes
                0x0000000000000000       0x10 build/asm/cn/libultra/copy.o
 .data          0x0000000000000000        0x0 build/asm/cn/libultra/invalicache.o
 .bss           0x0000000000000000        0x0 build/asm/cn/libultra/invalicache.o
 .reginfo       0x0000000000000000       0x18 build/asm/cn/libultra/invalicache.o
 .MIPS.abiflags
                0x0000000000000000       0x18 build/asm/cn/libultra/invalicache.o
 .pdr           0x0000000000000000        0x0 build/asm/cn/libultra/invalicache.o
 .gnu.attributes
                0x0000000000000000       0x10 build/asm/cn/libultra/invalicache.o
 .data          0x0000000000000000        0x0 build/asm/cn/libultra/writebackdcache.o
 .bss           0x0000000000000000        0x0 build/asm/cn/libultra/writebackdcache.o
 .reginfo       0x0000000000000000       0x18 build/asm/cn/libultra/writebackdcache.o
 .MIPS.abiflags
                0x0000000000000000       0x18 build/asm/cn/libultra/writebackdcache.o
 .pdr           0x0000000000000000        0x0 build/asm/cn/libultra/writebackdcache.o
 .gnu.attributes
                0x0000000000000000       0x10 build/asm/cn/libultra/writebackdcache.o
 .data          0x0000000000000000        0x0 build/asm/cn/libultra/os/jammesg.o
 .bss           0x0000000000000000        0x0 build/asm/cn/libultra/os/jammesg.o
 .reginfo       0x0000000000000000       0x18 build/asm/cn/libultra/os/jammesg.o
 .MIPS.abiflags
                0x0000000000000000       0x18 build/asm/cn/libultra/os/jammesg.o
 .pdr           0x0000000000000000        0x0 build/asm/cn/libultra/os/jammesg.o
 .gnu.attributes
                0x0000000000000000       0x10 build/asm/cn/libultra/os/jammesg.o
 .data          0x0000000000000000        0x0 build/asm/cn/libultra/os/sendmesg.o
 .bss           0x0000000000000000        0x0 build/asm/cn/libultra/os/sendmesg.o
 .reginfo       0x0000000000000000       0x18 build/asm/cn/libultra/os/sendmesg.o
 .MIPS.abiflags
                0x0000000000000000       0x18 build/asm/cn/libultra/os/sendmesg.o
 .pdr           0x0000000000000000        0x0 build/asm/cn/libultra/os/sendmesg.o
 .gnu.attributes
                0x0000000000000000       0x10 build/asm/cn/libultra/os/sendmesg.o
 .data          0x0000000000000000        0x0 build/asm/cn/libultra/os/seteventmesg.o
 .bss           0x0000000000000000        0x0 build/asm/cn/libultra/os/seteventmesg.o
 .reginfo       0x0000000000000000       0x18 build/asm/cn/libultra/os/seteventmesg.o
 .MIPS.abiflags
                0x0000000000000000       0x18 build/asm/cn/libultra/os/seteventmesg.o
 .pdr           0x0000000000000000        0x0 build/asm/cn/libultra/os/seteventmesg.o
 .gnu.attributes
                0x0000000000000000       0x10 build/asm/cn/libultra/os/seteventmesg.o
 .data          0x0000000000000000        0x0 build/asm/cn/libultra/dpsetnextbuf.o
 .bss           0x0000000000000000        0x0 build/asm/cn/libultra/dpsetnextbuf.o
 .reginfo       0x0000000000000000       0x18 build/asm/cn/libultra/dpsetnextbuf.o
 .MIPS.abiflags
                0x0000000000000000       0x18 build/asm/cn/libultra/dpsetnextbuf.o
 .pdr           0x0000000000000000        0x0 build/asm/cn/libultra/dpsetnextbuf.o
 .gnu.attributes
                0x0000000000000000       0x10 build/asm/cn/libultra/dpsetnextbuf.o
 .data          0x0000000000000000        0x0 build/asm/cn/libultra/getcause.o
 .bss           0x0000000000000000        0x0 build/asm/cn/libultra/getcause.o
 .reginfo       0x0000000000000000       0x18 build/asm/cn/libultra/getcause.o
 .MIPS.abiflags
                0x0000000000000000       0x18 build/asm/cn/libultra/getcause.o
 .pdr           0x0000000000000000        0x0 build/asm/cn/libultra/getcause.o
 .gnu.attributes
                0x0000000000000000       0x10 build/asm/cn/libultra/getcause.o
 .data          0x0000000000000000        0x0 build/asm/cn/libultra/getsr.o
 .bss           0x0000000000000000        0x0 build/asm/cn/libultra/getsr.o
 .reginfo       0x0000000000000000       0x18 build/asm/cn/libultra/getsr.o
 .MIPS.abiflags
                0x0000000000000000       0x18 build/asm/cn/libultra/getsr.o
 .pdr           0x0000000000000000        0x0 build/asm/cn/libultra/getsr.o
 .gnu.attributes
                0x0000000000000000       0x10 build/asm/cn/libultra/getsr.o
 .data          0x0000000000000000        0x0 build/asm/cn/libultra/setfpccsr.o
 .bss           0x0000000000000000        0x0 build/asm/cn/libultra/setfpccsr.o
 .reginfo       0x0000000000000000       0x18 build/asm/cn/libultra/setfpccsr.o
 .MIPS.abiflags
                0x0000000000000000       0x18 build/asm/cn/libultra/setfpccsr.o
 .pdr           0x0000000000000000        0x0 build/asm/cn/libultra/setfpccsr.o
 .gnu.attributes
                0x0000000000000000       0x10 build/asm/cn/libultra/setfpccsr.o
 .data          0x0000000000000000        0x0 build/asm/cn/libultra/setsr.o
 .bss           0x0000000000000000        0x0 build/asm/cn/libultra/setsr.o
 .reginfo       0x0000000000000000       0x18 build/asm/cn/libultra/setsr.o
 .MIPS.abiflags
                0x0000000000000000       0x18 build/asm/cn/libultra/setsr.o
 .pdr           0x0000000000000000        0x0 build/asm/cn/libultra/setsr.o
 .gnu.attributes
                0x0000000000000000       0x10 build/asm/cn/libultra/setsr.o
 .data          0x0000000000000000        0x0 build/asm/cn/libultra/setwatchlo.o
 .bss           0x0000000000000000        0x0 build/asm/cn/libultra/setwatchlo.o
 .reginfo       0x0000000000000000       0x18 build/asm/cn/libultra/setwatchlo.o
 .MIPS.abiflags
                0x0000000000000000       0x18 build/asm/cn/libultra/setwatchlo.o
 .pdr           0x0000000000000000        0x0 build/asm/cn/libultra/setwatchlo.o
 .gnu.attributes
                0x0000000000000000       0x10 build/asm/cn/libultra/setwatchlo.o
 .data          0x0000000000000000        0x0 build/asm/cn/libultra/reg/_getcount.o
 .bss           0x0000000000000000        0x0 build/asm/cn/libultra/reg/_getcount.o
 .reginfo       0x0000000000000000       0x18 build/asm/cn/libultra/reg/_getcount.o
 .MIPS.abiflags
                0x0000000000000000       0x18 build/asm/cn/libultra/reg/_getcount.o
 .pdr           0x0000000000000000        0x0 build/asm/cn/libultra/reg/_getcount.o
 .gnu.attributes
                0x0000000000000000       0x10 build/asm/cn/libultra/reg/_getcount.o
 .data          0x0000000000000000        0x0 build/asm/cn/libultra/reg/_setcompare.o
 .bss           0x0000000000000000        0x0 build/asm/cn/libultra/reg/_setcompare.o
 .reginfo       0x0000000000000000       0x18 build/asm/cn/libultra/reg/_setcompare.o
 .MIPS.abiflags
                0x0000000000000000       0x18 build/asm/cn/libultra/reg/_setcompare.o
 .pdr           0x0000000000000000        0x0 build/asm/cn/libultra/reg/_setcompare.o
 .gnu.attributes
                0x0000000000000000       0x10 build/asm/cn/libultra/reg/_setcompare.o
 .data          0x0000000000000000        0x0 build/asm/cn/libultra/sp.o
 .bss           0x0000000000000000        0x0 build/asm/cn/libultra/sp.o
 .reginfo       0x0000000000000000       0x18 build/asm/cn/libultra/sp.o
 .MIPS.abiflags
                0x0000000000000000       0x18 build/asm/cn/libultra/sp.o
 .pdr           0x0000000000000000        0x0 build/asm/cn/libultra/sp.o
 .gnu.attributes
                0x0000000000000000       0x10 build/asm/cn/libultra/sp.o
 .data          0x0000000000000000        0x0 build/asm/cn/libultra/spgetstat.o
 .bss           0x0000000000000000        0x0 build/asm/cn/libultra/spgetstat.o
 .reginfo       0x0000000000000000       0x18 build/asm/cn/libultra/spgetstat.o
 .MIPS.abiflags
                0x0000000000000000       0x18 build/asm/cn/libultra/spgetstat.o
 .pdr           0x0000000000000000        0x0 build/asm/cn/libultra/spgetstat.o
 .gnu.attributes
                0x0000000000000000       0x10 build/asm/cn/libultra/spgetstat.o
 .data          0x0000000000000000        0x0 build/asm/cn/libultra/spsetstat.o
 .bss           0x0000000000000000        0x0 build/asm/cn/libultra/spsetstat.o
 .reginfo       0x0000000000000000       0x18 build/asm/cn/libultra/spsetstat.o
 .MIPS.abiflags
                0x0000000000000000       0x18 build/asm/cn/libultra/spsetstat.o
 .pdr           0x0000000000000000        0x0 build/asm/cn/libultra/spsetstat.o
 .gnu.attributes
                0x0000000000000000       0x10 build/asm/cn/libultra/spsetstat.o
 .data          0x0000000000000000        0x0 build/asm/cn/libultra/spsetpc.o
 .bss           0x0000000000000000        0x0 build/asm/cn/libultra/spsetpc.o
 .reginfo       0x0000000000000000       0x18 build/asm/cn/libultra/spsetpc.o
 .MIPS.abiflags
                0x0000000000000000       0x18 build/asm/cn/libultra/spsetpc.o
 .pdr           0x0000000000000000        0x0 build/asm/cn/libultra/spsetpc.o
 .gnu.attributes
                0x0000000000000000       0x10 build/asm/cn/libultra/spsetpc.o
 .data          0x0000000000000000        0x0 build/asm/cn/libultra/sprawdma.o
 .bss           0x0000000000000000        0x0 build/asm/cn/libultra/sprawdma.o
 .reginfo       0x0000000000000000       0x18 build/asm/cn/libultra/sprawdma.o
 .MIPS.abiflags
                0x0000000000000000       0x18 build/asm/cn/libultra/sprawdma.o
 .pdr           0x0000000000000000        0x0 build/asm/cn/libultra/sprawdma.o
 .gnu.attributes
                0x0000000000000000       0x10 build/asm/cn/libultra/sprawdma.o
 .data          0x0000000000000000        0x0 build/asm/cn/libultra/io/sirawread.o
 .bss           0x0000000000000000        0x0 build/asm/cn/libultra/io/sirawread.o
 .reginfo       0x0000000000000000       0x18 build/asm/cn/libultra/io/sirawread.o
 .MIPS.abiflags
                0x0000000000000000       0x18 build/asm/cn/libultra/io/sirawread.o
 .pdr           0x0000000000000000        0x0 build/asm/cn/libultra/io/sirawread.o
 .gnu.attributes
                0x0000000000000000       0x10 build/asm/cn/libultra/io/sirawread.o
 .data          0x0000000000000000        0x0 build/asm/cn/libultra/io/sirawwrite.o
 .bss           0x0000000000000000        0x0 build/asm/cn/libultra/io/sirawwrite.o
 .reginfo       0x0000000000000000       0x18 build/asm/cn/libultra/io/sirawwrite.o
 .MIPS.abiflags
                0x0000000000000000       0x18 build/asm/cn/libultra/io/sirawwrite.o
 .pdr           0x0000000000000000        0x0 build/asm/cn/libultra/io/sirawwrite.o
 .gnu.attributes
                0x0000000000000000       0x10 build/asm/cn/libultra/io/sirawwrite.o
 .data          0x0000000000000000        0x0 build/asm/cn/libultra/os/destroythread.o
 .bss           0x0000000000000000        0x0 build/asm/cn/libultra/os/destroythread.o
 .reginfo       0x0000000000000000       0x18 build/asm/cn/libultra/os/destroythread.o
 .MIPS.abiflags
                0x0000000000000000       0x18 build/asm/cn/libultra/os/destroythread.o
 .pdr           0x0000000000000000        0x0 build/asm/cn/libultra/os/destroythread.o
 .gnu.attributes
                0x0000000000000000       0x10 build/asm/cn/libultra/os/destroythread.o
 .data          0x0000000000000000        0x0 build/asm/cn/libultra/os/getthreadid.o
 .bss           0x0000000000000000        0x0 build/asm/cn/libultra/os/getthreadid.o
 .reginfo       0x0000000000000000       0x18 build/asm/cn/libultra/os/getthreadid.o
 .MIPS.abiflags
                0x0000000000000000       0x18 build/asm/cn/libultra/os/getthreadid.o
 .pdr           0x0000000000000000        0x0 build/asm/cn/libultra/os/getthreadid.o
 .gnu.attributes
                0x0000000000000000       0x10 build/asm/cn/libultra/os/getthreadid.o
 .data          0x0000000000000000        0x0 build/asm/cn/libultra/os/setthreadpri.o
 .bss           0x0000000000000000        0x0 build/asm/cn/libultra/os/setthreadpri.o
 .reginfo       0x0000000000000000       0x18 build/asm/cn/libultra/os/setthreadpri.o
 .MIPS.abiflags
                0x0000000000000000       0x18 build/asm/cn/libultra/os/setthreadpri.o
 .pdr           0x0000000000000000        0x0 build/asm/cn/libultra/os/setthreadpri.o
 .gnu.attributes
                0x0000000000000000       0x10 build/asm/cn/libultra/os/setthreadpri.o
 .data          0x0000000000000000        0x0 build/asm/cn/libultra/os/yieldthread.o
 .bss           0x0000000000000000        0x0 build/asm/cn/libultra/os/yieldthread.o
 .reginfo       0x0000000000000000       0x18 build/asm/cn/libultra/os/yieldthread.o
 .MIPS.abiflags
                0x0000000000000000       0x18 build/asm/cn/libultra/os/yieldthread.o
 .pdr           0x0000000000000000        0x0 build/asm/cn/libultra/os/yieldthread.o
 .gnu.attributes
                0x0000000000000000       0x10 build/asm/cn/libultra/os/yieldthread.o
 .data          0x0000000000000000        0x0 build/asm/cn/libultra/maptlbrdb.o
 .bss           0x0000000000000000        0x0 build/asm/cn/libultra/maptlbrdb.o
 .reginfo       0x0000000000000000       0x18 build/asm/cn/libultra/maptlbrdb.o
 .MIPS.abiflags
                0x0000000000000000       0x18 build/asm/cn/libultra/maptlbrdb.o
 .pdr           0x0000000000000000        0x0 build/asm/cn/libultra/maptlbrdb.o
 .gnu.attributes
                0x0000000000000000       0x10 build/asm/cn/libultra/maptlbrdb.o
 .data          0x0000000000000000        0x0 build/asm/cn/libultra/unmaptlball.o
 .bss           0x0000000000000000        0x0 build/asm/cn/libultra/unmaptlball.o
 .reginfo       0x0000000000000000       0x18 build/asm/cn/libultra/unmaptlball.o
 .MIPS.abiflags
                0x0000000000000000       0x18 build/asm/cn/libultra/unmaptlball.o
 .pdr           0x0000000000000000        0x0 build/asm/cn/libultra/unmaptlball.o
 .gnu.attributes
                0x0000000000000000       0x10 build/asm/cn/libultra/unmaptlball.o
 .data          0x0000000000000000        0x0 build/asm/cn/libultra/vi.o
 .bss           0x0000000000000000        0x0 build/asm/cn/libultra/vi.o
 .reginfo       0x0000000000000000       0x18 build/asm/cn/libultra/vi.o
 .MIPS.abiflags
                0x0000000000000000       0x18 build/asm/cn/libultra/vi.o
 .pdr           0x0000000000000000        0x0 build/asm/cn/libultra/vi.o
 .gnu.attributes
                0x0000000000000000       0x10 build/asm/cn/libultra/vi.o
 .data          0x0000000000000000        0x0 build/asm/cn/libultra/io/vigetcurrcontext.o
 .bss           0x0000000000000000        0x0 build/asm/cn/libultra/io/vigetcurrcontext.o
 .reginfo       0x0000000000000000       0x18 build/asm/cn/libultra/io/vigetcurrcontext.o
 .MIPS.abiflags
                0x0000000000000000       0x18 build/asm/cn/libultra/io/vigetcurrcontext.o
 .pdr           0x0000000000000000        0x0 build/asm/cn/libultra/io/vigetcurrcontext.o
 .gnu.attributes
                0x0000000000000000       0x10 build/asm/cn/libultra/io/vigetcurrcontext.o
 .data          0x0000000000000000        0x0 build/asm/cn/libultra/conteepread.o
 .bss           0x0000000000000000        0x0 build/asm/cn/libultra/conteepread.o
 .reginfo       0x0000000000000000       0x18 build/asm/cn/libultra/conteepread.o
 .MIPS.abiflags
                0x0000000000000000       0x18 build/asm/cn/libultra/conteepread.o
 .pdr           0x0000000000000000        0x0 build/asm/cn/libultra/conteepread.o
 .gnu.attributes
                0x0000000000000000       0x10 build/asm/cn/libultra/conteepread.o
 .data          0x0000000000000000        0x0 build/asm/cn/libultra/conteepwrite.o
 .bss           0x0000000000000000        0x0 build/asm/cn/libultra/conteepwrite.o
 .reginfo       0x0000000000000000       0x18 build/asm/cn/libultra/conteepwrite.o
 .MIPS.abiflags
                0x0000000000000000       0x18 build/asm/cn/libultra/conteepwrite.o
 .pdr           0x0000000000000000        0x0 build/asm/cn/libultra/conteepwrite.o
 .gnu.attributes
                0x0000000000000000       0x10 build/asm/cn/libultra/conteepwrite.o
 .data          0x0000000000000000        0x0 build/asm/cn/libultra/os/setglobalintmask.o
 .bss           0x0000000000000000        0x0 build/asm/cn/libultra/os/setglobalintmask.o
 .reginfo       0x0000000000000000       0x18 build/asm/cn/libultra/os/setglobalintmask.o
 .MIPS.abiflags
                0x0000000000000000       0x18 build/asm/cn/libultra/os/setglobalintmask.o
 .pdr           0x0000000000000000        0x0 build/asm/cn/libultra/os/setglobalintmask.o
 .gnu.attributes
                0x0000000000000000       0x10 build/asm/cn/libultra/os/setglobalintmask.o
 .data          0x0000000000000000        0x0 build/asm/cn/libultra/os/resetglobalintmask.o
 .bss           0x0000000000000000        0x0 build/asm/cn/libultra/os/resetglobalintmask.o
 .reginfo       0x0000000000000000       0x18 build/asm/cn/libultra/os/resetglobalintmask.o
 .MIPS.abiflags
                0x0000000000000000       0x18 build/asm/cn/libultra/os/resetglobalintmask.o
 .pdr           0x0000000000000000        0x0 build/asm/cn/libultra/os/resetglobalintmask.o
 .gnu.attributes
                0x0000000000000000       0x10 build/asm/cn/libultra/os/resetglobalintmask.o
 .data          0x0000000000000000        0x0 build/asm/cn/libultra/pirawdma.o
 .bss           0x0000000000000000        0x0 build/asm/cn/libultra/pirawdma.o
 .reginfo       0x0000000000000000       0x18 build/asm/cn/libultra/pirawdma.o
 .MIPS.abiflags
                0x0000000000000000       0x18 build/asm/cn/libultra/pirawdma.o
 .pdr           0x0000000000000000        0x0 build/asm/cn/libultra/pirawdma.o
 .gnu.attributes
                0x0000000000000000       0x10 build/asm/cn/libultra/pirawdma.o
 .data          0x0000000000000000        0x0 build/asm/cn/libultra/pigetcmdq.o
 .bss           0x0000000000000000        0x0 build/asm/cn/libultra/pigetcmdq.o
 .reginfo       0x0000000000000000       0x18 build/asm/cn/libultra/pigetcmdq.o
 .MIPS.abiflags
                0x0000000000000000       0x18 build/asm/cn/libultra/pigetcmdq.o
 .pdr           0x0000000000000000        0x0 build/asm/cn/libultra/pigetcmdq.o
 .gnu.attributes
                0x0000000000000000       0x10 build/asm/cn/libultra/pigetcmdq.o
 .data          0x0000000000000000        0x0 build/asm/cn/libultra/epirawread.o
 .bss           0x0000000000000000        0x0 build/asm/cn/libultra/epirawread.o
 .reginfo       0x0000000000000000       0x18 build/asm/cn/libultra/epirawread.o
 .MIPS.abiflags
                0x0000000000000000       0x18 build/asm/cn/libultra/epirawread.o
 .pdr           0x0000000000000000        0x0 build/asm/cn/libultra/epirawread.o
 .gnu.attributes
                0x0000000000000000       0x10 build/asm/cn/libultra/epirawread.o
 .data          0x0000000000000000        0x0 build/asm/cn/libultra/epirawwrite.o
 .bss           0x0000000000000000        0x0 build/asm/cn/libultra/epirawwrite.o
 .reginfo       0x0000000000000000       0x18 build/asm/cn/libultra/epirawwrite.o
 .MIPS.abiflags
                0x0000000000000000       0x18 build/asm/cn/libultra/epirawwrite.o
 .pdr           0x0000000000000000        0x0 build/asm/cn/libultra/epirawwrite.o
 .gnu.attributes
                0x0000000000000000       0x10 build/asm/cn/libultra/epirawwrite.o
 .data          0x0000000000000000        0x0 build/asm/cn/libultra/dp.o
 .bss           0x0000000000000000        0x0 build/asm/cn/libultra/dp.o
 .reginfo       0x0000000000000000       0x18 build/asm/cn/libultra/dp.o
 .MIPS.abiflags
                0x0000000000000000       0x18 build/asm/cn/libultra/dp.o
 .pdr           0x0000000000000000        0x0 build/asm/cn/libultra/dp.o
 .gnu.attributes
                0x0000000000000000       0x10 build/asm/cn/libultra/dp.o
 .data          0x0000000000000000        0x0 build/asm/cn/libultra/si.o
 .bss           0x0000000000000000        0x0 build/asm/cn/libultra/si.o
 .reginfo       0x0000000000000000       0x18 build/asm/cn/libultra/si.o
 .MIPS.abiflags
                0x0000000000000000       0x18 build/asm/cn/libultra/si.o
 .pdr           0x0000000000000000        0x0 build/asm/cn/libultra/si.o
 .gnu.attributes
                0x0000000000000000       0x10 build/asm/cn/libultra/si.o
 .data          0x0000000000000000        0x0 build/src/libegcs/libgcc2.o
 .bss           0x0000000000000000        0x0 build/src/libegcs/libgcc2.o
 .reginfo       0x0000000000000000       0x18 build/src/libegcs/libgcc2.o
 .mdebug        0x0000000000000000     0x1064 build/src/libegcs/libgcc2.o
 .note          0x0000000000000000       0x14 build/src/libegcs/libgcc2.o
 .comment       0x0000000000000000       0x37 build/src/libegcs/libgcc2.o
 .data          0x0000000000000000        0x0 build/asm/cn/libegcs/00F6A0.o
 .bss           0x0000000000000000        0x0 build/asm/cn/libegcs/00F6A0.o
 .reginfo       0x0000000000000000       0x18 build/asm/cn/libegcs/00F6A0.o
 .MIPS.abiflags
                0x0000000000000000       0x18 build/asm/cn/libegcs/00F6A0.o
 .pdr           0x0000000000000000        0x0 build/asm/cn/libegcs/00F6A0.o
 .gnu.attributes
                0x0000000000000000       0x10 build/asm/cn/libegcs/00F6A0.o
 .data          0x0000000000000000        0x0 build/asm/cn/libegcs/00F6E0.o
 .bss           0x0000000000000000        0x0 build/asm/cn/libegcs/00F6E0.o
 .reginfo       0x0000000000000000       0x18 build/asm/cn/libegcs/00F6E0.o
 .MIPS.abiflags
                0x0000000000000000       0x18 build/asm/cn/libegcs/00F6E0.o
 .pdr           0x0000000000000000        0x0 build/asm/cn/libegcs/00F6E0.o
 .gnu.attributes
                0x0000000000000000       0x10 build/asm/cn/libegcs/00F6E0.o
 .data          0x0000000000000000        0x0 build/asm/cn/libegcs/00F700.o
 .bss           0x0000000000000000        0x0 build/asm/cn/libegcs/00F700.o
 .reginfo       0x0000000000000000       0x18 build/asm/cn/libegcs/00F700.o
 .MIPS.abiflags
                0x0000000000000000       0x18 build/asm/cn/libegcs/00F700.o
 .pdr           0x0000000000000000        0x0 build/asm/cn/libegcs/00F700.o
 .gnu.attributes
                0x0000000000000000       0x10 build/asm/cn/libegcs/00F700.o
 .data          0x0000000000000000        0x0 build/asm/cn/libegcs/00F760.o
 .bss           0x0000000000000000        0x0 build/asm/cn/libegcs/00F760.o
 .reginfo       0x0000000000000000       0x18 build/asm/cn/libegcs/00F760.o
 .MIPS.abiflags
                0x0000000000000000       0x18 build/asm/cn/libegcs/00F760.o
 .pdr           0x0000000000000000        0x0 build/asm/cn/libegcs/00F760.o
 .gnu.attributes
                0x0000000000000000       0x10 build/asm/cn/libegcs/00F760.o
 .data          0x0000000000000000        0x0 build/asm/cn/libegcs/00F7A0.o
 .bss           0x0000000000000000        0x0 build/asm/cn/libegcs/00F7A0.o
 .reginfo       0x0000000000000000       0x18 build/asm/cn/libegcs/00F7A0.o
 .MIPS.abiflags
                0x0000000000000000       0x18 build/asm/cn/libegcs/00F7A0.o
 .pdr           0x0000000000000000        0x0 build/asm/cn/libegcs/00F7A0.o
 .gnu.attributes
                0x0000000000000000       0x10 build/asm/cn/libegcs/00F7A0.o
 .text          0x0000000000000000        0x0 build/asm/cn/data/boot/00F850.data.o
 .bss           0x0000000000000000        0x0 build/asm/cn/data/boot/00F850.data.o
 .reginfo       0x0000000000000000       0x18 build/asm/cn/data/boot/00F850.data.o
 .MIPS.abiflags
                0x0000000000000000       0x18 build/asm/cn/data/boot/00F850.data.o
 .pdr           0x0000000000000000        0x0 build/asm/cn/data/boot/00F850.data.o
 .gnu.attributes
                0x0000000000000000       0x10 build/asm/cn/data/boot/00F850.data.o
 .text          0x0000000000000000        0x0 build/asm/cn/data/boot/010100.data.o
 .bss           0x0000000000000000        0x0 build/asm/cn/data/boot/010100.data.o
 .reginfo       0x0000000000000000       0x18 build/asm/cn/data/boot/010100.data.o
 .MIPS.abiflags
                0x0000000000000000       0x18 build/asm/cn/data/boot/010100.data.o
 .pdr           0x0000000000000000        0x0 build/asm/cn/data/boot/010100.data.o
 .gnu.attributes
                0x0000000000000000       0x10 build/asm/cn/data/boot/010100.data.o
 .text          0x0000000000000000        0x0 build/asm/cn/data/boot/0120E0.rodata.o
 .data          0x0000000000000000        0x0 build/asm/cn/data/boot/0120E0.rodata.o
 .bss           0x0000000000000000        0x0 build/asm/cn/data/boot/0120E0.rodata.o
 .reginfo       0x0000000000000000       0x18 build/asm/cn/data/boot/0120E0.rodata.o
 .MIPS.abiflags
                0x0000000000000000       0x18 build/asm/cn/data/boot/0120E0.rodata.o
 .pdr           0x0000000000000000        0x0 build/asm/cn/data/boot/0120E0.rodata.o
 .gnu.attributes
                0x0000000000000000       0x10 build/asm/cn/data/boot/0120E0.rodata.o
 .text          0x0000000000000000        0x0 build/asm/cn/data/boot/012180.rodata.o
 .data          0x0000000000000000        0x0 build/asm/cn/data/boot/012180.rodata.o
 .bss           0x0000000000000000        0x0 build/asm/cn/data/boot/012180.rodata.o
 .reginfo       0x0000000000000000       0x18 build/asm/cn/data/boot/012180.rodata.o
 .MIPS.abiflags
                0x0000000000000000       0x18 build/asm/cn/data/boot/012180.rodata.o
 .pdr           0x0000000000000000        0x0 build/asm/cn/data/boot/012180.rodata.o
 .gnu.attributes
                0x0000000000000000       0x10 build/asm/cn/data/boot/012180.rodata.o
 .text          0x0000000000000000        0x0 build/asm/cn/data/boot/0121E0.rodata.o
 .data          0x0000000000000000        0x0 build/asm/cn/data/boot/0121E0.rodata.o
 .bss           0x0000000000000000        0x0 build/asm/cn/data/boot/0121E0.rodata.o
 .reginfo       0x0000000000000000       0x18 build/asm/cn/data/boot/0121E0.rodata.o
 .MIPS.abiflags
                0x0000000000000000       0x18 build/asm/cn/data/boot/0121E0.rodata.o
 .pdr           0x0000000000000000        0x0 build/asm/cn/data/boot/0121E0.rodata.o
 .gnu.attributes
                0x0000000000000000       0x10 build/asm/cn/data/boot/0121E0.rodata.o
 .text          0x0000000000000000        0x0 build/asm/cn/data/boot/012240.rodata.o
 .data          0x0000000000000000        0x0 build/asm/cn/data/boot/012240.rodata.o
 .bss           0x0000000000000000        0x0 build/asm/cn/data/boot/012240.rodata.o
 .reginfo       0x0000000000000000       0x18 build/asm/cn/data/boot/012240.rodata.o
 .MIPS.abiflags
                0x0000000000000000       0x18 build/asm/cn/data/boot/012240.rodata.o
 .pdr           0x0000000000000000        0x0 build/asm/cn/data/boot/012240.rodata.o
 .gnu.attributes
                0x0000000000000000       0x10 build/asm/cn/data/boot/012240.rodata.o
 .text          0x0000000000000000        0x0 build/asm/cn/data/boot/012260.rodata.o
 .data          0x0000000000000000        0x0 build/asm/cn/data/boot/012260.rodata.o
 .bss           0x0000000000000000        0x0 build/asm/cn/data/boot/012260.rodata.o
 .reginfo       0x0000000000000000       0x18 build/asm/cn/data/boot/012260.rodata.o
 .MIPS.abiflags
                0x0000000000000000       0x18 build/asm/cn/data/boot/012260.rodata.o
 .pdr           0x0000000000000000        0x0 build/asm/cn/data/boot/012260.rodata.o
 .gnu.attributes
                0x0000000000000000       0x10 build/asm/cn/data/boot/012260.rodata.o
 .text          0x0000000000000000        0x0 build/asm/cn/data/boot/0122B0.rodata.o
 .data          0x0000000000000000        0x0 build/asm/cn/data/boot/0122B0.rodata.o
 .bss           0x0000000000000000        0x0 build/asm/cn/data/boot/0122B0.rodata.o
 .reginfo       0x0000000000000000       0x18 build/asm/cn/data/boot/0122B0.rodata.o
 .MIPS.abiflags
                0x0000000000000000       0x18 build/asm/cn/data/boot/0122B0.rodata.o
 .pdr           0x0000000000000000        0x0 build/asm/cn/data/boot/0122B0.rodata.o
 .gnu.attributes
                0x0000000000000000       0x10 build/asm/cn/data/boot/0122B0.rodata.o
 .text          0x0000000000000000        0x0 build/asm/cn/data/boot/0123D0.rodata.o
 .data          0x0000000000000000        0x0 build/asm/cn/data/boot/0123D0.rodata.o
 .bss           0x0000000000000000        0x0 build/asm/cn/data/boot/0123D0.rodata.o
 .reginfo       0x0000000000000000       0x18 build/asm/cn/data/boot/0123D0.rodata.o
 .MIPS.abiflags
                0x0000000000000000       0x18 build/asm/cn/data/boot/0123D0.rodata.o
 .pdr           0x0000000000000000        0x0 build/asm/cn/data/boot/0123D0.rodata.o
 .gnu.attributes
                0x0000000000000000       0x10 build/asm/cn/data/boot/0123D0.rodata.o
 .text          0x0000000000000000        0x0 build/asm/cn/data/boot/800118E0.bss.o
 .data          0x0000000000000000        0x0 build/asm/cn/data/boot/800118E0.bss.o
 .reginfo       0x0000000000000000       0x18 build/asm/cn/data/boot/800118E0.bss.o
 .MIPS.abiflags
                0x0000000000000000       0x18 build/asm/cn/data/boot/800118E0.bss.o
 .pdr           0x0000000000000000        0x0 build/asm/cn/data/boot/800118E0.bss.o
 .gnu.attributes
                0x0000000000000000       0x10 build/asm/cn/data/boot/800118E0.bss.o
 .text          0x0000000000000000        0x0 build/asm/cn/data/boot/boot_main.bss.o
 .data          0x0000000000000000        0x0 build/asm/cn/data/boot/boot_main.bss.o
 .reginfo       0x0000000000000000       0x18 build/asm/cn/data/boot/boot_main.bss.o
 .MIPS.abiflags
                0x0000000000000000       0x18 build/asm/cn/data/boot/boot_main.bss.o
 .pdr           0x0000000000000000        0x0 build/asm/cn/data/boot/boot_main.bss.o
 .gnu.attributes
                0x0000000000000000       0x10 build/asm/cn/data/boot/boot_main.bss.o
 .text          0x0000000000000000        0x0 build/asm/cn/data/boot/80015CB0.bss.o
 .data          0x0000000000000000        0x0 build/asm/cn/data/boot/80015CB0.bss.o
 .reginfo       0x0000000000000000       0x18 build/asm/cn/data/boot/80015CB0.bss.o
 .MIPS.abiflags
                0x0000000000000000       0x18 build/asm/cn/data/boot/80015CB0.bss.o
 .pdr           0x0000000000000000        0x0 build/asm/cn/data/boot/80015CB0.bss.o
 .gnu.attributes
                0x0000000000000000       0x10 build/asm/cn/data/boot/80015CB0.bss.o
 .text          0x0000000000000000        0x0 build/asm/cn/data/gateway/003630.bss.o
 .data          0x0000000000000000        0x0 build/asm/cn/data/gateway/003630.bss.o
 .reginfo       0x0000000000000000       0x18 build/asm/cn/data/gateway/003630.bss.o
 .MIPS.abiflags
                0x0000000000000000       0x18 build/asm/cn/data/gateway/003630.bss.o
 .pdr           0x0000000000000000        0x0 build/asm/cn/data/gateway/003630.bss.o
 .gnu.attributes
                0x0000000000000000       0x10 build/asm/cn/data/gateway/003630.bss.o
 .text          0x0000000000000000        0x0 build/asm/cn/data/boot/80019D50.bss.o
 .data          0x0000000000000000        0x0 build/asm/cn/data/boot/80019D50.bss.o
 .reginfo       0x0000000000000000       0x18 build/asm/cn/data/boot/80019D50.bss.o
 .MIPS.abiflags
                0x0000000000000000       0x18 build/asm/cn/data/boot/80019D50.bss.o
 .pdr           0x0000000000000000        0x0 build/asm/cn/data/boot/80019D50.bss.o
 .gnu.attributes
                0x0000000000000000       0x10 build/asm/cn/data/boot/80019D50.bss.o
 .text          0x0000000000000000        0x0 build/src/dma_table/dma_table.o
 .bss           0x0000000000000000        0x0 build/src/dma_table/dma_table.o
 .reginfo       0x0000000000000000       0x18 build/src/dma_table/dma_table.o
 .mdebug        0x0000000000000000     0x72bc build/src/dma_table/dma_table.o
 .note          0x0000000000000000       0x14 build/src/dma_table/dma_table.o
 .comment       0x0000000000000000       0x37 build/src/dma_table/dma_table.o
 .data          0x0000000000000000        0x0 build/src/main_segment/main.o
 .bss           0x0000000000000000        0x0 build/src/main_segment/main.o
 .reginfo       0x0000000000000000       0x18 build/src/main_segment/main.o
 .mdebug        0x0000000000000000    0x117c0 build/src/main_segment/main.o
 .note          0x0000000000000000       0x14 build/src/main_segment/main.o
 .comment       0x0000000000000000       0x37 build/src/main_segment/main.o
 .bss           0x0000000000000000        0x0 build/src/main_segment/000280.o
 .reginfo       0x0000000000000000       0x18 build/src/main_segment/000280.o
 .mdebug        0x0000000000000000    0x12b40 build/src/main_segment/000280.o
 .note          0x0000000000000000       0x14 build/src/main_segment/000280.o
 .comment       0x0000000000000000       0x37 build/src/main_segment/000280.o
 .data          0x0000000000000000        0x0 build/src/main_segment/joy.o
 .bss           0x0000000000000000        0x0 build/src/main_segment/joy.o
 .reginfo       0x0000000000000000       0x18 build/src/main_segment/joy.o
 .mdebug        0x0000000000000000    0x104c8 build/src/main_segment/joy.o
 .note          0x0000000000000000       0x14 build/src/main_segment/joy.o
 .comment       0x0000000000000000       0x37 build/src/main_segment/joy.o
 .data          0x0000000000000000        0x0 build/src/main_segment/sound.o
 .bss           0x0000000000000000        0x0 build/src/main_segment/sound.o
 .reginfo       0x0000000000000000       0x18 build/src/main_segment/sound.o
 .mdebug        0x0000000000000000    0x12aa0 build/src/main_segment/sound.o
 .note          0x0000000000000000       0x14 build/src/main_segment/sound.o
 .comment       0x0000000000000000       0x37 build/src/main_segment/sound.o
 .bss           0x0000000000000000        0x0 build/src/main_segment/graphic.o
 .reginfo       0x0000000000000000       0x18 build/src/main_segment/graphic.o
 .mdebug        0x0000000000000000    0x13844 build/src/main_segment/graphic.o
 .note          0x0000000000000000       0x14 build/src/main_segment/graphic.o
 .comment       0x0000000000000000       0x37 build/src/main_segment/graphic.o
 .data          0x0000000000000000        0x0 build/src/main_segment/graphics/static.o
 .bss           0x0000000000000000        0x0 build/src/main_segment/graphics/static.o
 .reginfo       0x0000000000000000       0x18 build/src/main_segment/graphics/static.o
 .mdebug        0x0000000000000000    0x1006c build/src/main_segment/graphics/static.o
 .note          0x0000000000000000       0x14 build/src/main_segment/graphics/static.o
 .comment       0x0000000000000000       0x37 build/src/main_segment/graphics/static.o
 .data          0x0000000000000000        0x0 build/src/main_segment/audio/003520.o
 .bss           0x0000000000000000        0x0 build/src/main_segment/audio/003520.o
 .reginfo       0x0000000000000000       0x18 build/src/main_segment/audio/003520.o
 .mdebug        0x0000000000000000    0x12964 build/src/main_segment/audio/003520.o
 .note          0x0000000000000000       0x14 build/src/main_segment/audio/003520.o
 .comment       0x0000000000000000       0x37 build/src/main_segment/audio/003520.o
 .data          0x0000000000000000        0x0 build/src/main_segment/main1x.o
 .bss           0x0000000000000000        0x0 build/src/main_segment/main1x.o
 .reginfo       0x0000000000000000       0x18 build/src/main_segment/main1x.o
 .mdebug        0x0000000000000000    0x11730 build/src/main_segment/main1x.o
 .note          0x0000000000000000       0x14 build/src/main_segment/main1x.o
 .comment       0x0000000000000000       0x37 build/src/main_segment/main1x.o
 .bss           0x0000000000000000        0x0 build/src/main_segment/vr_init.o
 .reginfo       0x0000000000000000       0x18 build/src/main_segment/vr_init.o
 .mdebug        0x0000000000000000     0x78f4 build/src/main_segment/vr_init.o
 .note          0x0000000000000000       0x14 build/src/main_segment/vr_init.o
 .comment       0x0000000000000000       0x37 build/src/main_segment/vr_init.o
 .data          0x0000000000000000        0x0 build/src/main_segment/aiset.o
 .bss           0x0000000000000000        0x0 build/src/main_segment/aiset.o
 .reginfo       0x0000000000000000       0x18 build/src/main_segment/aiset.o
 .mdebug        0x0000000000000000    0x12810 build/src/main_segment/aiset.o
 .note          0x0000000000000000       0x14 build/src/main_segment/aiset.o
 .comment       0x0000000000000000       0x37 build/src/main_segment/aiset.o
 .data          0x0000000000000000        0x0 build/src/main_segment/record.o
 .bss           0x0000000000000000        0x0 build/src/main_segment/record.o
 .reginfo       0x0000000000000000       0x18 build/src/main_segment/record.o
 .mdebug        0x0000000000000000    0x1a300 build/src/main_segment/record.o
 .note          0x0000000000000000       0x14 build/src/main_segment/record.o
 .comment       0x0000000000000000       0x37 build/src/main_segment/record.o
 .data          0x0000000000000000        0x0 build/src/main_segment/020D10_cn.o
 .bss           0x0000000000000000        0x0 build/src/main_segment/020D10_cn.o
 .reginfo       0x0000000000000000       0x18 build/src/main_segment/020D10_cn.o
 .mdebug        0x0000000000000000     0xf8fc build/src/main_segment/020D10_cn.o
 .note          0x0000000000000000       0x14 build/src/main_segment/020D10_cn.o
 .comment       0x0000000000000000       0x37 build/src/main_segment/020D10_cn.o
 .data          0x0000000000000000        0x0 build/src/main_segment/game_etc.o
 .bss           0x0000000000000000        0x0 build/src/main_segment/game_etc.o
 .reginfo       0x0000000000000000       0x18 build/src/main_segment/game_etc.o
 .mdebug        0x0000000000000000    0x141f4 build/src/main_segment/game_etc.o
 .note          0x0000000000000000       0x14 build/src/main_segment/game_etc.o
 .comment       0x0000000000000000       0x37 build/src/main_segment/game_etc.o
 .data          0x0000000000000000        0x0 build/src/main_segment/screen_print/printer.o
 .bss           0x0000000000000000        0x0 build/src/main_segment/screen_print/printer.o
 .reginfo       0x0000000000000000       0x18 build/src/main_segment/screen_print/printer.o
 .mdebug        0x0000000000000000     0x7768 build/src/main_segment/screen_print/printer.o
 .note          0x0000000000000000       0x14 build/src/main_segment/screen_print/printer.o
 .comment       0x0000000000000000       0x37 build/src/main_segment/screen_print/printer.o
 .bss           0x0000000000000000        0x0 build/src/main_segment/screen_print/debug_print.o
 .reginfo       0x0000000000000000       0x18 build/src/main_segment/screen_print/debug_print.o
 .mdebug        0x0000000000000000    0x10dec build/src/main_segment/screen_print/debug_print.o
 .note          0x0000000000000000       0x14 build/src/main_segment/screen_print/debug_print.o
 .comment       0x0000000000000000       0x37 build/src/main_segment/screen_print/debug_print.o
 .bss           0x0000000000000000        0x0 build/src/main_segment/debug_menu.o
 .reginfo       0x0000000000000000       0x18 build/src/main_segment/debug_menu.o
 .mdebug        0x0000000000000000    0x14c54 build/src/main_segment/debug_menu.o
 .note          0x0000000000000000       0x14 build/src/main_segment/debug_menu.o
 .comment       0x0000000000000000       0x37 build/src/main_segment/debug_menu.o
 .bss           0x0000000000000000        0x0 build/src/main_segment/028820.o
 .reginfo       0x0000000000000000       0x18 build/src/main_segment/028820.o
 .mdebug        0x0000000000000000     0xffcc build/src/main_segment/028820.o
 .note          0x0000000000000000       0x14 build/src/main_segment/028820.o
 .comment       0x0000000000000000       0x37 build/src/main_segment/028820.o
 .bss           0x0000000000000000        0x0 build/src/main_segment/tex_func.o
 .reginfo       0x0000000000000000       0x18 build/src/main_segment/tex_func.o
 .mdebug        0x0000000000000000    0x169fc build/src/main_segment/tex_func.o
 .note          0x0000000000000000       0x14 build/src/main_segment/tex_func.o
 .comment       0x0000000000000000       0x37 build/src/main_segment/tex_func.o
 .bss           0x0000000000000000        0x0 build/src/main_segment/main_menu.o
 .reginfo       0x0000000000000000       0x18 build/src/main_segment/main_menu.o
 .mdebug        0x0000000000000000    0x26194 build/src/main_segment/main_menu.o
 .note          0x0000000000000000       0x14 build/src/main_segment/main_menu.o
 .comment       0x0000000000000000       0x37 build/src/main_segment/main_menu.o
 .bss           0x0000000000000000        0x0 build/src/main_segment/font.o
 .reginfo       0x0000000000000000       0x18 build/src/main_segment/font.o
 .mdebug        0x0000000000000000    0x135fc build/src/main_segment/font.o
 .note          0x0000000000000000       0x14 build/src/main_segment/font.o
 .comment       0x0000000000000000       0x37 build/src/main_segment/font.o
 .data          0x0000000000000000        0x0 build/src/main_segment/msgwnd.o
 .bss           0x0000000000000000        0x0 build/src/main_segment/msgwnd.o
 .reginfo       0x0000000000000000       0x18 build/src/main_segment/msgwnd.o
 .mdebug        0x0000000000000000    0x12094 build/src/main_segment/msgwnd.o
 .note          0x0000000000000000       0x14 build/src/main_segment/msgwnd.o
 .comment       0x0000000000000000       0x37 build/src/main_segment/msgwnd.o
 .data          0x0000000000000000        0x0 build/src/main_segment/char_anime.o
 .bss           0x0000000000000000        0x0 build/src/main_segment/char_anime.o
 .reginfo       0x0000000000000000       0x18 build/src/main_segment/char_anime.o
 .mdebug        0x0000000000000000    0x12258 build/src/main_segment/char_anime.o
 .note          0x0000000000000000       0x14 build/src/main_segment/char_anime.o
 .comment       0x0000000000000000       0x37 build/src/main_segment/char_anime.o
 .data          0x0000000000000000        0x0 build/src/main_segment/dm_virus_init.o
 .bss           0x0000000000000000        0x0 build/src/main_segment/dm_virus_init.o
 .reginfo       0x0000000000000000       0x18 build/src/main_segment/dm_virus_init.o
 .mdebug        0x0000000000000000    0x113bc build/src/main_segment/dm_virus_init.o
 .note          0x0000000000000000       0x14 build/src/main_segment/dm_virus_init.o
 .comment       0x0000000000000000       0x37 build/src/main_segment/dm_virus_init.o
 .data          0x0000000000000000        0x0 build/src/main_segment/dm_game_main.o
 .bss           0x0000000000000000        0x0 build/src/main_segment/dm_game_main.o
 .reginfo       0x0000000000000000       0x18 build/src/main_segment/dm_game_main.o
 .mdebug        0x0000000000000000    0x28854 build/src/main_segment/dm_game_main.o
 .note          0x0000000000000000       0x14 build/src/main_segment/dm_game_main.o
 .comment       0x0000000000000000       0x37 build/src/main_segment/dm_game_main.o
 .data          0x0000000000000000        0x0 build/src/main_segment/dm_manual_main.o
 .bss           0x0000000000000000        0x0 build/src/main_segment/dm_manual_main.o
 .reginfo       0x0000000000000000       0x18 build/src/main_segment/dm_manual_main.o
 .mdebug        0x0000000000000000    0x19ec0 build/src/main_segment/dm_manual_main.o
 .note          0x0000000000000000       0x14 build/src/main_segment/dm_manual_main.o
 .comment       0x0000000000000000       0x37 build/src/main_segment/dm_manual_main.o
 .data          0x0000000000000000        0x0 build/src/main_segment/dm_title_main.o
 .bss           0x0000000000000000        0x0 build/src/main_segment/dm_title_main.o
 .reginfo       0x0000000000000000       0x18 build/src/main_segment/dm_title_main.o
 .mdebug        0x0000000000000000    0x13720 build/src/main_segment/dm_title_main.o
 .note          0x0000000000000000       0x14 build/src/main_segment/dm_title_main.o
 .comment       0x0000000000000000       0x37 build/src/main_segment/dm_title_main.o
 .data          0x0000000000000000        0x0 build/src/main_segment/main_story.o
 .bss           0x0000000000000000        0x0 build/src/main_segment/main_story.o
 .reginfo       0x0000000000000000       0x18 build/src/main_segment/main_story.o
 .mdebug        0x0000000000000000    0x1a120 build/src/main_segment/main_story.o
 .note          0x0000000000000000       0x14 build/src/main_segment/main_story.o
 .comment       0x0000000000000000       0x37 build/src/main_segment/main_story.o
 .data          0x0000000000000000        0x0 build/src/main_segment/lws.o
 .bss           0x0000000000000000        0x0 build/src/main_segment/lws.o
 .reginfo       0x0000000000000000       0x18 build/src/main_segment/lws.o
 .mdebug        0x0000000000000000     0xf574 build/src/main_segment/lws.o
 .note          0x0000000000000000       0x14 build/src/main_segment/lws.o
 .comment       0x0000000000000000       0x37 build/src/main_segment/lws.o
 .data          0x0000000000000000        0x0 build/src/main_segment/calc.o
 .bss           0x0000000000000000        0x0 build/src/main_segment/calc.o
 .reginfo       0x0000000000000000       0x18 build/src/main_segment/calc.o
 .mdebug        0x0000000000000000    0x11150 build/src/main_segment/calc.o
 .note          0x0000000000000000       0x14 build/src/main_segment/calc.o
 .comment       0x0000000000000000       0x37 build/src/main_segment/calc.o
 .data          0x0000000000000000        0x0 build/src/main_segment/065080.o
 .bss           0x0000000000000000        0x0 build/src/main_segment/065080.o
 .reginfo       0x0000000000000000       0x18 build/src/main_segment/065080.o
 .mdebug        0x0000000000000000     0xf2bc build/src/main_segment/065080.o
 .note          0x0000000000000000       0x14 build/src/main_segment/065080.o
 .comment       0x0000000000000000       0x37 build/src/main_segment/065080.o
 .data          0x0000000000000000        0x0 build/src/main_segment/066080.o
 .bss           0x0000000000000000        0x0 build/src/main_segment/066080.o
 .reginfo       0x0000000000000000       0x18 build/src/main_segment/066080.o
 .mdebug        0x0000000000000000     0xf64c build/src/main_segment/066080.o
 .note          0x0000000000000000       0x14 build/src/main_segment/066080.o
 .comment       0x0000000000000000       0x37 build/src/main_segment/066080.o
 .data          0x0000000000000000        0x0 build/src/main_segment/replay.o
 .bss           0x0000000000000000        0x0 build/src/main_segment/replay.o
 .reginfo       0x0000000000000000       0x18 build/src/main_segment/replay.o
 .mdebug        0x0000000000000000     0xf6f8 build/src/main_segment/replay.o
 .note          0x0000000000000000       0x14 build/src/main_segment/replay.o
 .comment       0x0000000000000000       0x37 build/src/main_segment/replay.o
 .data          0x0000000000000000        0x0 build/src/main_segment/066580.o
 .bss           0x0000000000000000        0x0 build/src/main_segment/066580.o
 .reginfo       0x0000000000000000       0x18 build/src/main_segment/066580.o
 .mdebug        0x0000000000000000     0xf5d8 build/src/main_segment/066580.o
 .note          0x0000000000000000       0x14 build/src/main_segment/066580.o
 .comment       0x0000000000000000       0x37 build/src/main_segment/066580.o
 .data          0x0000000000000000        0x0 build/asm/cn/main_segment/066840.o
 .bss           0x0000000000000000        0x0 build/asm/cn/main_segment/066840.o
 .reginfo       0x0000000000000000       0x18 build/asm/cn/main_segment/066840.o
 .MIPS.abiflags
                0x0000000000000000       0x18 build/asm/cn/main_segment/066840.o
 .pdr           0x0000000000000000        0x0 build/asm/cn/main_segment/066840.o
 .gnu.attributes
                0x0000000000000000       0x10 build/asm/cn/main_segment/066840.o
 .data          0x0000000000000000        0x0 build/src/main_segment/055C40.o
 .bss           0x0000000000000000        0x0 build/src/main_segment/055C40.o
 .reginfo       0x0000000000000000       0x18 build/src/main_segment/055C40.o
 .mdebug        0x0000000000000000     0xe9b4 build/src/main_segment/055C40.o
 .note          0x0000000000000000       0x14 build/src/main_segment/055C40.o
 .comment       0x0000000000000000       0x37 build/src/main_segment/055C40.o
 .data          0x0000000000000000        0x0 build/asm/cn/main_segment/072880.o
 .bss           0x0000000000000000        0x0 build/asm/cn/main_segment/072880.o
 .reginfo       0x0000000000000000       0x18 build/asm/cn/main_segment/072880.o
 .MIPS.abiflags
                0x0000000000000000       0x18 build/asm/cn/main_segment/072880.o
 .pdr           0x0000000000000000        0x0 build/asm/cn/main_segment/072880.o
 .gnu.attributes
                0x0000000000000000       0x10 build/asm/cn/main_segment/072880.o
 .data          0x0000000000000000        0x0 build/asm/cn/main_segment/075D50.o
 .bss           0x0000000000000000        0x0 build/asm/cn/main_segment/075D50.o
 .reginfo       0x0000000000000000       0x18 build/asm/cn/main_segment/075D50.o
 .MIPS.abiflags
                0x0000000000000000       0x18 build/asm/cn/main_segment/075D50.o
 .pdr           0x0000000000000000        0x0 build/asm/cn/main_segment/075D50.o
 .gnu.attributes
                0x0000000000000000       0x10 build/asm/cn/main_segment/075D50.o
 .data          0x0000000000000000        0x0 build/asm/cn/main_segment/076680.o
 .bss           0x0000000000000000        0x0 build/asm/cn/main_segment/076680.o
 .reginfo       0x0000000000000000       0x18 build/asm/cn/main_segment/076680.o
 .MIPS.abiflags
                0x0000000000000000       0x18 build/asm/cn/main_segment/076680.o
 .pdr           0x0000000000000000        0x0 build/asm/cn/main_segment/076680.o
 .gnu.attributes
                0x0000000000000000       0x10 build/asm/cn/main_segment/076680.o
 .data          0x0000000000000000        0x0 build/asm/cn/main_segment/076B10.o
 .bss           0x0000000000000000        0x0 build/asm/cn/main_segment/076B10.o
 .reginfo       0x0000000000000000       0x18 build/asm/cn/main_segment/076B10.o
 .MIPS.abiflags
                0x0000000000000000       0x18 build/asm/cn/main_segment/076B10.o
 .pdr           0x0000000000000000        0x0 build/asm/cn/main_segment/076B10.o
 .gnu.attributes
                0x0000000000000000       0x10 build/asm/cn/main_segment/076B10.o
 .data          0x0000000000000000        0x0 build/asm/cn/main_segment/076F60.o
 .bss           0x0000000000000000        0x0 build/asm/cn/main_segment/076F60.o
 .reginfo       0x0000000000000000       0x18 build/asm/cn/main_segment/076F60.o
 .MIPS.abiflags
                0x0000000000000000       0x18 build/asm/cn/main_segment/076F60.o
 .pdr           0x0000000000000000        0x0 build/asm/cn/main_segment/076F60.o
 .gnu.attributes
                0x0000000000000000       0x10 build/asm/cn/main_segment/076F60.o
 .data          0x0000000000000000        0x0 build/asm/cn/main_segment/0770A0.o
 .bss           0x0000000000000000        0x0 build/asm/cn/main_segment/0770A0.o
 .reginfo       0x0000000000000000       0x18 build/asm/cn/main_segment/0770A0.o
 .MIPS.abiflags
                0x0000000000000000       0x18 build/asm/cn/main_segment/0770A0.o
 .pdr           0x0000000000000000        0x0 build/asm/cn/main_segment/0770A0.o
 .gnu.attributes
                0x0000000000000000       0x10 build/asm/cn/main_segment/0770A0.o
 .text          0x0000000000000000        0x0 build/asm/cn/data/rsp/rspboot.data.o
 .bss           0x0000000000000000        0x0 build/asm/cn/data/rsp/rspboot.data.o
 .reginfo       0x0000000000000000       0x18 build/asm/cn/data/rsp/rspboot.data.o
 .MIPS.abiflags
                0x0000000000000000       0x18 build/asm/cn/data/rsp/rspboot.data.o
 .pdr           0x0000000000000000        0x0 build/asm/cn/data/rsp/rspboot.data.o
 .gnu.attributes
                0x0000000000000000       0x10 build/asm/cn/data/rsp/rspboot.data.o
 .text          0x0000000000000000        0x0 build/asm/cn/data/rsp/aspMain.data.o
 .bss           0x0000000000000000        0x0 build/asm/cn/data/rsp/aspMain.data.o
 .reginfo       0x0000000000000000       0x18 build/asm/cn/data/rsp/aspMain.data.o
 .MIPS.abiflags
                0x0000000000000000       0x18 build/asm/cn/data/rsp/aspMain.data.o
 .pdr           0x0000000000000000        0x0 build/asm/cn/data/rsp/aspMain.data.o
 .gnu.attributes
                0x0000000000000000       0x10 build/asm/cn/data/rsp/aspMain.data.o
 .text          0x0000000000000000        0x0 build/asm/cn/data/rsp/f3dex2.data.o
 .bss           0x0000000000000000        0x0 build/asm/cn/data/rsp/f3dex2.data.o
 .reginfo       0x0000000000000000       0x18 build/asm/cn/data/rsp/f3dex2.data.o
 .MIPS.abiflags
                0x0000000000000000       0x18 build/asm/cn/data/rsp/f3dex2.data.o
 .pdr           0x0000000000000000        0x0 build/asm/cn/data/rsp/f3dex2.data.o
 .gnu.attributes
                0x0000000000000000       0x10 build/asm/cn/data/rsp/f3dex2.data.o
 .text          0x0000000000000000        0x0 build/asm/cn/data/rsp/s2dex.data.o
 .bss           0x0000000000000000        0x0 build/asm/cn/data/rsp/s2dex.data.o
 .reginfo       0x0000000000000000       0x18 build/asm/cn/data/rsp/s2dex.data.o
 .MIPS.abiflags
                0x0000000000000000       0x18 build/asm/cn/data/rsp/s2dex.data.o
 .pdr           0x0000000000000000        0x0 build/asm/cn/data/rsp/s2dex.data.o
 .gnu.attributes
                0x0000000000000000       0x10 build/asm/cn/data/rsp/s2dex.data.o
 .text          0x0000000000000000        0x0 build/asm/cn/data/main_segment/07AC90.data.o
 .bss           0x0000000000000000        0x0 build/asm/cn/data/main_segment/07AC90.data.o
 .reginfo       0x0000000000000000       0x18 build/asm/cn/data/main_segment/07AC90.data.o
 .MIPS.abiflags
                0x0000000000000000       0x18 build/asm/cn/data/main_segment/07AC90.data.o
 .pdr           0x0000000000000000        0x0 build/asm/cn/data/main_segment/07AC90.data.o
 .gnu.attributes
                0x0000000000000000       0x10 build/asm/cn/data/main_segment/07AC90.data.o
 .text          0x0000000000000000        0x0 build/asm/cn/data/main_segment/07AF30.data.o
 .bss           0x0000000000000000        0x0 build/asm/cn/data/main_segment/07AF30.data.o
 .reginfo       0x0000000000000000       0x18 build/asm/cn/data/main_segment/07AF30.data.o
 .MIPS.abiflags
                0x0000000000000000       0x18 build/asm/cn/data/main_segment/07AF30.data.o
 .pdr           0x0000000000000000        0x0 build/asm/cn/data/main_segment/07AF30.data.o
 .gnu.attributes
                0x0000000000000000       0x10 build/asm/cn/data/main_segment/07AF30.data.o
 .text          0x0000000000000000        0x0 build/asm/cn/data/main_segment/07AF40.data.o
 .bss           0x0000000000000000        0x0 build/asm/cn/data/main_segment/07AF40.data.o
 .reginfo       0x0000000000000000       0x18 build/asm/cn/data/main_segment/07AF40.data.o
 .MIPS.abiflags
                0x0000000000000000       0x18 build/asm/cn/data/main_segment/07AF40.data.o
 .pdr           0x0000000000000000        0x0 build/asm/cn/data/main_segment/07AF40.data.o
 .gnu.attributes
                0x0000000000000000       0x10 build/asm/cn/data/main_segment/07AF40.data.o
 .text          0x0000000000000000        0x0 build/asm/cn/data/main_segment/07AFD0.data.o
 .bss           0x0000000000000000        0x0 build/asm/cn/data/main_segment/07AFD0.data.o
 .reginfo       0x0000000000000000       0x18 build/asm/cn/data/main_segment/07AFD0.data.o
 .MIPS.abiflags
                0x0000000000000000       0x18 build/asm/cn/data/main_segment/07AFD0.data.o
 .pdr           0x0000000000000000        0x0 build/asm/cn/data/main_segment/07AFD0.data.o
 .gnu.attributes
                0x0000000000000000       0x10 build/asm/cn/data/main_segment/07AFD0.data.o
 .text          0x0000000000000000        0x0 build/asm/cn/data/main_segment/game_etc.data.o
 .bss           0x0000000000000000        0x0 build/asm/cn/data/main_segment/game_etc.data.o
 .reginfo       0x0000000000000000       0x18 build/asm/cn/data/main_segment/game_etc.data.o
 .MIPS.abiflags
                0x0000000000000000       0x18 build/asm/cn/data/main_segment/game_etc.data.o
 .pdr           0x0000000000000000        0x0 build/asm/cn/data/main_segment/game_etc.data.o
 .gnu.attributes
                0x0000000000000000       0x10 build/asm/cn/data/main_segment/game_etc.data.o
 .text          0x0000000000000000        0x0 build/asm/cn/data/main_segment/07FD20.data.o
 .bss           0x0000000000000000        0x0 build/asm/cn/data/main_segment/07FD20.data.o
 .reginfo       0x0000000000000000       0x18 build/asm/cn/data/main_segment/07FD20.data.o
 .MIPS.abiflags
                0x0000000000000000       0x18 build/asm/cn/data/main_segment/07FD20.data.o
 .pdr           0x0000000000000000        0x0 build/asm/cn/data/main_segment/07FD20.data.o
 .gnu.attributes
                0x0000000000000000       0x10 build/asm/cn/data/main_segment/07FD20.data.o
 .text          0x0000000000000000        0x0 build/asm/cn/data/main_segment/0A6BE0.data.o
 .bss           0x0000000000000000        0x0 build/asm/cn/data/main_segment/0A6BE0.data.o
 .reginfo       0x0000000000000000       0x18 build/asm/cn/data/main_segment/0A6BE0.data.o
 .MIPS.abiflags
                0x0000000000000000       0x18 build/asm/cn/data/main_segment/0A6BE0.data.o
 .pdr           0x0000000000000000        0x0 build/asm/cn/data/main_segment/0A6BE0.data.o
 .gnu.attributes
                0x0000000000000000       0x10 build/asm/cn/data/main_segment/0A6BE0.data.o
 .text          0x0000000000000000        0x0 build/asm/cn/data/main_segment/072880.rodata.o
 .data          0x0000000000000000        0x0 build/asm/cn/data/main_segment/072880.rodata.o
 .bss           0x0000000000000000        0x0 build/asm/cn/data/main_segment/072880.rodata.o
 .reginfo       0x0000000000000000       0x18 build/asm/cn/data/main_segment/072880.rodata.o
 .MIPS.abiflags
                0x0000000000000000       0x18 build/asm/cn/data/main_segment/072880.rodata.o
 .pdr           0x0000000000000000        0x0 build/asm/cn/data/main_segment/072880.rodata.o
 .gnu.attributes
                0x0000000000000000       0x10 build/asm/cn/data/main_segment/072880.rodata.o
 .text          0x0000000000000000        0x0 build/asm/cn/data/main_segment/075D50.rodata.o
 .data          0x0000000000000000        0x0 build/asm/cn/data/main_segment/075D50.rodata.o
 .bss           0x0000000000000000        0x0 build/asm/cn/data/main_segment/075D50.rodata.o
 .reginfo       0x0000000000000000       0x18 build/asm/cn/data/main_segment/075D50.rodata.o
 .MIPS.abiflags
                0x0000000000000000       0x18 build/asm/cn/data/main_segment/075D50.rodata.o
 .pdr           0x0000000000000000        0x0 build/asm/cn/data/main_segment/075D50.rodata.o
 .gnu.attributes
                0x0000000000000000       0x10 build/asm/cn/data/main_segment/075D50.rodata.o
 .text          0x0000000000000000        0x0 build/asm/cn/data/rsp/aspMain.rodata.o
 .data          0x0000000000000000        0x0 build/asm/cn/data/rsp/aspMain.rodata.o
 .bss           0x0000000000000000        0x0 build/asm/cn/data/rsp/aspMain.rodata.o
 .reginfo       0x0000000000000000       0x18 build/asm/cn/data/rsp/aspMain.rodata.o
 .MIPS.abiflags
                0x0000000000000000       0x18 build/asm/cn/data/rsp/aspMain.rodata.o
 .pdr           0x0000000000000000        0x0 build/asm/cn/data/rsp/aspMain.rodata.o
 .gnu.attributes
                0x0000000000000000       0x10 build/asm/cn/data/rsp/aspMain.rodata.o
 .text          0x0000000000000000        0x0 build/asm/cn/data/rsp/f3dex2.rodata.o
 .data          0x0000000000000000        0x0 build/asm/cn/data/rsp/f3dex2.rodata.o
 .bss           0x0000000000000000        0x0 build/asm/cn/data/rsp/f3dex2.rodata.o
 .reginfo       0x0000000000000000       0x18 build/asm/cn/data/rsp/f3dex2.rodata.o
 .MIPS.abiflags
                0x0000000000000000       0x18 build/asm/cn/data/rsp/f3dex2.rodata.o
 .pdr           0x0000000000000000        0x0 build/asm/cn/data/rsp/f3dex2.rodata.o
 .gnu.attributes
                0x0000000000000000       0x10 build/asm/cn/data/rsp/f3dex2.rodata.o
 .text          0x0000000000000000        0x0 build/asm/cn/data/rsp/s2dex.rodata.o
 .data          0x0000000000000000        0x0 build/asm/cn/data/rsp/s2dex.rodata.o
 .bss           0x0000000000000000        0x0 build/asm/cn/data/rsp/s2dex.rodata.o
 .reginfo       0x0000000000000000       0x18 build/asm/cn/data/rsp/s2dex.rodata.o
 .MIPS.abiflags
                0x0000000000000000       0x18 build/asm/cn/data/rsp/s2dex.rodata.o
 .pdr           0x0000000000000000        0x0 build/asm/cn/data/rsp/s2dex.rodata.o
 .gnu.attributes
                0x0000000000000000       0x10 build/asm/cn/data/rsp/s2dex.rodata.o
 .text          0x0000000000000000        0x0 build/asm/cn/data/main_segment/800CA1C0.bss.o
 .data          0x0000000000000000        0x0 build/asm/cn/data/main_segment/800CA1C0.bss.o
 .reginfo       0x0000000000000000       0x18 build/asm/cn/data/main_segment/800CA1C0.bss.o
 .MIPS.abiflags
                0x0000000000000000       0x18 build/asm/cn/data/main_segment/800CA1C0.bss.o
 .pdr           0x0000000000000000        0x0 build/asm/cn/data/main_segment/800CA1C0.bss.o
 .gnu.attributes
                0x0000000000000000       0x10 build/asm/cn/data/main_segment/800CA1C0.bss.o
 .text          0x0000000000000000        0x0 build/asm/cn/data/main_segment/game_etc.bss.o
 .data          0x0000000000000000        0x0 build/asm/cn/data/main_segment/game_etc.bss.o
 .reginfo       0x0000000000000000       0x18 build/asm/cn/data/main_segment/game_etc.bss.o
 .MIPS.abiflags
                0x0000000000000000       0x18 build/asm/cn/data/main_segment/game_etc.bss.o
 .pdr           0x0000000000000000        0x0 build/asm/cn/data/main_segment/game_etc.bss.o
 .gnu.attributes
                0x0000000000000000       0x10 build/asm/cn/data/main_segment/game_etc.bss.o
 .text          0x0000000000000000        0x0 build/asm/cn/data/main_segment/800FC4E0.bss.o
 .data          0x0000000000000000        0x0 build/asm/cn/data/main_segment/800FC4E0.bss.o
 .reginfo       0x0000000000000000       0x18 build/asm/cn/data/main_segment/800FC4E0.bss.o
 .MIPS.abiflags
                0x0000000000000000       0x18 build/asm/cn/data/main_segment/800FC4E0.bss.o
 .pdr           0x0000000000000000        0x0 build/asm/cn/data/main_segment/800FC4E0.bss.o
 .gnu.attributes
                0x0000000000000000       0x10 build/asm/cn/data/main_segment/800FC4E0.bss.o
 .reginfo       0x0000000000000000       0x18 build/src/buffers/buffer1.o
 .mdebug        0x0000000000000000     0x7158 build/src/buffers/buffer1.o
 .note          0x0000000000000000       0x14 build/src/buffers/buffer1.o
 .comment       0x0000000000000000       0x37 build/src/buffers/buffer1.o
 .reginfo       0x0000000000000000       0x18 build/src/buffers/buffer2.o
 .mdebug        0x0000000000000000     0x7154 build/src/buffers/buffer2.o
 .note          0x0000000000000000       0x14 build/src/buffers/buffer2.o
 .comment       0x0000000000000000       0x37 build/src/buffers/buffer2.o
 .reginfo       0x0000000000000000       0x18 build/src/buffers/framebuffer.o
 .mdebug        0x0000000000000000     0x7140 build/src/buffers/framebuffer.o
 .note          0x0000000000000000       0x14 build/src/buffers/framebuffer.o
 .comment       0x0000000000000000       0x37 build/src/buffers/framebuffer.o

Memory Configuration

Name             Origin             Length             Attributes
*default*        0x0000000000000000 0xffffffffffffffff

Linker script and memory map

LOAD build/src/rom_header/rom_header.o
LOAD build/bin/cn/ipl3.o
LOAD build/src/entry/entry.o
LOAD build/src/boot/boot_main.o
LOAD build/src/boot/dmadata.o
LOAD build/src/gzip/inflate.o
LOAD build/src/gzip/unzip.o
LOAD build/src/boot/util.o
LOAD build/src/boot/rom_offsets.o
LOAD build/src/gateway/003630.o
LOAD build/asm/cn/libultra/aigetlen.o
LOAD build/asm/cn/libultra/aigetstat.o
LOAD build/asm/cn/libultra/aisetfreq.o
LOAD build/asm/cn/libultra/aisetnextbuf.o
LOAD build/asm/cn/libultra/env.o
LOAD build/asm/cn/libultra/sl.o
LOAD build/asm/cn/libultra/heapinit.o
LOAD build/asm/cn/libultra/synthesizer.o
LOAD build/asm/cn/libultra/syndelete.o
LOAD build/asm/cn/libultra/synaddplayer.o
LOAD build/asm/cn/libultra/synallocvoice.o
LOAD build/asm/cn/libultra/synstopvoice.o
LOAD build/asm/cn/libultra/synstartvoice.o
LOAD build/asm/cn/libultra/synsetpitch.o
LOAD build/asm/cn/libultra/synsetvol.o
LOAD build/asm/cn/libultra/synsetfxmix.o
LOAD build/asm/cn/libultra/synsetpan.o
LOAD build/asm/cn/libultra/synallocfx.o
LOAD build/asm/cn/libultra/invaldcache.o
LOAD build/asm/cn/libultra/writebackdcacheall.o
LOAD build/asm/cn/libultra/contquery.o
LOAD build/asm/cn/libultra/contreaddata.o
LOAD build/asm/cn/libultra/controller.o
LOAD build/asm/cn/libultra/contsetch.o
LOAD build/asm/cn/libultra/os/virtualtophysical.o
LOAD build/asm/cn/libultra/sqrtf.o
LOAD build/asm/cn/libultra/cosf.o
LOAD build/asm/cn/libultra/ortho.o
LOAD build/asm/cn/libultra/perspective.o
LOAD build/asm/cn/libultra/rotateRPY.o
LOAD build/asm/cn/libultra/sinf.o
LOAD build/asm/cn/libultra/sins.o
LOAD build/asm/cn/libultra/bcmp.o
LOAD build/asm/cn/libultra/bcopy.o
LOAD build/asm/cn/libultra/bzero.o
LOAD build/asm/cn/libultra/string.o
LOAD build/asm/cn/libultra/os/createmesgqueue.o
LOAD build/asm/cn/libultra/os/recvmesg.o
LOAD build/asm/cn/libultra/sptask.o
LOAD build/asm/cn/libultra/sptaskyield.o
LOAD build/asm/cn/libultra/sptaskyielded.o
LOAD build/asm/cn/libultra/sched.o
LOAD build/asm/cn/libultra/sirawdma.o
LOAD build/asm/cn/libultra/io/siacs.o
LOAD build/asm/cn/libultra/os/createthread.o
LOAD build/asm/cn/libultra/os/startthread.o
LOAD build/asm/cn/libultra/os/stopthread.o
LOAD build/asm/cn/libultra/os/thread.o
LOAD build/asm/cn/libultra/os/gettime.o
LOAD build/asm/cn/libultra/os/settime.o
LOAD build/asm/cn/libultra/os/settimer.o
LOAD build/asm/cn/libultra/os/timerintr.o
LOAD build/asm/cn/libultra/probetlb.o
LOAD build/asm/cn/libultra/io/vigetcurrframebuf.o
LOAD build/asm/cn/libultra/io/vigetnextframebuf.o
LOAD build/asm/cn/libultra/io/vimgr.o
LOAD build/asm/cn/libultra/visetevent.o
LOAD build/asm/cn/libultra/visetmode.o
LOAD build/asm/cn/libultra/visetspecial.o
LOAD build/asm/cn/libultra/visetyscale.o
LOAD build/asm/cn/libultra/viswapbuf.o
LOAD build/asm/cn/libultra/viswapcontext.o
LOAD build/asm/cn/libultra/viblack.o
LOAD build/asm/cn/libultra/mtxident.o
LOAD build/asm/cn/libultra/mtxidentf.o
LOAD build/asm/cn/libultra/mtxf2l.o
LOAD build/asm/cn/libultra/mtxl2f.o
LOAD build/asm/cn/libultra/mtxcatf.o
LOAD build/asm/cn/libultra/scale.o
LOAD build/asm/cn/libultra/scalef.o
LOAD build/asm/cn/libultra/translate.o
LOAD build/asm/cn/libultra/translatef.o
LOAD build/asm/cn/libultra/conteepprobe.o
LOAD build/asm/cn/libultra/conteeplongwrite.o
LOAD build/asm/cn/libultra/conteeplongread.o
LOAD build/asm/cn/libultra/os/exceptasm.o
LOAD build/asm/cn/libultra/interrupt.o
LOAD build/asm/cn/libultra/setintmask.o
LOAD build/asm/cn/libultra/io/pimgr.o
LOAD build/asm/cn/libultra/epirawdma.o
LOAD build/asm/cn/libultra/io/epiwrite.o
LOAD build/asm/cn/libultra/epidma.o
LOAD build/asm/cn/libultra/epilinkhandle.o
LOAD build/asm/cn/libultra/cartrominit.o
LOAD build/asm/cn/libultra/devmgr.o
LOAD build/asm/cn/libultra/io/piacs.o
LOAD build/asm/cn/libultra/skapi.o
LOAD build/asm/cn/libultra/common.o
LOAD build/asm/cn/libultra/nops_00B250.o
LOAD build/asm/cn/libultra/os/initialize.o
LOAD build/asm/cn/libultra/ai.o
LOAD build/asm/cn/libultra/drvrNew.o
LOAD build/asm/cn/libultra/load.o
LOAD build/asm/cn/libultra/auxbus.o
LOAD build/asm/cn/libultra/filter.o
LOAD build/asm/cn/libultra/mainbus.o
LOAD build/asm/cn/libultra/resample.o
LOAD build/asm/cn/libultra/reverb.o
LOAD build/asm/cn/libultra/save.o
LOAD build/asm/cn/libultra/heapalloc.o
LOAD build/asm/cn/libultra/copy.o
LOAD build/asm/cn/libultra/invalicache.o
LOAD build/asm/cn/libultra/writebackdcache.o
LOAD build/asm/cn/libultra/os/jammesg.o
LOAD build/asm/cn/libultra/os/sendmesg.o
LOAD build/asm/cn/libultra/os/seteventmesg.o
LOAD build/asm/cn/libultra/dpsetnextbuf.o
LOAD build/asm/cn/libultra/getcause.o
LOAD build/asm/cn/libultra/getsr.o
LOAD build/asm/cn/libultra/setfpccsr.o
LOAD build/asm/cn/libultra/setsr.o
LOAD build/asm/cn/libultra/setwatchlo.o
LOAD build/asm/cn/libultra/reg/_getcount.o
LOAD build/asm/cn/libultra/reg/_setcompare.o
LOAD build/asm/cn/libultra/sp.o
LOAD build/asm/cn/libultra/spgetstat.o
LOAD build/asm/cn/libultra/spsetstat.o
LOAD build/asm/cn/libultra/spsetpc.o
LOAD build/asm/cn/libultra/sprawdma.o
LOAD build/asm/cn/libultra/io/sirawread.o
LOAD build/asm/cn/libultra/io/sirawwrite.o
LOAD build/asm/cn/libultra/os/destroythread.o
LOAD build/asm/cn/libultra/os/getthreadid.o
LOAD build/asm/cn/libultra/os/setthreadpri.o
LOAD build/asm/cn/libultra/os/yieldthread.o
LOAD build/asm/cn/libultra/maptlbrdb.o
LOAD build/asm/cn/libultra/unmaptlball.o
LOAD build/asm/cn/libultra/vi.o
LOAD build/asm/cn/libultra/io/vigetcurrcontext.o
LOAD build/asm/cn/libultra/conteepread.o
LOAD build/asm/cn/libultra/conteepwrite.o
LOAD build/asm/cn/libultra/os/setglobalintmask.o
LOAD build/asm/cn/libultra/os/resetglobalintmask.o
LOAD build/asm/cn/libultra/pirawdma.o
LOAD build/asm/cn/libultra/pigetcmdq.o
LOAD build/asm/cn/libultra/epirawread.o
LOAD build/asm/cn/libultra/epirawwrite.o
LOAD build/asm/cn/libultra/dp.o
LOAD build/asm/cn/libultra/si.o
LOAD build/src/libegcs/libgcc2.o
LOAD build/asm/cn/libegcs/00F6A0.o
LOAD build/asm/cn/libegcs/00F6E0.o
LOAD build/asm/cn/libegcs/00F700.o
LOAD build/asm/cn/libegcs/00F760.o
LOAD build/asm/cn/libegcs/00F7A0.o
LOAD build/asm/cn/data/boot/00F850.data.o
LOAD build/asm/cn/data/boot/010100.data.o
LOAD build/asm/cn/data/boot/0120E0.rodata.o
LOAD build/asm/cn/data/boot/012180.rodata.o
LOAD build/asm/cn/data/boot/0121E0.rodata.o
LOAD build/asm/cn/data/boot/012240.rodata.o
LOAD build/asm/cn/data/boot/012260.rodata.o
LOAD build/asm/cn/data/boot/0122B0.rodata.o
LOAD build/asm/cn/data/boot/0123D0.rodata.o
LOAD build/asm/cn/data/boot/800118E0.bss.o
LOAD build/asm/cn/data/boot/boot_main.bss.o
LOAD build/asm/cn/data/boot/80015CB0.bss.o
LOAD build/asm/cn/data/gateway/003630.bss.o
LOAD build/asm/cn/data/boot/80019D50.bss.o
LOAD build/src/dma_table/dma_table.o
LOAD build/src/main_segment/main.o
LOAD build/src/main_segment/000280.o
LOAD build/src/main_segment/joy.o
LOAD build/src/main_segment/sound.o
LOAD build/src/main_segment/graphic.o
LOAD build/src/main_segment/graphics/static.o
LOAD build/src/main_segment/audio/003520.o
LOAD build/src/main_segment/main1x.o
LOAD build/src/main_segment/vr_init.o
LOAD build/src/main_segment/aiset.o
LOAD build/src/main_segment/record.o
LOAD build/src/main_segment/020D10_cn.o
LOAD build/src/main_segment/game_etc.o
LOAD build/src/main_segment/screen_print/printer.o
LOAD build/src/main_segment/screen_print/debug_print.o
LOAD build/src/main_segment/debug_menu.o
LOAD build/src/main_segment/028820.o
LOAD build/src/main_segment/tex_func.o
LOAD build/src/main_segment/main_menu.o
LOAD build/src/main_segment/font.o
LOAD build/src/main_segment/msgwnd.o
LOAD build/src/main_segment/char_anime.o
LOAD build/src/main_segment/dm_virus_init.o
LOAD build/src/main_segment/dm_game_main.o
LOAD build/src/main_segment/dm_manual_main.o
LOAD build/src/main_segment/dm_title_main.o
LOAD build/src/main_segment/main_story.o
LOAD build/src/main_segment/lws.o
LOAD build/src/main_segment/calc.o
LOAD build/src/main_segment/065080.o
LOAD build/src/main_segment/066080.o
LOAD build/src/main_segment/replay.o
LOAD build/src/main_segment/066580.o
LOAD build/asm/cn/main_segment/066840.o
LOAD build/src/main_segment/055C40.o
LOAD build/asm/cn/main_segment/072880.o
LOAD build/asm/cn/main_segment/075D50.o
LOAD build/asm/cn/main_segment/076680.o
LOAD build/asm/cn/main_segment/076B10.o
LOAD build/asm/cn/main_segment/076F60.o
LOAD build/asm/cn/main_segment/0770A0.o
LOAD build/asm/cn/data/rsp/rspboot.data.o
LOAD build/asm/cn/data/rsp/aspMain.data.o
LOAD build/asm/cn/data/rsp/f3dex2.data.o
LOAD build/asm/cn/data/rsp/s2dex.data.o
LOAD build/asm/cn/data/main_segment/07AC90.data.o
LOAD build/asm/cn/data/main_segment/07AF30.data.o
LOAD build/asm/cn/data/main_segment/07AF40.data.o
LOAD build/asm/cn/data/main_segment/07AFD0.data.o
LOAD build/asm/cn/data/main_segment/game_etc.data.o
LOAD build/asm/cn/data/main_segment/07FD20.data.o
LOAD build/asm/cn/data/main_segment/0A6BE0.data.o
LOAD build/asm/cn/data/main_segment/072880.rodata.o
LOAD build/asm/cn/data/main_segment/075D50.rodata.o
LOAD build/asm/cn/data/rsp/aspMain.rodata.o
LOAD build/asm/cn/data/rsp/f3dex2.rodata.o
LOAD build/asm/cn/data/rsp/s2dex.rodata.o
LOAD build/asm/cn/data/main_segment/800CA1C0.bss.o
LOAD build/asm/cn/data/main_segment/game_etc.bss.o
LOAD build/asm/cn/data/main_segment/800FC4E0.bss.o
LOAD build/src/buffers/buffer1.o
LOAD build/src/buffers/buffer2.o
LOAD build/src/buffers/framebuffer.o
LOAD build/bin/cn/n64_wave_tables.o
LOAD build/bin/cn/n64_ptr_tables_v2.o
LOAD build/bin/cn/segment_172130.o
LOAD build/bin/cn/segment_172D60.o
LOAD build/bin/cn/segment_1750C0.o
LOAD build/bin/cn/segment_177420.o
LOAD build/bin/cn/segment_179620.o
LOAD build/bin/cn/segment_17B790.o
LOAD build/bin/cn/segment_17C1E0.o
LOAD build/bin/cn/segment_17D130.o
LOAD build/bin/cn/segment_17E090.o
LOAD build/bin/cn/segment_181840.o
LOAD build/bin/cn/segment_184FF0.o
LOAD build/bin/cn/segment_186FF0.o
LOAD build/bin/cn/segment_188FF0.o
LOAD build/bin/cn/segment_189D40.o
LOAD build/bin/cn/segment_18CB40.o
LOAD build/bin/cn/segment_18DB90.o
LOAD build/bin/cn/segment_18F160.o
LOAD build/bin/cn/segment_1906E0.o
LOAD build/bin/cn/segment_1911D0.o
LOAD build/bin/cn/segment_1936C0.o
LOAD build/bin/cn/segment_1937F0.o
LOAD build/bin/cn/segment_194070.o
LOAD build/bin/cn/segment_194150.o
LOAD build/bin/cn/segment_194910.o
LOAD build/bin/cn/segment_195290.o
LOAD build/bin/cn/segment_game_etc.o
LOAD build/bin/cn/segment_menu_bg.o
LOAD build/bin/cn/segment_menu_bg2.o
LOAD build/bin/cn/segment_coffee01.o
LOAD build/bin/cn/segment_title_all.o
LOAD build/bin/cn/segment_title_bmp.o
LOAD build/bin/cn/segment_waku.o
LOAD build/bin/cn/segment_waku2.o
LOAD build/bin/cn/segment_story_bg01.o
LOAD build/bin/cn/segment_story_bg02.o
LOAD build/bin/cn/segment_story_bg03.o
LOAD build/bin/cn/segment_story_bg04.o
LOAD build/bin/cn/segment_story_bg05.o
LOAD build/bin/cn/segment_story_bg07.o
LOAD build/bin/cn/segment_story_bg08.o
LOAD build/bin/cn/segment_story_bg09.o
LOAD build/bin/cn/segment_story_bg10.o
LOAD build/bin/cn/segment_story_bg11.o
LOAD build/bin/cn/segment_menu_char.o
LOAD build/bin/cn/segment_menu_common.o
LOAD build/bin/cn/segment_menu_level.o
LOAD build/bin/cn/segment_menu_main.o
LOAD build/bin/cn/segment_menu_name.o
LOAD build/bin/cn/segment_menu_p2.o
LOAD build/bin/cn/segment_menu_p4.o
LOAD build/bin/cn/segment_menu_rank.o
LOAD build/bin/cn/segment_menu_setup.o
LOAD build/bin/cn/segment_menu_story.o
LOAD build/bin/cn/segment_menu_cont.o
LOAD build/bin/cn/segment_menu_kasa.o
LOAD build/bin/cn/segment_game_al.o
LOAD build/bin/cn/segment_game_p1.o
LOAD build/bin/cn/segment_game_p2.o
LOAD build/bin/cn/segment_game_p4.o
LOAD build/bin/cn/segment_game_ls.o
LOAD build/bin/cn/segment_game_item.o
LOAD build/bin/cn/segment_anime_a.o
LOAD build/bin/cn/segment_anime_b.o
LOAD build/bin/cn/segment_anime_c.o
LOAD build/bin/cn/segment_anime_d.o
LOAD build/bin/cn/segment_anime_e.o
LOAD build/bin/cn/segment_anime_f.o
LOAD build/bin/cn/segment_anime_g.o
LOAD build/bin/cn/segment_anime_h.o
LOAD build/bin/cn/segment_anime_i.o
LOAD build/bin/cn/segment_anime_j.o
LOAD build/bin/cn/segment_anime_k.o
LOAD build/bin/cn/segment_anime_l.o
LOAD build/bin/cn/segment_anime_m.o
LOAD build/bin/cn/segment_anime_n.o
LOAD build/bin/cn/segment_anime_o.o
LOAD build/bin/cn/segment_anime_mario.o
LOAD build/bin/cn/segment_anime_virus_b.o
LOAD build/bin/cn/segment_anime_virus_r.o
LOAD build/bin/cn/segment_anime_virus_y.o
LOAD build/bin/cn/segment_anime_smog.o
LOAD build/bin/cn/segment_tutorial_data.o
LOAD build/bin/cn/65CF00.o
                0x000000000065e150                __romPos = 0x0
                0x0000000000000000                _gp = 0x0
                0x0000000000000000                header_ROM_START = __romPos
                0x0000000080000000                header_VRAM = ADDR (.header)

.header         0x0000000080000000       0x40 load address 0x0000000000000000
                0x0000000080000000                header_TEXT_START = .
 build/src/rom_header/rom_header.o(.text)
 .text          0x0000000080000000        0x0 build/src/rom_header/rom_header.o
                0x0000000080000000                header_TEXT_END = .
                0x0000000000000000                header_TEXT_SIZE = ABSOLUTE ((header_TEXT_END - header_TEXT_START))
                0x0000000080000000                header_DATA_START = .
                0x0000000080000000                rom_header_rom_header = .
 build/src/rom_header/rom_header.o(.data)
 .data          0x0000000080000000       0x40 build/src/rom_header/rom_header.o
                0x0000000080000000                gRomHeader
                0x0000000080000040                header_DATA_END = .
                0x0000000000000040                header_DATA_SIZE = ABSOLUTE ((header_DATA_END - header_DATA_START))
                0x0000000080000040                header_RODATA_START = .
 build/src/rom_header/rom_header.o(.rodata)
                0x0000000080000040                header_RODATA_END = .
                0x0000000000000000                header_RODATA_SIZE = ABSOLUTE ((header_RODATA_END - header_RODATA_START))
                0x0000000080000040                header_bss_VRAM = ADDR (.header_bss)

.header_bss     0x0000000080000040        0x0 load address 0x0000000000000040
                0x0000000080000040                header_BSS_START = .
 build/src/rom_header/rom_header.o(.bss)
 .bss           0x0000000080000040        0x0 build/src/rom_header/rom_header.o
                0x0000000080000040                header_BSS_END = .
                0x0000000000000000                header_BSS_SIZE = ABSOLUTE ((header_BSS_END - header_BSS_START))
                0x000000000065e150                __romPos = (__romPos + SIZEOF (.header))
                0x000000000065e150                __romPos = ALIGN (__romPos, 0x10)
                0x0000000000000040                header_ROM_END = __romPos
                0x0000000080000040                header_VRAM_END = .
                0x0000000000000040                ipl3_ROM_START = __romPos
                0x0000000080000040                ipl3_VRAM = ADDR (.ipl3)

.ipl3           0x0000000080000040      0xfc0 load address 0x0000000000000040
                0x0000000080000040                ipl3_DATA_START = .
                0x0000000080000040                ipl3 = .
 build/bin/cn/ipl3.o(.data)
 .data          0x0000000080000040      0xfc0 build/bin/cn/ipl3.o
                0x0000000080000040                _binary_bin_cn_ipl3_bin_start
                0x0000000080001000                _binary_bin_cn_ipl3_bin_end
                0x0000000080001000                ipl3_DATA_END = .
                0x0000000000000fc0                ipl3_DATA_SIZE = ABSOLUTE ((ipl3_DATA_END - ipl3_DATA_START))
                0x000000000065e150                __romPos = (__romPos + SIZEOF (.ipl3))
                0x0000000000001000                ipl3_ROM_END = __romPos
                0x0000000080001000                ipl3_VRAM_END = .
                0x0000000000001000                entry_ROM_START = __romPos
                0x0000000080000400                entry_VRAM = ADDR (.entry)

.entry          0x0000000080000400       0x60 load address 0x0000000000001000
                0x0000000080000400                entry_TEXT_START = .
 build/src/entry/entry.o(.text)
 .text          0x0000000080000400       0x60 build/src/entry/entry.o
                0x0000000080000400                entrypoint
                0x0000000080000460                entry_TEXT_END = .
                0x0000000000000060                entry_TEXT_SIZE = ABSOLUTE ((entry_TEXT_END - entry_TEXT_START))
                0x0000000080000460                entry_DATA_START = .
                0x0000000080000460                ______src_entry_entry = .
 build/src/entry/entry.o(.data)
 .data          0x0000000080000460        0x0 build/src/entry/entry.o
                0x0000000080000460                entry_DATA_END = .
                0x0000000000000000                entry_DATA_SIZE = ABSOLUTE ((entry_DATA_END - entry_DATA_START))
                0x0000000080000460                entry_RODATA_START = .
 build/src/entry/entry.o(.rodata)
                0x0000000080000460                entry_RODATA_END = .
                0x0000000000000000                entry_RODATA_SIZE = ABSOLUTE ((entry_RODATA_END - entry_RODATA_START))
                0x0000000080000460                entry_bss_VRAM = ADDR (.entry_bss)

.entry_bss      0x0000000080000460        0x0 load address 0x0000000000001060
                0x0000000080000460                entry_BSS_START = .
 build/src/entry/entry.o(.bss)
 .bss           0x0000000080000460        0x0 build/src/entry/entry.o
                0x0000000080000460                entry_BSS_END = .
                0x0000000000000000                entry_BSS_SIZE = ABSOLUTE ((entry_BSS_END - entry_BSS_START))
                0x000000000065e150                __romPos = (__romPos + SIZEOF (.entry))
                0x000000000065e150                __romPos = ALIGN (__romPos, 0x10)
                0x0000000000001060                entry_ROM_END = __romPos
                0x0000000080000460                entry_VRAM_END = .
                0x0000000000001060                boot_ROM_START = __romPos
                0x0000000080000460                boot_VRAM = ADDR (.boot)

.boot           0x0000000080000460    0x11480 load address 0x0000000000001060
                0x0000000080000460                boot_TEXT_START = .
 build/src/boot/boot_main.o(.text)
 .text          0x0000000080000460      0x230 build/src/boot/boot_main.o
                0x0000000080000460                Idle_Nop
                0x0000000080000468                Main_StopThread
                0x0000000080000498                func_80000488
                0x00000000800004a8                bootproc
                0x000000008000052c                Main_ThreadEntry
                0x00000000800005e0                Idle_ThreadEntry
 build/src/boot/dmadata.o(.text)
 .text          0x0000000080000690      0x190 build/src/boot/dmadata.o
                0x0000000080000690                DmaData_80000690_cn
                0x00000000800006cc                DmaData_RomToRam
 build/src/gzip/inflate.o(.text)
 .text          0x0000000080000820     0x1c60 build/src/gzip/inflate.o
                0x0000000080000820                func_80000820_cn.NON_MATCHING
                0x0000000080000820                func_80000820_cn
                0x0000000080000868                func_80000868_cn.NON_MATCHING
                0x0000000080000868                func_80000868_cn
                0x0000000080000888                func_80000888_cn.NON_MATCHING
                0x0000000080000888                func_80000888_cn
                0x0000000080000e7c                func_80000E7C_cn.NON_MATCHING
                0x0000000080000e7c                func_80000E7C_cn
                0x0000000080000ec8                func_80000EC8_cn.NON_MATCHING
                0x0000000080000ec8                func_80000EC8_cn
                0x00000000800014c4                func_800014C4_cn.NON_MATCHING
                0x00000000800014c4                func_800014C4_cn
                0x0000000080001760                func_80001760_cn.NON_MATCHING
                0x0000000080001760                func_80001760_cn
                0x000000008000194c                func_8000194C_cn
                0x000000008000194c                func_8000194C_cn.NON_MATCHING
                0x00000000800021c0                inflate_block
                0x00000000800021c0                inflate_block.NON_MATCHING
                0x0000000080002394                inflate
 build/src/gzip/unzip.o(.text)
 .text          0x0000000080002480      0x4a0 build/src/gzip/unzip.o
                0x0000000080002480                expand_gzip
                0x00000000800024e4                auRomDataRead
                0x0000000080002578                func_80002064
                0x00000000800025b8                unzip
                0x00000000800026a8                updcrc
                0x0000000080002708                clear_bufs.NON_MATCHING
                0x0000000080002708                clear_bufs
                0x0000000080002738                fill_inbuf
                0x0000000080002738                fill_inbuf.NON_MATCHING
                0x0000000080002820                func_800022A8
                0x0000000080002888                flush_window.NON_MATCHING
                0x0000000080002888                flush_window
 build/src/boot/util.o(.text)
 .text          0x0000000080002920      0x110 build/src/boot/util.o
                0x0000000080002920                DecompressRomToRam
                0x0000000080002964                WrapI
                0x00000000800029a4                WrapF
 build/src/boot/rom_offsets.o(.text)
 .text          0x0000000080002a30        0x0 build/src/boot/rom_offsets.o
 build/src/gateway/003630.o(.text)
 .text          0x0000000080002a30      0x110 build/src/gateway/003630.o
                0x0000000080002a30                Gateway_GetHandle
                0x0000000080002ae8                Gateway_80002AE8_cn
 build/asm/cn/libultra/aigetlen.o(.text)
 .text          0x0000000080002b40       0x10 build/asm/cn/libultra/aigetlen.o
                0x0000000080002b40                osAiGetLength
 build/asm/cn/libultra/aigetstat.o(.text)
 .text          0x0000000080002b50       0x10 build/asm/cn/libultra/aigetstat.o
                0x0000000080002b50                osAiGetStatus
 build/asm/cn/libultra/aisetfreq.o(.text)
 .text          0x0000000080002b60      0x100 build/asm/cn/libultra/aisetfreq.o
                0x0000000080002b60                osAiSetFrequency
 build/asm/cn/libultra/aisetnextbuf.o(.text)
 .text          0x0000000080002c60       0xa0 build/asm/cn/libultra/aisetnextbuf.o
                0x0000000080002c60                osAiSetNextBuffer
 build/asm/cn/libultra/env.o(.text)
 .text          0x0000000080002d00      0xb70 build/asm/cn/libultra/env.o
                0x0000000080002d00                alEnvmixerPull
                0x0000000080002d8c                .L80002D8C
                0x0000000080002eb0                .L80002EB0
                0x0000000080003058                .L80003058
                0x000000008000309c                .L8000309C
                0x00000000800030d0                .L800030D0
                0x00000000800030f0                .L800030F0
                0x00000000800031cc                alEnvmixerParam
                0x0000000080003294                _pullSubFrame
                0x0000000080003558                _frexpf
                0x000000008000360c                _ldexpf
                0x000000008000362c                _getRate
                0x00000000800037ec                _getVol
 build/asm/cn/libultra/sl.o(.text)
 .text          0x0000000080003870       0xb0 build/asm/cn/libultra/sl.o
                0x0000000080003870                alInit
                0x000000008000389c                alClose
                0x00000000800038cc                alLink
                0x00000000800038ec                alUnlink
 build/asm/cn/libultra/heapinit.o(.text)
 .text          0x0000000080003920       0x40 build/asm/cn/libultra/heapinit.o
                0x0000000080003920                alHeapInit
 build/asm/cn/libultra/synthesizer.o(.text)
 .text          0x0000000080003960      0x670 build/asm/cn/libultra/synthesizer.o
                0x0000000080003960                alSynNew
                0x0000000080003c84                alAudioFrame
                0x0000000080003e30                __allocParam
                0x0000000080003e5c                __freeParam
                0x0000000080003e74                _collectPVoices
                0x0000000080003ec4                _freePVoice
                0x0000000080003f04                _timeToSamplesNoRound
                0x0000000080003f4c                _timeToSamples
                0x0000000080003f70                __nextSampleTime
 build/asm/cn/libultra/syndelete.o(.text)
 .text          0x0000000080003fd0       0x10 build/asm/cn/libultra/syndelete.o
                0x0000000080003fd0                alSynDelete
 build/asm/cn/libultra/synaddplayer.o(.text)
 .text          0x0000000080003fe0       0x50 build/asm/cn/libultra/synaddplayer.o
                0x0000000080003fe0                alSynAddPlayer
 build/asm/cn/libultra/synallocvoice.o(.text)
 .text          0x0000000080004030      0x1f0 build/asm/cn/libultra/synallocvoice.o
                0x0000000080004030                alSynAllocVoice
                0x0000000080004168                _allocatePVoice
 build/asm/cn/libultra/synstopvoice.o(.text)
 .text          0x0000000080004220       0x80 build/asm/cn/libultra/synstopvoice.o
                0x0000000080004220                alSynStopVoice
 build/asm/cn/libultra/synstartvoice.o(.text)
 .text          0x00000000800042a0       0xa0 build/asm/cn/libultra/synstartvoice.o
                0x00000000800042a0                alSynStartVoice
 build/asm/cn/libultra/synsetpitch.o(.text)
 .text          0x0000000080004340       0x90 build/asm/cn/libultra/synsetpitch.o
                0x0000000080004340                alSynSetPitch
 build/asm/cn/libultra/synsetvol.o(.text)
 .text          0x00000000800043d0       0xc0 build/asm/cn/libultra/synsetvol.o
                0x00000000800043d0                alSynSetVol
 build/asm/cn/libultra/synsetfxmix.o(.text)
 .text          0x0000000080004490       0xa0 build/asm/cn/libultra/synsetfxmix.o
                0x0000000080004490                alSynSetFXMix
 build/asm/cn/libultra/synsetpan.o(.text)
 .text          0x0000000080004530       0x90 build/asm/cn/libultra/synsetpan.o
                0x0000000080004530                alSynSetPan
 build/asm/cn/libultra/synallocfx.o(.text)
 .text          0x00000000800045c0       0xa0 build/asm/cn/libultra/synallocfx.o
                0x00000000800045c0                alSynAllocFX
 build/asm/cn/libultra/invaldcache.o(.text)
 .text          0x0000000080004660       0xb0 build/asm/cn/libultra/invaldcache.o
                0x0000000080004660                osInvalDCache
 build/asm/cn/libultra/writebackdcacheall.o(.text)
 .text          0x0000000080004710       0x30 build/asm/cn/libultra/writebackdcacheall.o
                0x0000000080004710                osWritebackDCacheAll
 build/asm/cn/libultra/contquery.o(.text)
 .text          0x0000000080004740       0xb0 build/asm/cn/libultra/contquery.o
                0x0000000080004740                osContStartQuery
                0x00000000800047c4                osContGetQuery
 build/asm/cn/libultra/contreaddata.o(.text)
 .text          0x00000000800047f0      0x280 build/asm/cn/libultra/contreaddata.o
                0x00000000800047f0                osContStartReadData
                0x0000000080004878                osContGetReadData
                0x00000000800049b4                __osPackReadData
 build/asm/cn/libultra/controller.o(.text)
 .text          0x0000000080004a70      0x3d0 build/asm/cn/libultra/controller.o
                0x0000000080004a70                osContInit
                0x0000000080004c14                __osContGetInitData
                0x0000000080004d80                __osPackRequestData
 build/asm/cn/libultra/contsetch.o(.text)
 .text          0x0000000080004e40       0x60 build/asm/cn/libultra/contsetch.o
                0x0000000080004e40                osContSetCh
 build/asm/cn/libultra/os/virtualtophysical.o(.text)
 .text          0x0000000080004ea0       0xd0 build/asm/cn/libultra/os/virtualtophysical.o
                0x0000000080004ea0                osVirtualToPhysical
 build/asm/cn/libultra/sqrtf.o(.text)
 .text          0x0000000080004f70       0x10 build/asm/cn/libultra/sqrtf.o
                0x0000000080004f70                sqrtf
 build/asm/cn/libultra/cosf.o(.text)
 .text          0x0000000080004f80      0x130 build/asm/cn/libultra/cosf.o
                0x0000000080004f80                cosf
 build/asm/cn/libultra/ortho.o(.text)
 .text          0x00000000800050b0      0x170 build/asm/cn/libultra/ortho.o
                0x00000000800050b0                guOrthoF
                0x00000000800051cc                guOrtho
 build/asm/cn/libultra/perspective.o(.text)
 .text          0x0000000080005220      0x200 build/asm/cn/libultra/perspective.o
                0x0000000080005220                guPerspectiveF
                0x00000000800053c8                guPerspective
 build/asm/cn/libultra/rotateRPY.o(.text)
 .text          0x0000000080005420      0x180 build/asm/cn/libultra/rotateRPY.o
                0x0000000080005420                guRotateRPYF
                0x0000000080005560                guRotateRPY
 build/asm/cn/libultra/sinf.o(.text)
 .text          0x00000000800055a0      0x180 build/asm/cn/libultra/sinf.o
                0x00000000800055a0                sinf
 build/asm/cn/libultra/sins.o(.text)
 .text          0x0000000080005720       0x50 build/asm/cn/libultra/sins.o
                0x0000000080005720                sins
 build/asm/cn/libultra/bcmp.o(.text)
 .text          0x0000000080005770      0x110 build/asm/cn/libultra/bcmp.o
                0x0000000080005770                bcmp
 build/asm/cn/libultra/bcopy.o(.text)
 .text          0x0000000080005880      0x320 build/asm/cn/libultra/bcopy.o
                0x0000000080005880                bcopy
 build/asm/cn/libultra/bzero.o(.text)
 .text          0x0000000080005ba0       0xa0 build/asm/cn/libultra/bzero.o
                0x0000000080005ba0                bzero
 build/asm/cn/libultra/string.o(.text)
 .text          0x0000000080005c40       0x80 build/asm/cn/libultra/string.o
                0x0000000080005c40                strchr
                0x0000000080005c70                strlen
                0x0000000080005c94                memcpy
 build/asm/cn/libultra/os/createmesgqueue.o(.text)
 .text          0x0000000080005cc0       0x70 build/asm/cn/libultra/os/createmesgqueue.o
                0x0000000080005cc0                osCreateMesgQueue
 build/asm/cn/libultra/os/recvmesg.o(.text)
 .text          0x0000000080005d30      0x170 build/asm/cn/libultra/os/recvmesg.o
                0x0000000080005d30                osRecvMesg
 build/asm/cn/libultra/sptask.o(.text)
 .text          0x0000000080005ea0      0x210 build/asm/cn/libultra/sptask.o
                0x0000000080005ea0                _VirtualToPhysicalTask
                0x0000000080005f7c                osSpTaskLoad
                0x0000000080006080                osSpTaskStartGo
 build/asm/cn/libultra/sptaskyield.o(.text)
 .text          0x00000000800060b0       0x20 build/asm/cn/libultra/sptaskyield.o
                0x00000000800060b0                osSpTaskYield
 build/asm/cn/libultra/sptaskyielded.o(.text)
 .text          0x00000000800060d0       0x50 build/asm/cn/libultra/sptaskyielded.o
                0x00000000800060d0                osSpTaskYielded
 build/asm/cn/libultra/sched.o(.text)
 .text          0x0000000080006120      0x9a0 build/asm/cn/libultra/sched.o
                0x0000000080006120                osCreateScheduler
                0x0000000080006264                osScAddClient
                0x00000000800062bc                osScRemoveClient
                0x0000000080006344                osScGetCmdQ
                0x000000008000634c                __scMain
                0x0000000080006438                __scHandleRetrace
                0x000000008000652c                __scHandleRSP
                0x0000000080006618                __scHandleRDP
                0x00000000800066ac                __scTaskReady
                0x00000000800066fc                __scTaskComplete
                0x0000000080006788                __scAppendList
                0x00000000800067dc                __scExec
                0x00000000800068a0                __scYield
                0x00000000800068d8                __scSchedule
                0x00000000800069a4                .L800069A4
                0x0000000080006a24                .L80006A24
                0x0000000080006a7c                .L80006A7C
 build/asm/cn/libultra/sirawdma.o(.text)
 .text          0x0000000080006ac0       0xe0 build/asm/cn/libultra/sirawdma.o
                0x0000000080006ac0                __osSiRawStartDma
 build/asm/cn/libultra/io/siacs.o(.text)
 .text          0x0000000080006ba0       0xc0 build/asm/cn/libultra/io/siacs.o
                0x0000000080006ba0                __osSiCreateAccessQueue
                0x0000000080006bf4                __osSiGetAccess
                0x0000000080006c30                __osSiRelAccess
 build/asm/cn/libultra/os/createthread.o(.text)
 .text          0x0000000080006c60      0x170 build/asm/cn/libultra/os/createthread.o
                0x0000000080006c60                osCreateThread
 build/asm/cn/libultra/os/startthread.o(.text)
 .text          0x0000000080006dd0      0x190 build/asm/cn/libultra/os/startthread.o
                0x0000000080006dd0                osStartThread
 build/asm/cn/libultra/os/stopthread.o(.text)
 .text          0x0000000080006f60       0xf0 build/asm/cn/libultra/os/stopthread.o
                0x0000000080006f60                osStopThread
 build/asm/cn/libultra/os/thread.o(.text)
 .text          0x0000000080007050       0x60 build/asm/cn/libultra/os/thread.o
                0x0000000080007050                __osDequeueThread
 build/asm/cn/libultra/os/gettime.o(.text)
 .text          0x00000000800070b0       0xb0 build/asm/cn/libultra/os/gettime.o
                0x00000000800070b0                osGetTime
 build/asm/cn/libultra/os/settime.o(.text)
 .text          0x0000000080007160       0x40 build/asm/cn/libultra/os/settime.o
                0x0000000080007160                osSetTime
 build/asm/cn/libultra/os/settimer.o(.text)
 .text          0x00000000800071a0      0x1c0 build/asm/cn/libultra/os/settimer.o
                0x00000000800071a0                osSetTimer
 build/asm/cn/libultra/os/timerintr.o(.text)
 .text          0x0000000080007360      0x520 build/asm/cn/libultra/os/timerintr.o
                0x0000000080007360                __osTimerServicesInit
                0x000000008000740c                __osTimerInterrupt
                0x00000000800075f4                __osSetTimerIntr
                0x00000000800076c8                __osInsertTimer
 build/asm/cn/libultra/probetlb.o(.text)
 .text          0x0000000080007880       0xc0 build/asm/cn/libultra/probetlb.o
                0x0000000080007880                __osProbeTLB
 build/asm/cn/libultra/io/vigetcurrframebuf.o(.text)
 .text          0x0000000080007940       0x40 build/asm/cn/libultra/io/vigetcurrframebuf.o
                0x0000000080007940                osViGetCurrentFramebuffer
 build/asm/cn/libultra/io/vigetnextframebuf.o(.text)
 .text          0x0000000080007980       0x40 build/asm/cn/libultra/io/vigetnextframebuf.o
                0x0000000080007980                osViGetNextFramebuffer
 build/asm/cn/libultra/io/vimgr.o(.text)
 .text          0x00000000800079c0      0x300 build/asm/cn/libultra/io/vimgr.o
                0x00000000800079c0                osCreateViManager
                0x0000000080007b38                viMgrMain
 build/asm/cn/libultra/visetevent.o(.text)
 .text          0x0000000080007cc0       0x60 build/asm/cn/libultra/visetevent.o
                0x0000000080007cc0                osViSetEvent
 build/asm/cn/libultra/visetmode.o(.text)
 .text          0x0000000080007d20       0x80 build/asm/cn/libultra/visetmode.o
                0x0000000080007d20                osViSetMode
 build/asm/cn/libultra/visetspecial.o(.text)
 .text          0x0000000080007da0      0x180 build/asm/cn/libultra/visetspecial.o
                0x0000000080007da0                osViSetSpecialFeatures
 build/asm/cn/libultra/visetyscale.o(.text)
 .text          0x0000000080007f20       0x50 build/asm/cn/libultra/visetyscale.o
                0x0000000080007f20                osViSetYScale
 build/asm/cn/libultra/viswapbuf.o(.text)
 .text          0x0000000080007f70       0x50 build/asm/cn/libultra/viswapbuf.o
                0x0000000080007f70                osViSwapBuffer
 build/asm/cn/libultra/viswapcontext.o(.text)
 .text          0x0000000080007fc0      0x310 build/asm/cn/libultra/viswapcontext.o
                0x0000000080007fc0                __osViSwapContext
 build/asm/cn/libultra/viblack.o(.text)
 .text          0x00000000800082d0       0x70 build/asm/cn/libultra/viblack.o
                0x00000000800082d0                osViBlack
 build/asm/cn/libultra/mtxident.o(.text)
 .text          0x0000000080008340       0x60 build/asm/cn/libultra/mtxident.o
                0x0000000080008340                guMtxIdent
 build/asm/cn/libultra/mtxidentf.o(.text)
 .text          0x00000000800083a0       0x60 build/asm/cn/libultra/mtxidentf.o
                0x00000000800083a0                guMtxIdentF
 build/asm/cn/libultra/mtxf2l.o(.text)
 .text          0x0000000080008400       0x80 build/asm/cn/libultra/mtxf2l.o
                0x0000000080008400                guMtxF2L
 build/asm/cn/libultra/mtxl2f.o(.text)
 .text          0x0000000080008480       0x80 build/asm/cn/libultra/mtxl2f.o
                0x0000000080008480                guMtxL2F
 build/asm/cn/libultra/mtxcatf.o(.text)
 .text          0x0000000080008500      0x100 build/asm/cn/libultra/mtxcatf.o
                0x0000000080008500                guMtxCatF
 build/asm/cn/libultra/scale.o(.text)
 .text          0x0000000080008600       0xa0 build/asm/cn/libultra/scale.o
                0x0000000080008600                guScale
 build/asm/cn/libultra/scalef.o(.text)
 .text          0x00000000800086a0       0x60 build/asm/cn/libultra/scalef.o
                0x00000000800086a0                guScaleF
 build/asm/cn/libultra/translate.o(.text)
 .text          0x0000000080008700       0xe0 build/asm/cn/libultra/translate.o
                0x0000000080008700                guTranslate
 build/asm/cn/libultra/translatef.o(.text)
 .text          0x00000000800087e0       0x50 build/asm/cn/libultra/translatef.o
                0x00000000800087e0                guTranslateF
 build/asm/cn/libultra/conteepprobe.o(.text)
 .text          0x0000000080008830       0x60 build/asm/cn/libultra/conteepprobe.o
                0x0000000080008830                osEepromProbe
 build/asm/cn/libultra/conteeplongwrite.o(.text)
 .text          0x0000000080008890       0xf0 build/asm/cn/libultra/conteeplongwrite.o
                0x0000000080008890                osEepromLongWrite
 build/asm/cn/libultra/conteeplongread.o(.text)
 .text          0x0000000080008980       0x80 build/asm/cn/libultra/conteeplongread.o
                0x0000000080008980                osEepromLongRead
 build/asm/cn/libultra/os/exceptasm.o(.text)
 .text          0x0000000080008a00      0xa80 build/asm/cn/libultra/os/exceptasm.o
                0x0000000080008a00                __osExceptionPreamble
                0x0000000080008a10                __osException
                0x0000000080008c5c                .L80008C5C
                0x0000000080008c68                .L80008C68
                0x0000000080008c74                .L80008C74
                0x0000000080008c98                .L80008C98
                0x0000000080008ddc                .L80008DDC
                0x0000000080008f50                .L80008F50
                0x0000000080008fb4                .L80008FB4
                0x0000000080008fd8                .L80008FD8
                0x0000000080009014                .L80009014
                0x0000000080009094                send_mesg
                0x0000000080009150                handle_CpU
                0x0000000080009184                __osEnqueueAndYield
                0x0000000080009290                __osEnqueueThread
                0x00000000800092d8                __osPopThread
                0x00000000800092e8                __osNop
                0x00000000800092f0                __osDispatchThread
                0x0000000080009470                __osCleanupThread
 build/asm/cn/libultra/interrupt.o(.text)
 .text          0x0000000080009480       0x90 build/asm/cn/libultra/interrupt.o
                0x0000000080009480                __osDisableInt
                0x00000000800094f0                __osRestoreInt
 build/asm/cn/libultra/setintmask.o(.text)
 .text          0x0000000080009510       0xb0 build/asm/cn/libultra/setintmask.o
                0x0000000080009510                osSetIntMask
 build/asm/cn/libultra/io/pimgr.o(.text)
 .text          0x00000000800095c0      0x180 build/asm/cn/libultra/io/pimgr.o
                0x00000000800095c0                osCreatePiManager
 build/asm/cn/libultra/epirawdma.o(.text)
 .text          0x0000000080009740      0x3c0 build/asm/cn/libultra/epirawdma.o
                0x0000000080009740                __osEPiRawStartDma
 build/asm/cn/libultra/io/epiwrite.o(.text)
 .text          0x0000000080009b00       0x60 build/asm/cn/libultra/io/epiwrite.o
                0x0000000080009b00                osEPiWriteIo
 build/asm/cn/libultra/epidma.o(.text)
 .text          0x0000000080009b60       0xa0 build/asm/cn/libultra/epidma.o
                0x0000000080009b60                osEPiStartDma
 build/asm/cn/libultra/epilinkhandle.o(.text)
 .text          0x0000000080009c00       0x50 build/asm/cn/libultra/epilinkhandle.o
                0x0000000080009c00                osEPiLinkHandle
 build/asm/cn/libultra/cartrominit.o(.text)
 .text          0x0000000080009c50      0x160 build/asm/cn/libultra/cartrominit.o
                0x0000000080009c50                osCartRomInit
 build/asm/cn/libultra/devmgr.o(.text)
 .text          0x0000000080009db0      0x4a0 build/asm/cn/libultra/devmgr.o
                0x0000000080009db0                __osDevMgrMain
                0x000000008000a02c                .L8000A02C
                0x000000008000a0a4                .L8000A0A4
                0x000000008000a0d8                .L8000A0D8
                0x000000008000a160                .L8000A160
                0x000000008000a19c                .L8000A19C
                0x000000008000a1a8                .L8000A1A8
 build/asm/cn/libultra/io/piacs.o(.text)
 .text          0x000000008000a250       0xc0 build/asm/cn/libultra/io/piacs.o
                0x000000008000a250                __osPiCreateAccessQueue
                0x000000008000a2a4                __osPiGetAccess
                0x000000008000a2e0                __osPiRelAccess
 build/asm/cn/libultra/skapi.o(.text)
 .text          0x000000008000a310      0x250 build/asm/cn/libultra/skapi.o
                0x000000008000a310                skGetId
                0x000000008000a32c                skLaunchSetup
                0x000000008000a348                skLaunch
                0x000000008000a364                skRecryptListValid
                0x000000008000a380                skRecryptBegin
                0x000000008000a39c                skRecryptData
                0x000000008000a3b8                skRecryptComputeState
                0x000000008000a3d4                skRecryptEnd
                0x000000008000a3f0                skSignHash
                0x000000008000a40c                skVerifyHash
                0x000000008000a428                skGetConsumption
                0x000000008000a444                skAdvanceTicketWindow
                0x000000008000a460                skSetLimit
                0x000000008000a47c                skExit
                0x000000008000a498                skKeepAlive
                0x000000008000a4b4                skGetRandomKeyData
                0x000000008000a4d0                skDumpVirage
                0x000000008000a4ec                skTest2
                0x000000008000a508                skTest3
                0x000000008000a524                skResetWindow
                0x000000008000a540                skValidateRls
 build/asm/cn/libultra/common.o(.text)
 .text          0x000000008000a560       0xf0 build/asm/cn/libultra/common.o
                0x000000008000a560                strcmp
                0x000000008000a5b0                memset
                0x000000008000a5d4                strncmp
 build/asm/cn/libultra/nops_00B250.o(.text)
 .text          0x000000008000a650       0x70 build/asm/cn/libultra/nops_00B250.o
                0x000000008000a650                func_8000A650_cn
 build/asm/cn/libultra/os/initialize.o(.text)
 .text          0x000000008000a6c0      0x590 build/asm/cn/libultra/os/initialize.o
                0x000000008000a6c0                __createSpeedParam
                0x000000008000a774                __osInitialize_common
                0x000000008000ac2c                __osInitialize_autodetect
 build/asm/cn/libultra/ai.o(.text)
 .text          0x000000008000ac50       0x30 build/asm/cn/libultra/ai.o
                0x000000008000ac50                __osAiDeviceBusy
 build/asm/cn/libultra/drvrNew.o(.text)
 .text          0x000000008000ac80      0x7b0 build/asm/cn/libultra/drvrNew.o
                0x000000008000ac80                _init_lpfilter
                0x000000008000ad30                alFxNew
                0x000000008000adb8                .L8000ADB8
                0x000000008000adc8                .L8000ADC8
                0x000000008000add8                .L8000ADD8
                0x000000008000ade8                .L8000ADE8
                0x000000008000adf8                .L8000ADF8
                0x000000008000ae08                .L8000AE08
                0x000000008000b144                alEnvmixerNew
                0x000000008000b1f4                alLoadNew
                0x000000008000b2a4                alResampleNew
                0x000000008000b330                alAuxBusNew
                0x000000008000b38c                alMainBusNew
                0x000000008000b3e8                alSaveNew
 build/asm/cn/libultra/load.o(.text)
 .text          0x000000008000b430      0xa90 build/asm/cn/libultra/load.o
                0x000000008000b430                alAdpcmPull
                0x000000008000b84c                alRaw16Pull
                0x000000008000bbd0                alLoadParam
                0x000000008000bd5c                _decodeChunk
 build/asm/cn/libultra/auxbus.o(.text)
 .text          0x000000008000bec0      0x110 build/asm/cn/libultra/auxbus.o
                0x000000008000bec0                alAuxBusPull
                0x000000008000bf9c                alAuxBusParam
 build/asm/cn/libultra/filter.o(.text)
 .text          0x000000008000bfd0       0x20 build/asm/cn/libultra/filter.o
                0x000000008000bfd0                alFilterNew
 build/asm/cn/libultra/mainbus.o(.text)
 .text          0x000000008000bff0      0x170 build/asm/cn/libultra/mainbus.o
                0x000000008000bff0                alMainBusPull
                0x000000008000c134                alMainBusParam
 build/asm/cn/libultra/resample.o(.text)
 .text          0x000000008000c160      0x2a0 build/asm/cn/libultra/resample.o
                0x000000008000c160                alResamplePull
                0x000000008000c338                alResampleParam
                0x000000008000c364                .L8000C364
                0x000000008000c36c                .L8000C36C
                0x000000008000c39c                .L8000C39C
                0x000000008000c3c0                .L8000C3C0
                0x000000008000c3c8                .L8000C3C8
                0x000000008000c3d4                .L8000C3D4
 build/asm/cn/libultra/reverb.o(.text)
 .text          0x000000008000c400      0xb70 build/asm/cn/libultra/reverb.o
                0x000000008000c400                alFxPull
                0x000000008000c750                alFxParam
                0x000000008000c764                alFxParamHdl
                0x000000008000c7ac                .L8000C7AC
                0x000000008000c7d0                .L8000C7D0
                0x000000008000c7f4                .L8000C7F4
                0x000000008000c810                .L8000C810
                0x000000008000c82c                .L8000C82C
                0x000000008000c848                .L8000C848
                0x000000008000c898                .L8000C898
                0x000000008000c8fc                .L8000C8FC
                0x000000008000c940                _loadOutputBuffer
                0x000000008000cb44                _loadBuffer
                0x000000008000ccb0                _saveBuffer
                0x000000008000ce20                _filterBuffer
                0x000000008000ced8                _doModFunc
 build/asm/cn/libultra/save.o(.text)
 .text          0x000000008000cf70       0xe0 build/asm/cn/libultra/save.o
                0x000000008000cf70                alSavePull
                0x000000008000d01c                alSaveParam
 build/asm/cn/libultra/heapalloc.o(.text)
 .text          0x000000008000d050       0x50 build/asm/cn/libultra/heapalloc.o
                0x000000008000d050                alHeapDBAlloc
 build/asm/cn/libultra/copy.o(.text)
 .text          0x000000008000d0a0       0x30 build/asm/cn/libultra/copy.o
                0x000000008000d0a0                alCopy
 build/asm/cn/libultra/invalicache.o(.text)
 .text          0x000000008000d0d0       0x80 build/asm/cn/libultra/invalicache.o
                0x000000008000d0d0                osInvalICache
 build/asm/cn/libultra/writebackdcache.o(.text)
 .text          0x000000008000d150       0x80 build/asm/cn/libultra/writebackdcache.o
                0x000000008000d150                osWritebackDCache
 build/asm/cn/libultra/os/jammesg.o(.text)
 .text          0x000000008000d1d0      0x180 build/asm/cn/libultra/os/jammesg.o
                0x000000008000d1d0                osJamMesg
 build/asm/cn/libultra/os/sendmesg.o(.text)
 .text          0x000000008000d350      0x170 build/asm/cn/libultra/os/sendmesg.o
                0x000000008000d350                osSendMesg
 build/asm/cn/libultra/os/seteventmesg.o(.text)
 .text          0x000000008000d4c0       0xd0 build/asm/cn/libultra/os/seteventmesg.o
                0x000000008000d4c0                osSetEventMesg
 build/asm/cn/libultra/dpsetnextbuf.o(.text)
 .text          0x000000008000d590       0xa0 build/asm/cn/libultra/dpsetnextbuf.o
                0x000000008000d590                osDpSetNextBuffer
 build/asm/cn/libultra/getcause.o(.text)
 .text          0x000000008000d630       0x10 build/asm/cn/libultra/getcause.o
                0x000000008000d630                __osGetCause
 build/asm/cn/libultra/getsr.o(.text)
 .text          0x000000008000d640       0x10 build/asm/cn/libultra/getsr.o
                0x000000008000d640                __osGetSR
 build/asm/cn/libultra/setfpccsr.o(.text)
 .text          0x000000008000d650       0x10 build/asm/cn/libultra/setfpccsr.o
                0x000000008000d650                __osSetFpcCsr
 build/asm/cn/libultra/setsr.o(.text)
 .text          0x000000008000d660       0x10 build/asm/cn/libultra/setsr.o
                0x000000008000d660                __osSetSR
 build/asm/cn/libultra/setwatchlo.o(.text)
 .text          0x000000008000d670       0x10 build/asm/cn/libultra/setwatchlo.o
                0x000000008000d670                __osSetWatchLo
 build/asm/cn/libultra/reg/_getcount.o(.text)
 .text          0x000000008000d680      0x100 build/asm/cn/libultra/reg/_getcount.o
                0x000000008000d680                osGetCount
 build/asm/cn/libultra/reg/_setcompare.o(.text)
 .text          0x000000008000d780       0xb0 build/asm/cn/libultra/reg/_setcompare.o
                0x000000008000d780                osSetCompare
 build/asm/cn/libultra/sp.o(.text)
 .text          0x000000008000d830       0x30 build/asm/cn/libultra/sp.o
                0x000000008000d830                __osSpDeviceBusy
 build/asm/cn/libultra/spgetstat.o(.text)
 .text          0x000000008000d860       0x10 build/asm/cn/libultra/spgetstat.o
                0x000000008000d860                __osSpGetStatus
 build/asm/cn/libultra/spsetstat.o(.text)
 .text          0x000000008000d870       0x10 build/asm/cn/libultra/spsetstat.o
                0x000000008000d870                __osSpSetStatus
 build/asm/cn/libultra/spsetpc.o(.text)
 .text          0x000000008000d880       0x30 build/asm/cn/libultra/spsetpc.o
                0x000000008000d880                __osSpSetPc
 build/asm/cn/libultra/sprawdma.o(.text)
 .text          0x000000008000d8b0       0x90 build/asm/cn/libultra/sprawdma.o
                0x000000008000d8b0                __osSpRawStartDma
 build/asm/cn/libultra/io/sirawread.o(.text)
 .text          0x000000008000d940       0x50 build/asm/cn/libultra/io/sirawread.o
                0x000000008000d940                __osSiRawReadIo
 build/asm/cn/libultra/io/sirawwrite.o(.text)
 .text          0x000000008000d990       0x50 build/asm/cn/libultra/io/sirawwrite.o
                0x000000008000d990                __osSiRawWriteIo
 build/asm/cn/libultra/os/destroythread.o(.text)
 .text          0x000000008000d9e0      0x130 build/asm/cn/libultra/os/destroythread.o
                0x000000008000d9e0                osDestroyThread
 build/asm/cn/libultra/os/getthreadid.o(.text)
 .text          0x000000008000db10       0x50 build/asm/cn/libultra/os/getthreadid.o
                0x000000008000db10                osGetThreadId
 build/asm/cn/libultra/os/setthreadpri.o(.text)
 .text          0x000000008000db60      0x110 build/asm/cn/libultra/os/setthreadpri.o
                0x000000008000db60                osSetThreadPri
 build/asm/cn/libultra/os/yieldthread.o(.text)
 .text          0x000000008000dc70       0x60 build/asm/cn/libultra/os/yieldthread.o
                0x000000008000dc70                osYieldThread
 build/asm/cn/libultra/maptlbrdb.o(.text)
 .text          0x000000008000dcd0       0x60 build/asm/cn/libultra/maptlbrdb.o
                0x000000008000dcd0                osMapTLBRdb
 build/asm/cn/libultra/unmaptlball.o(.text)
 .text          0x000000008000dd30       0x50 build/asm/cn/libultra/unmaptlball.o
                0x000000008000dd30                osUnmapTLBAll
 build/asm/cn/libultra/vi.o(.text)
 .text          0x000000008000dd80      0x100 build/asm/cn/libultra/vi.o
                0x000000008000dd80                __osViInit
 build/asm/cn/libultra/io/vigetcurrcontext.o(.text)
 .text          0x000000008000de80       0x10 build/asm/cn/libultra/io/vigetcurrcontext.o
                0x000000008000de80                __osViGetCurrentContext
 build/asm/cn/libultra/conteepread.o(.text)
 .text          0x000000008000de90       0xb0 build/asm/cn/libultra/conteepread.o
                0x000000008000de90                osEepromRead
 build/asm/cn/libultra/conteepwrite.o(.text)
 .text          0x000000008000df40       0xb0 build/asm/cn/libultra/conteepwrite.o
                0x000000008000df40                osEepromWrite
 build/asm/cn/libultra/os/setglobalintmask.o(.text)
 .text          0x000000008000dff0       0x60 build/asm/cn/libultra/os/setglobalintmask.o
                0x000000008000dff0                __osSetGlobalIntMask
 build/asm/cn/libultra/os/resetglobalintmask.o(.text)
 .text          0x000000008000e050       0x70 build/asm/cn/libultra/os/resetglobalintmask.o
                0x000000008000e050                __osResetGlobalIntMask
 build/asm/cn/libultra/pirawdma.o(.text)
 .text          0x000000008000e0c0       0xe0 build/asm/cn/libultra/pirawdma.o
                0x000000008000e0c0                __osPiRawStartDma
 build/asm/cn/libultra/pigetcmdq.o(.text)
 .text          0x000000008000e1a0       0x30 build/asm/cn/libultra/pigetcmdq.o
                0x000000008000e1a0                osPiGetCmdQueue
 build/asm/cn/libultra/epirawread.o(.text)
 .text          0x000000008000e1d0      0x180 build/asm/cn/libultra/epirawread.o
                0x000000008000e1d0                __osEPiRawReadIo
 build/asm/cn/libultra/epirawwrite.o(.text)
 .text          0x000000008000e350      0x180 build/asm/cn/libultra/epirawwrite.o
                0x000000008000e350                __osEPiRawWriteIo
 build/asm/cn/libultra/dp.o(.text)
 .text          0x000000008000e4d0       0x30 build/asm/cn/libultra/dp.o
                0x000000008000e4d0                __osDpDeviceBusy
 build/asm/cn/libultra/si.o(.text)
 .text          0x000000008000e500       0x30 build/asm/cn/libultra/si.o
                0x000000008000e500                __osSiDeviceBusy
 build/src/libegcs/libgcc2.o(.text)
 .text          0x000000008000e530      0x570 build/src/libegcs/libgcc2.o
                0x000000008000e530                __udivdi3
 build/asm/cn/libegcs/00F6A0.o(.text)
 .text          0x000000008000eaa0       0x40 build/asm/cn/libegcs/00F6A0.o
                0x000000008000eaa0                func_8000EAA0_cn
 build/asm/cn/libegcs/00F6E0.o(.text)
 .text          0x000000008000eae0       0x20 build/asm/cn/libegcs/00F6E0.o
                0x000000008000eae0                func_8000EAE0_cn
 build/asm/cn/libegcs/00F700.o(.text)
 .text          0x000000008000eb00       0x60 build/asm/cn/libegcs/00F700.o
                0x000000008000eb00                func_8000EB00_cn
                0x000000008000eb10                rand
 build/asm/cn/libegcs/00F760.o(.text)
 .text          0x000000008000eb60       0x40 build/asm/cn/libegcs/00F760.o
                0x000000008000eb60                fmod
 build/asm/cn/libegcs/00F7A0.o(.text)
 .text          0x000000008000eba0       0x90 build/asm/cn/libegcs/00F7A0.o
                0x000000008000eba0                memmove
                0x000000008000ec30                boot_TEXT_END = .
                0x000000000000e7d0                boot_TEXT_SIZE = ABSOLUTE ((boot_TEXT_END - boot_TEXT_START))
                0x000000008000ec30                boot_DATA_START = .
                0x000000008000ec30                boot_boot_main = .
 build/src/boot/boot_main.o(.data)
 .data          0x000000008000ec30       0x10 build/src/boot/boot_main.o
                0x000000008000ec30                D_8000E190
                0x000000008000ec40                boot_dmadata = .
 build/src/boot/dmadata.o(.data)
 .data          0x000000008000ec40       0x10 build/src/boot/dmadata.o
                0x000000008000ec40                D_8000EC40_cn
                0x000000008000ec44                sDmaDataIsInitialized
                0x000000008000ec50                boot_00F850_data = .
 build/asm/cn/data/boot/00F850.data.o(.data)
 .data          0x000000008000ec50      0x590 build/asm/cn/data/boot/00F850.data.o
                0x000000008000ec50                D_8000EC50_cn
                0x000000008000ec9c                D_8000EC9C_cn
                0x000000008000ecdc                D_8000ECDC_cn
                0x000000008000ed1c                D_8000ED1C_cn
                0x000000008000ed58                D_8000ED58_cn
                0x000000008000ed94                D_8000ED94_cn
                0x000000008000edb8                D_8000EDB8_cn
                0x000000008000edbc                D_8000EDBC_cn
                0x000000008000edc0                gzip_malloc_addr
                0x000000008000edc4                D_8000E324
                0x000000008000edd8                crc_32_tab
                0x000000008000f1d8                crc_132
                0x000000008000f1e0                boot_rom_offsets = .
 build/src/boot/rom_offsets.o(.data)
 .data          0x000000008000f1e0      0x310 build/src/boot/rom_offsets.o
                0x000000008000f1e0                storyRomData
                0x000000008000f218                bgRomData
                0x000000008000f2d8                _romDataTbl
                0x000000008000f4f0                gateway_003630 = .
 build/src/gateway/003630.o(.data)
 .data          0x000000008000f4f0       0x10 build/src/gateway/003630.o
                0x000000008000f4f0                sGatewayInitialized
                0x000000008000f500                boot_010100_data = .
 build/asm/cn/data/boot/010100.data.o(.data)
 .data          0x000000008000f500     0x1fe0 build/asm/cn/data/boot/010100.data.o
                0x000000008000f500                D_8000F500_cn
                0x000000008000f510                D_8000F510_cn
                0x000000008000f610                alGlobals
                0x000000008000f614                D_8000F614
                0x000000008000f620                __osContinitialized
                0x000000008000f624                D_8000F624
                0x000000008000f630                D_8000F630_cn
                0x000000008000f640                D_8000F640_cn
                0x000000008000fe40                D_8000FE40_cn
                0x000000008000fe44                D_8000FE44_cn
                0x000000008000fe48                D_8000FE48_cn
                0x000000008000fe50                D_8000FE50_cn
                0x000000008000fe60                D_8000FE60_cn
                0x000000008000fe68                __osRunQueue
                0x000000008000fe6c                D_8000FE6C_cn
                0x000000008000fe70                __osRunningThread
                0x000000008000fe74                D_8000FE74_cn
                0x000000008000fe80                __osTimerList
                0x000000008000fe90                D_8000FE90_cn
                0x000000008000feac                D_8000FEAC_cn
                0x000000008000feb0                osViModeTable
                0x0000000080011030                D_80011030_cn
                0x0000000080011058                D_80011058_cn
                0x0000000080011060                __osPiDevMgr
                0x000000008001107c                __osPiTable
                0x0000000080011080                __osCurrentHandle
                0x0000000080011090                D_80011090_cn
                0x00000000800110a0                D_800110A0_cn
                0x00000000800110b0                D_800110B0_cn
                0x00000000800110b4                D_800110B4_cn
                0x00000000800110b8                osViClock
                0x00000000800110bc                D_800110BC_cn
                0x00000000800110c0                __OSGlobalIntMask
                0x00000000800110d0                D_800110D0_cn
                0x0000000080011138                D_80011138_cn
                0x00000000800111c0                D_800111C0_cn
                0x00000000800111e8                D_800111E8_cn
                0x0000000080011210                D_80011210_cn
                0x0000000080011238                D_80011238_cn
                0x0000000080011260                D_80011260_cn
                0x0000000080011270                D_80011270_cn
                0x00000000800112a0                D_800112A0_cn
                0x00000000800112d0                __osViCurr
                0x00000000800112d4                __osViNext
                0x00000000800112d8                D_800112D8
                0x00000000800112e0                osViModeNtscLan1
                0x0000000080011330                osViModePalLan1
                0x0000000080011380                osViModeMpalLan1
                0x00000000800113d1                D_800113D1_cn
                0x00000000800114e0                boot_DATA_END = .
                0x00000000000028b0                boot_DATA_SIZE = ABSOLUTE ((boot_DATA_END - boot_DATA_START))
                0x00000000800114e0                boot_RODATA_START = .
 build/asm/cn/data/boot/0120E0.rodata.o(.rodata)
 .rodata        0x00000000800114e0       0xa0 build/asm/cn/data/boot/0120E0.rodata.o
                0x00000000800114e0                jtbl_800114E0
                0x0000000080011528                RO_80011528_cn
                0x0000000080011568                RO_80011568_cn
                0x0000000080011570                RO_80011570_cn
 build/asm/cn/data/boot/012180.rodata.o(.rodata)
 .rodata        0x0000000080011580       0x60 build/asm/cn/data/boot/012180.rodata.o
                0x0000000080011580                RO_80011580_cn
                0x00000000800115b0                RO_800115B0_cn
                0x00000000800115b8                RO_800115B8_cn
                0x00000000800115c0                RO_800115C0_cn
                0x00000000800115c8                RO_800115C8_cn
                0x00000000800115d0                RO_800115D0_cn
 build/asm/cn/data/boot/0121E0.rodata.o(.rodata)
 .rodata        0x00000000800115e0       0x60 build/asm/cn/data/boot/0121E0.rodata.o
                0x00000000800115e0                RO_800115E0_cn
                0x0000000080011610                RO_80011610_cn
                0x0000000080011618                RO_80011618_cn
                0x0000000080011620                RO_80011620_cn
                0x0000000080011628                RO_80011628_cn
                0x0000000080011630                RO_80011630_cn
 build/asm/cn/data/boot/012240.rodata.o(.rodata)
 .rodata        0x0000000080011640       0x20 build/asm/cn/data/boot/012240.rodata.o
                0x0000000080011640                jtbl_80011640
 build/asm/cn/data/boot/012260.rodata.o(.rodata)
 .rodata        0x0000000080011660       0x50 build/asm/cn/data/boot/012260.rodata.o
                0x0000000080011660                __osIntOffTable
                0x0000000080011680                jtbl_80011680
 build/asm/cn/data/boot/0122B0.rodata.o(.rodata)
 .rodata        0x00000000800116b0      0x120 build/asm/cn/data/boot/0122B0.rodata.o
                0x00000000800116b0                __osRcpImTable
                0x0000000080011730                jtbl_80011730
                0x0000000080011750                jtbl_80011750
                0x0000000080011768                RO_80011768_cn
                0x0000000080011770                RO_80011770_cn
                0x0000000080011778                jtbl_80011778
                0x00000000800117a0                jtbl_800117A0
                0x00000000800117c0                RO_800117C0_cn
 build/asm/cn/data/boot/0123D0.rodata.o(.rodata)
 .rodata        0x00000000800117d0       0x10 build/asm/cn/data/boot/0123D0.rodata.o
                0x00000000800117d0                __libm_qnan_f
 build/src/libegcs/libgcc2.o(.rodata)
 .rodata        0x00000000800117e0      0x100 build/src/libegcs/libgcc2.o
                0x00000000800117e0                __clz_tab
                0x00000000800118e0                boot_RODATA_END = .
                0x0000000000000400                boot_RODATA_SIZE = ABSOLUTE ((boot_RODATA_END - boot_RODATA_START))
                0x00000000800118e0                boot_bss_VRAM = ADDR (.boot_bss)

.boot_bss       0x00000000800118e0    0x18ed0 load address 0x00000000000124e0
                0x00000000800118e0                boot_BSS_START = .
 build/asm/cn/data/boot/800118E0.bss.o(.bss)
 .bss           0x00000000800118e0       0x70 build/asm/cn/data/boot/800118E0.bss.o
                0x00000000800118e0                bk
                0x00000000800118e4                __osBaseCounter
                0x00000000800118e8                ofd
                0x00000000800118f0                __osBbRCountWraps
                0x00000000800118f4                __osBbLastRCount
                0x00000000800118f8                __osViIntrCount
                0x00000000800118fc                insize
                0x0000000080011900                outcnt
                0x0000000080011904                __osMaxControllers
                0x0000000080011905                D_80011905
                0x0000000080011908                B_8001F998
                0x0000000080011910                __osCurrentTime
                0x0000000080011918                hufts
                0x000000008001191c                bytes_in
                0x0000000080011920                __osBbLastVCount
                0x0000000080011924                B_80011924_cn
                0x0000000080011928                __osContLastCmd
                0x0000000080011929                D_80011929
                0x000000008001192c                __osEepromTimerMsg
                0x0000000080011930                __osTimerCounter
                0x0000000080011934                __osBbVCountWraps
                0x0000000080011938                B_80011938_cn
                0x000000008001193c                inptr
                0x0000000080011940                ifd
                0x0000000080011948                D_80011948
 build/asm/cn/data/boot/boot_main.bss.o(.bss)
 .bss           0x0000000080011950     0x4360 build/asm/cn/data/boot/boot_main.bss.o
                0x0000000080011950                sIdleThread
                0x0000000080011b00                sMainThread
                0x0000000080011cb0                sIdleStack
                0x0000000080013cb0                sMainStack
 build/asm/cn/data/boot/80015CB0.bss.o(.bss)
 .bss           0x0000000080015cb0     0x4020 build/asm/cn/data/boot/80015CB0.bss.o
                0x0000000080015cb0                B_800151C0
                0x0000000080015cc8                B_800151D8
                0x0000000080015cd0                gzip_mem_buff
 build/asm/cn/data/gateway/003630.bss.o(.bss)
 .bss           0x0000000080019cd0       0x80 build/asm/cn/data/gateway/003630.bss.o
                0x0000000080019cd0                sGatewayHandle
                0x0000000080019d44                D_80019D44
 build/asm/cn/data/boot/80019D50.bss.o(.bss)
 .bss           0x0000000080019d50    0x10a60 build/asm/cn/data/boot/80019D50.bss.o
                0x0000000080019d50                B_80019D50_cn
                0x0000000080019d90                B_80019D90_cn
                0x0000000080019da0                B_80019DA0_cn
                0x0000000080019da8                B_80019DA8_cn
                0x000000008001af58                B_8001AF58_cn
                0x000000008001af70                B_8001AF70_cn
                0x000000008001af84                B_8001AF84_cn
                0x000000008001af9c                B_8001AF9C_cn
                0x000000008001afc0                B_8001AFC0_cn
                0x000000008001c170                B_8001C170_cn
                0x000000008001c188                B_8001C188_cn
                0x000000008001c190                B_8001C190_cn
                0x000000008001c1a0                B_8001C1A0_cn
                0x000000008001c1b0                inbuf
                0x000000008001e1b0                __osThreadSave
                0x000000008001e360                __osContPifRam
                0x000000008001e3a0                B_8001E3A0_cn
                0x000000008001e3a4                B_8001E3A4_cn
                0x000000008001e3a5                B_8001E3A5_cn
                0x000000008001e3a6                B_8001E3A6_cn
                0x000000008001e3a7                B_8001E3A7_cn
                0x000000008001e3a8                B_8001E3A8_cn
                0x000000008001e418                gBootThreadStack
                0x0000000080020418                sPiMgrCmdBuff
                0x00000000800204e0                __CartRomHandle
                0x0000000080020554                D_80020554
                0x00000000800205a0                B_800205A0_cn
                0x00000000800205b8                B_800205B8_cn
                0x00000000800205bc                B_800205BC_cn
                0x00000000800205bd                B_800205BD_cn
                0x00000000800205be                B_800205BE_cn
                0x00000000800205bf                B_800205BF_cn
                0x00000000800205c0                B_800205C0_cn
                0x0000000080020630                B_80020630_cn
                0x0000000080022650                __osEepromTimer
                0x0000000080022670                __osEventStateTab
                0x0000000080022768                B_80022768_cn
                0x000000008002a768                __osEepromTimerQ
                0x000000008002a780                sPiMgrCmdQueue
                0x000000008002a798                B_8002A798_cn
                0x000000008002a7b0                boot_BSS_END = .
                0x0000000000018ed0                boot_BSS_SIZE = ABSOLUTE ((boot_BSS_END - boot_BSS_START))
                0x000000000065e150                __romPos = (__romPos + SIZEOF (.boot))
                0x000000000065e150                __romPos = ALIGN (__romPos, 0x10)
                0x00000000000124e0                boot_ROM_END = __romPos
                0x000000008002a7b0                boot_VRAM_END = .
                0x00000000000124e0                dma_table_ROM_START = __romPos
                0x000000008002a7b0                dma_table_VRAM = ADDR (.dma_table)

.dma_table      0x000000008002a7b0       0x10 load address 0x00000000000124e0
                0x000000008002a7b0                dma_table_DATA_START = .
                0x000000008002a7b0                dma_table_dma_table = .
 build/src/dma_table/dma_table.o(.data)
 .data          0x000000008002a7b0       0x10 build/src/dma_table/dma_table.o
                0x000000008002a7b0                gMainSegmentDmaInfo
                0x000000008002a7c0                dma_table_DATA_END = .
                0x0000000000000010                dma_table_DATA_SIZE = ABSOLUTE ((dma_table_DATA_END - dma_table_DATA_START))
                0x000000000065e150                __romPos = (__romPos + SIZEOF (.dma_table))
                0x000000000065e150                __romPos = ALIGN (__romPos, 0x10)
                0x00000000000124f0                dma_table_ROM_END = __romPos
                0x000000008002a7c0                dma_table_VRAM_END = .
                0x00000000000124f0                main_segment_ROM_START = __romPos
                0x000000008002a7c0                main_segment_VRAM = ADDR (.main_segment)

.main_segment   0x000000008002a7c0    0x9fa00 load address 0x00000000000124f0
                0x000000008002a7c0                main_segment_TEXT_START = .
 build/src/main_segment/main.o(.text)
 .text          0x000000008002a7c0      0x340 build/src/main_segment/main.o
                0x000000008002a7c0                mainproc
 build/src/main_segment/000280.o(.text)
 .text          0x000000008002ab00     0x12a0 build/src/main_segment/000280.o
                0x000000008002ab00                func_80029ED0
                0x000000008002adec                func_8002A0CC
                0x000000008002adf4                func_8002A0D4
                0x000000008002adfc                func_8002A0DC
                0x000000008002afc0                func_8002A184
                0x000000008002b034                func_8002A1DC
                0x000000008002b0d4                func_8002A26C
                0x000000008002b130                func_8002A2B8
                0x000000008002b440                func_8002A3F4
                0x000000008002b79c                func_8002A4D8
                0x000000008002b7f4                func_8002A51C
                0x000000008002b8b4                func_8002B8B4_cn
                0x000000008002b8b4                func_8002B8B4_cn.NON_MATCHING
                0x000000008002b910                func_8002B910_cn.NON_MATCHING
                0x000000008002b910                func_8002B910_cn
                0x000000008002ba98                func_8002BA98_cn
                0x000000008002ba98                func_8002BA98_cn.NON_MATCHING
                0x000000008002bc30                func_8002BC30_cn.NON_MATCHING
                0x000000008002bc30                func_8002BC30_cn
                0x000000008002bd04                func_8002BD04_cn.NON_MATCHING
                0x000000008002bd04                func_8002BD04_cn
                0x000000008002bd7c                func_8002BD7C_cn
 build/src/main_segment/joy.o(.text)
 .text          0x000000008002bda0      0x5d0 build/src/main_segment/joy.o
                0x000000008002bda0                joyInit
                0x000000008002bf44                joyProcCore
                0x000000008002c1d0                joyCursorFastSet
                0x000000008002c22c                joyResponseCheck
 build/src/main_segment/sound.o(.text)
 .text          0x000000008002c370      0xc10 build/src/main_segment/sound.o
                0x000000008002c370                func_8002AA80
                0x000000008002c3c4                func_8002AAD8
                0x000000008002c3d4                func_8002AAE8
                0x000000008002c424                func_8002AB28
                0x000000008002c4e8                func_8002C4E8_cn.NON_MATCHING
                0x000000008002c4e8                func_8002C4E8_cn
                0x000000008002c5a8                func_8002AC64
                0x000000008002c644                dm_audio_set_stereo
                0x000000008002c680                dm_audio_init_driver
                0x000000008002c7bc                dm_audio_update
                0x000000008002c924                dm_audio_stop
                0x000000008002c964                dm_audio_is_stopped
                0x000000008002c994                dm_seq_play
                0x000000008002c9c4                _dm_seq_play
                0x000000008002c9f0                func_8002C9F0_cn.NON_MATCHING
                0x000000008002c9f0                func_8002C9F0_cn
                0x000000008002ca28                _dm_seq_play_fade.NON_MATCHING
                0x000000008002ca28                _dm_seq_play_fade
                0x000000008002ca8c                dm_seq_play_in_game
                0x000000008002ca8c                dm_seq_play_in_game.NON_MATCHING
                0x000000008002cabc                func_8002CABC_cn
                0x000000008002cabc                func_8002CABC_cn.NON_MATCHING
                0x000000008002cb1c                dm_seq_stop
                0x000000008002cb48                _dm_seq_stop
                0x000000008002cb94                dm_seq_set_volume
                0x000000008002cb94                dm_seq_set_volume.NON_MATCHING
                0x000000008002cbc4                func_8002CBC4_cn
                0x000000008002cbc4                func_8002CBC4_cn.NON_MATCHING
                0x000000008002cbec                func_8002CBEC_cn
                0x000000008002cbec                func_8002CBEC_cn.NON_MATCHING
                0x000000008002cc18                func_8002B194.NON_MATCHING
                0x000000008002cc18                func_8002B194
                0x000000008002cc44                dm_snd_play
                0x000000008002cdec                dm_snd_play_in_game.NON_MATCHING
                0x000000008002cdec                dm_snd_play_in_game
                0x000000008002ce24                func_8002CE24_cn.NON_MATCHING
                0x000000008002ce24                func_8002CE24_cn
                0x000000008002ce60                func_8002CE60_cn.NON_MATCHING
                0x000000008002ce60                func_8002CE60_cn
 build/src/main_segment/graphic.o(.text)
 .text          0x000000008002cf80      0xa10 build/src/main_segment/graphic.o
                0x000000008002cf80                gfxInit
                0x000000008002cfb0                gfxproc
                0x000000008002d110                gfxproc_onRetrace
                0x000000008002d29c                func_8002B710
                0x000000008002d2b8                func_8002B728
                0x000000008002d2f0                func_8002B754
                0x000000008002d370                gfxCreateGraphicThread
                0x000000008002d3e4                func_8002B800
                0x000000008002d428                gfxTaskStart
                0x000000008002d5dc                F3RCPinitRtn
                0x000000008002d6dc                F3ClearFZRtn
                0x000000008002d818                S2RDPinitRtn
                0x000000008002d8a8                S2ClearCFBRtn
 build/src/main_segment/graphics/static.o(.text)
 .text          0x000000008002d990     0x13c0 build/src/main_segment/graphics/static.o
                0x000000008002d990                func_8002D990_cn.NON_MATCHING
                0x000000008002d990                func_8002D990_cn
                0x000000008002db48                load_TexPal
                0x000000008002db48                load_TexPal.NON_MATCHING
                0x000000008002dc0c                func_8002DC0C_cn
                0x000000008002dc0c                func_8002DC0C_cn.NON_MATCHING
                0x000000008002dcdc                func_8002DCDC_cn.NON_MATCHING
                0x000000008002dcdc                func_8002DCDC_cn
                0x000000008002de8c                func_8002DE8C_cn
                0x000000008002de8c                func_8002DE8C_cn.NON_MATCHING
                0x000000008002e03c                func_8002E03C_cn
                0x000000008002e03c                func_8002E03C_cn.NON_MATCHING
                0x000000008002e1bc                func_8002E1BC_cn.NON_MATCHING
                0x000000008002e1bc                func_8002E1BC_cn
                0x000000008002e36c                func_8002E36C_cn.NON_MATCHING
                0x000000008002e36c                func_8002E36C_cn
                0x000000008002e4c0                draw_Tex.NON_MATCHING
                0x000000008002e4c0                draw_Tex
                0x000000008002e5e8                func_8002E5E8_cn
                0x000000008002e5e8                func_8002E5E8_cn.NON_MATCHING
                0x000000008002e710                func_8002E710_cn.NON_MATCHING
                0x000000008002e710                func_8002E710_cn
                0x000000008002e968                func_8002E968_cn
                0x000000008002e968                func_8002E968_cn.NON_MATCHING
                0x000000008002eb24                func_8002EB24_cn
                0x000000008002eb24                func_8002EB24_cn.NON_MATCHING
 build/src/main_segment/audio/003520.o(.text)
 .text          0x000000008002ed50      0xbc0 build/src/main_segment/audio/003520.o
                0x000000008002ed50                func_8002D170.NON_MATCHING
                0x000000008002ed50                func_8002D170
                0x000000008002ef9c                func_8002D3B0
                0x000000008002f03c                func_8002D428
                0x000000008002f0d4                func_8002D4A4
                0x000000008002f138                func_8002D4F8
                0x000000008002f15c                func_8002D51C
                0x000000008002f1a4                func_8002D554
                0x000000008002f1ec                func_8002D58C
                0x000000008002f234                func_8002F234_cn
                0x000000008002f234                func_8002F234_cn.NON_MATCHING
                0x000000008002f27c                func_8002F27C_cn
                0x000000008002f27c                func_8002F27C_cn.NON_MATCHING
                0x000000008002f2c4                func_8002F2C4_cn.NON_MATCHING
                0x000000008002f2c4                func_8002F2C4_cn
                0x000000008002f30c                func_8002F30C_cn.NON_MATCHING
                0x000000008002f30c                func_8002F30C_cn
                0x000000008002f354                func_8002D6A4
                0x000000008002f3e4                func_8002D710
                0x000000008002f3f4                func_8002D720
                0x000000008002f44c                func_8002D768
                0x000000008002f4b8                func_8002D7C4
                0x000000008002f4d4                func_8002D7E0
                0x000000008002f514                func_8002D810
                0x000000008002f554                func_8002D840
                0x000000008002f594                func_8002D870
                0x000000008002f5d4                func_8002D8A0
                0x000000008002f614                func_8002D8D0
                0x000000008002f704                func_8002D984
                0x000000008002f78c                func_8002D9E4
                0x000000008002f80c                func_8002DA48
                0x000000008002f80c                func_8002DA48.NON_MATCHING
 build/src/main_segment/main1x.o(.text)
 .text          0x000000008002f910      0xe80 build/src/main_segment/main1x.o
                0x000000008002f910                main11
                0x000000008002fa24                adjust_story_ai.NON_MATCHING
                0x000000008002fa24                adjust_story_ai
                0x00000000800300b4                main12
 build/src/main_segment/vr_init.o(.text)
 .text          0x0000000080030790      0x300 build/src/main_segment/vr_init.o
                0x0000000080030790                sgenrand
                0x0000000080030814                genrand
 build/src/main_segment/aiset.o(.text)
 .text          0x0000000080030a90     0x7ff0 build/src/main_segment/aiset.o
                0x0000000080030a90                func_8002EB00
                0x0000000080030b0c                aifMakeBlkWork
                0x0000000080030d0c                aifMakeFlagSet
                0x0000000080030d24                aifGameInit
                0x0000000080030dd4                aifFirstInit
                0x0000000080031014                aifMake.NON_MATCHING
                0x0000000080031014                aifMake
                0x0000000080031230                aifMake2
                0x0000000080031230                aifMake2.NON_MATCHING
                0x00000000800313d4                func_800313D4_cn.NON_MATCHING
                0x00000000800313d4                func_800313D4_cn
                0x0000000080031a54                func_80031A54_cn
                0x0000000080031a54                func_80031A54_cn.NON_MATCHING
                0x0000000080031af0                func_80031AF0_cn.NON_MATCHING
                0x0000000080031af0                func_80031AF0_cn
                0x0000000080032008                func_80032008_cn.NON_MATCHING
                0x0000000080032008                func_80032008_cn
                0x00000000800329a0                func_800329A0_cn.NON_MATCHING
                0x00000000800329a0                func_800329A0_cn
                0x0000000080032a84                func_80032A84_cn
                0x0000000080032a84                func_80032A84_cn.NON_MATCHING
                0x0000000080033280                func_80033280_cn.NON_MATCHING
                0x0000000080033280                func_80033280_cn
                0x00000000800333bc                func_800333BC_cn.NON_MATCHING
                0x00000000800333bc                func_800333BC_cn
                0x00000000800334f4                func_800334F4_cn.NON_MATCHING
                0x00000000800334f4                func_800334F4_cn
                0x0000000080033578                func_80033578_cn
                0x0000000080033578                func_80033578_cn.NON_MATCHING
                0x00000000800335e0                func_800335E0_cn
                0x00000000800335e0                func_800335E0_cn.NON_MATCHING
                0x00000000800336a4                func_800336A4_cn.NON_MATCHING
                0x00000000800336a4                func_800336A4_cn
                0x0000000080033700                func_80033700_cn.NON_MATCHING
                0x0000000080033700                func_80033700_cn
                0x0000000080034824                func_80034824_cn.NON_MATCHING
                0x0000000080034824                func_80034824_cn
                0x00000000800357cc                func_800357CC_cn
                0x00000000800357cc                func_800357CC_cn.NON_MATCHING
                0x0000000080036558                func_80036558_cn.NON_MATCHING
                0x0000000080036558                func_80036558_cn
                0x0000000080036690                func_80034310
                0x0000000080036710                func_80036710_cn
                0x0000000080036710                func_80036710_cn.NON_MATCHING
                0x0000000080036bd4                func_80036BD4_cn.NON_MATCHING
                0x0000000080036bd4                func_80036BD4_cn
                0x0000000080036ee4                func_80036EE4_cn
                0x0000000080036ee4                func_80036EE4_cn.NON_MATCHING
                0x00000000800371b0                func_800371B0_cn.NON_MATCHING
                0x00000000800371b0                func_800371B0_cn
                0x00000000800372e8                func_800372E8_cn.NON_MATCHING
                0x00000000800372e8                func_800372E8_cn
                0x0000000080037598                func_80037598_cn.NON_MATCHING
                0x0000000080037598                func_80037598_cn
                0x00000000800376c8                func_800376C8_cn.NON_MATCHING
                0x00000000800376c8                func_800376C8_cn
                0x000000008003793c                func_8003793C_cn.NON_MATCHING
                0x000000008003793c                func_8003793C_cn
                0x0000000080037bbc                aifKeyOut
                0x0000000080037bbc                aifKeyOut.NON_MATCHING
                0x0000000080038190                func_80038190_cn.NON_MATCHING
                0x0000000080038190                func_80038190_cn
                0x0000000080038778                func_80038778_cn.NON_MATCHING
                0x0000000080038778                func_80038778_cn
                0x0000000080038a2c                aiCOM_MissTake
 build/src/main_segment/record.o(.text)
 .text          0x0000000080038a80     0x30d0 build/src/main_segment/record.o
                0x0000000080038a80                func_800365B0
                0x0000000080038a98                func_800365C8
                0x0000000080038b08                BitField_PutBit
                0x0000000080038b8c                BitField_GetBit
                0x0000000080038bf8                dm_init_config_save
                0x0000000080038c6c                func_8003678C
                0x0000000080038ce0                func_800367E0
                0x0000000080038cf0                func_800367F0
                0x0000000080038cfc                func_800367FC
                0x0000000080038d08                func_80036808
                0x0000000080038d18                dm_init_save_mem
                0x0000000080038f04                dm_init_system_mem
                0x0000000080038fcc                func_80038FCC_cn.NON_MATCHING
                0x0000000080038fcc                func_80038FCC_cn
                0x00000000800390d4                func_800390D4_cn
                0x00000000800390d4                func_800390D4_cn.NON_MATCHING
                0x0000000080039130                func_80039130_cn
                0x0000000080039130                func_80039130_cn.NON_MATCHING
                0x00000000800391b8                func_800391B8_cn
                0x00000000800391b8                func_800391B8_cn.NON_MATCHING
                0x0000000080039254                func_80039254_cn
                0x0000000080039254                func_80039254_cn.NON_MATCHING
                0x00000000800392b0                func_800392B0_cn
                0x00000000800392b0                func_800392B0_cn.NON_MATCHING
                0x000000008003930c                func_8003930C_cn
                0x000000008003930c                func_8003930C_cn.NON_MATCHING
                0x0000000080039368                func_80039368_cn
                0x0000000080039368                func_80039368_cn.NON_MATCHING
                0x00000000800393c4                func_800393C4_cn
                0x00000000800393c4                func_800393C4_cn.NON_MATCHING
                0x0000000080039420                func_80039420_cn.NON_MATCHING
                0x0000000080039420                func_80039420_cn
                0x0000000080039480                func_80039480_cn
                0x0000000080039480                func_80039480_cn.NON_MATCHING
                0x00000000800394dc                func_800394DC_cn
                0x00000000800394dc                func_800394DC_cn.NON_MATCHING
                0x00000000800395dc                func_800395DC_cn
                0x00000000800395dc                func_800395DC_cn.NON_MATCHING
                0x00000000800397f4                func_800397F4_cn
                0x00000000800397f4                func_800397F4_cn.NON_MATCHING
                0x0000000080039850                func_80039850_cn
                0x0000000080039850                func_80039850_cn.NON_MATCHING
                0x00000000800398ac                func_800398AC_cn
                0x00000000800398ac                func_800398AC_cn.NON_MATCHING
                0x0000000080039908                func_80039908_cn.NON_MATCHING
                0x0000000080039908                func_80039908_cn
                0x0000000080039964                func_80039964_cn.NON_MATCHING
                0x0000000080039964                func_80039964_cn
                0x00000000800399b0                func_800399B0_cn
                0x00000000800399b0                func_800399B0_cn.NON_MATCHING
                0x00000000800399fc                func_800399FC_cn
                0x00000000800399fc                func_800399FC_cn.NON_MATCHING
                0x0000000080039a48                func_80039A48_cn.NON_MATCHING
                0x0000000080039a48                func_80039A48_cn
                0x0000000080039a94                func_80039A94_cn
                0x0000000080039a94                func_80039A94_cn.NON_MATCHING
                0x0000000080039cf0                func_80039CF0_cn
                0x0000000080039cf0                func_80039CF0_cn.NON_MATCHING
                0x0000000080039d1c                func_80039D1C_cn.NON_MATCHING
                0x0000000080039d1c                func_80039D1C_cn
                0x0000000080039d48                func_80039D48_cn.NON_MATCHING
                0x0000000080039d48                func_80039D48_cn
                0x0000000080039d74                func_80039D74_cn
                0x0000000080039d74                func_80039D74_cn.NON_MATCHING
                0x0000000080039da0                func_80039DA0_cn
                0x0000000080039da0                func_80039DA0_cn.NON_MATCHING
                0x0000000080039dcc                func_80039DCC_cn
                0x0000000080039dcc                func_80039DCC_cn.NON_MATCHING
                0x0000000080039e38                func_80037808
                0x0000000080039f34                func_800378B0
                0x000000008003a034                func_80037950
                0x000000008003a0dc                func_800379D4
                0x000000008003a184                RecStory_Compress
                0x000000008003a2d8                RecStory_Extract
                0x000000008003a424                func_80037C7C
                0x000000008003a4f4                func_80037D40
                0x000000008003a5bc                func_80037DF0
                0x000000008003a68c                func_80037EB4
                0x000000008003a754                func_80037F64
                0x000000008003a850                func_80038038
                0x000000008003a93c                func_800380F0
                0x000000008003a9c0                func_80038168
                0x000000008003aa44                func_800381DC
                0x000000008003aac8                func_80038254
                0x000000008003ab4c                func_800382C8
                0x000000008003abd0                func_80038340
                0x000000008003ac54                func_800383B4
                0x000000008003acd8                func_8003842C
                0x000000008003ad5c                func_800384A0
                0x000000008003ade0                func_80038518
                0x000000008003ae64                RecAll_Compress
                0x000000008003b044                RecAll_Extract
                0x000000008003b278                EepRom_Init
                0x000000008003b2f4                EepRom_InitFirst
                0x000000008003b390                EepRom_InitVars
                0x000000008003b410                func_80038938
                0x000000008003b488                EepRom_WriteDif.NON_MATCHING
                0x000000008003b488                EepRom_WriteDif
                0x000000008003b5a0                EepRom_ReadAll
                0x000000008003b664                EepRom_WriteAll
                0x000000008003b774                EepRom_DumpErrMes
                0x000000008003b77c                EepRom_DumpDataSize
                0x000000008003b784                RecWritingMsg_init
                0x000000008003b7f8                RecWritingMsg_setStr
                0x000000008003b864                RecWritingMsg_calc
                0x000000008003b8c0                RecWritingMsg_draw
                0x000000008003ba50                RecWritingMsg_start
                0x000000008003ba58                RecWritingMsg_end
                0x000000008003ba64                RecWritingMsg_isEnd
                0x000000008003ba78                RecWritingMsg_setPos
                0x000000008003ba84                setSleepTimer
 build/src/main_segment/020D10_cn.o(.text)
 .text          0x000000008003bb50     0x1dd0 build/src/main_segment/020D10_cn.o
                0x000000008003bb50                func_8003BB50_cn
                0x000000008003bb50                func_8003BB50_cn.NON_MATCHING
                0x000000008003bcd8                func_8003BCD8_cn
                0x000000008003bcd8                func_8003BCD8_cn.NON_MATCHING
                0x000000008003c0a4                func_8003C0A4_cn.NON_MATCHING
                0x000000008003c0a4                func_8003C0A4_cn
                0x000000008003c168                func_8003C168_cn.NON_MATCHING
                0x000000008003c168                func_8003C168_cn
                0x000000008003c414                func_8003C414_cn
                0x000000008003c414                func_8003C414_cn.NON_MATCHING
                0x000000008003c978                func_8003C978_cn
                0x000000008003c978                func_8003C978_cn.NON_MATCHING
                0x000000008003caac                func_8003CAAC_cn
                0x000000008003caac                func_8003CAAC_cn.NON_MATCHING
                0x000000008003cc74                func_8003CC74_cn
                0x000000008003cc74                func_8003CC74_cn.NON_MATCHING
                0x000000008003ce2c                func_8003CE2C_cn.NON_MATCHING
                0x000000008003ce2c                func_8003CE2C_cn
                0x000000008003d098                func_8003D098_cn
                0x000000008003d098                func_8003D098_cn.NON_MATCHING
                0x000000008003d154                func_8003D154_cn
                0x000000008003d154                func_8003D154_cn.NON_MATCHING
                0x000000008003d548                func_8003D548_cn
                0x000000008003d548                func_8003D548_cn.NON_MATCHING
                0x000000008003d718                func_8003D718_cn.NON_MATCHING
                0x000000008003d718                func_8003D718_cn
                0x000000008003d7d4                func_8003D7D4_cn.NON_MATCHING
                0x000000008003d7d4                func_8003D7D4_cn
                0x000000008003d840                func_8003D840_cn
                0x000000008003d840                func_8003D840_cn.NON_MATCHING
                0x000000008003d8b0                func_8003D8B0_cn
                0x000000008003d8b0                func_8003D8B0_cn.NON_MATCHING
 build/src/main_segment/game_etc.o(.text)
 .text          0x000000008003d920     0x2700 build/src/main_segment/game_etc.o
                0x000000008003d920                initEtcWork.NON_MATCHING
                0x000000008003d920                initEtcWork
                0x000000008003dc5c                init_pause_disp
                0x000000008003dd28                disp_logo_setup
                0x000000008003ddcc                disp_count_logo
                0x000000008003dec4                disp_clear_logo
                0x000000008003e06c                disp_allclear_logo
                0x000000008003e214                disp_win_logo
                0x000000008003e370                disp_lose_logo
                0x000000008003e4cc                disp_draw_logo
                0x000000008003e628                disp_pause_logo.NON_MATCHING
                0x000000008003e628                disp_pause_logo
                0x000000008003eb68                etc_continue_logo
                0x000000008003f038                disp_continue_logo
                0x000000008003f120                disp_continue_logo_score
                0x000000008003f1dc                disp_gameover_logo
                0x000000008003f30c                disp_timeover_logo
                0x000000008003f43c                disp_retire_logo
                0x000000008003f568                disp_timestop_logo
                0x000000008003f820                add_attack_effect
                0x000000008003f90c                disp_attack_effect.NON_MATCHING
                0x000000008003f90c                disp_attack_effect
 build/src/main_segment/screen_print/printer.o(.text)
 .text          0x0000000080040020       0xa0 build/src/main_segment/screen_print/printer.o
                0x0000000080040020                Printer_Open
                0x0000000080040060                Printer_Close
                0x000000008004008c                Printer_PutChars
 build/src/main_segment/screen_print/debug_print.o(.text)
 .text          0x00000000800400c0      0x560 build/src/main_segment/screen_print/debug_print.o
                0x00000000800400c0                DebugPrint_8003E1E0
                0x00000000800400e8                DebugPrint_SetColor
                0x0000000080040158                DebugPrint_8003E278
                0x00000000800402ac                DebugPrint_DrawCharacter
                0x00000000800402f8                DebugPrint_CallbackOpen
                0x0000000080040388                DebugPrint_CallbackClose
                0x0000000080040390                DebugPrint_CallbackPutChars
                0x000000008004058c                DebugPrint_Open
                0x00000000800405d4                DebugPrint_Close
                0x0000000080040604                DebugPrint_Printf
 build/src/main_segment/debug_menu.o(.text)
 .text          0x0000000080040620     0x28f0 build/src/main_segment/debug_menu.o
                0x0000000080040620                DebugMenu_8003E730
                0x00000000800407c4                DebugMenu_8003E8C8
                0x0000000080040adc                DebugMenu_8003EB20
                0x0000000080040ca8                DebugMenu_8003ECDC
                0x0000000080040eac                DebugMenu_8003EEA4
                0x0000000080041064                DebugMenu_8003F050
                0x0000000080041444                DebugMenu_8003F360
                0x000000008004157c                DebugMenu_8003F474
                0x000000008004168c                DebugMenu_8003F568
                0x0000000080041918                DebugMenu_8003F7DC
                0x0000000080041cf8                DebugMenu_8003FB00
                0x0000000080041fc0                DebugMenu_8003FD0C
                0x000000008004206c                DebugMenu_8003FD88
                0x00000000800421e0                DebugMenu_8003FEE4
                0x0000000080042478                DebugMenu_8004015C
                0x0000000080042598                DebugMenu_80040238
                0x0000000080042980                DebugMenu_80040578
                0x0000000080042a58                DebugMenu_80040624
                0x0000000080042e78                DebugMenu_800409A0
                0x0000000080042edc                DebugMenu_800409DC
 build/src/main_segment/028820.o(.text)
 .text          0x0000000080042f10      0x1f0 build/src/main_segment/028820.o
                0x0000000080042f10                func_80040A00
                0x0000000080042f74                func_80040A58
                0x0000000080042f84                func_80040A64
                0x0000000080043024                func_80040AE4
                0x000000008004305c                func_80040B10
                0x00000000800430f0                func_80040BA4
 build/src/main_segment/tex_func.o(.text)
 .text          0x0000000080043100     0x5560 build/src/main_segment/tex_func.o
                0x0000000080043100                gfxSetScissor.NON_MATCHING
                0x0000000080043100                gfxSetScissor
                0x0000000080043274                func_80043274_cn
                0x0000000080043274                func_80043274_cn.NON_MATCHING
                0x0000000080043368                FillRectRGBA
                0x0000000080043444                func_80043444_cn
                0x0000000080043444                func_80043444_cn.NON_MATCHING
                0x0000000080043634                func_80043634_cn
                0x0000000080043634                func_80043634_cn.NON_MATCHING
                0x000000008004383c                func_8004383C_cn.NON_MATCHING
                0x000000008004383c                func_8004383C_cn
                0x00000000800439b0                func_800439B0_cn.NON_MATCHING
                0x00000000800439b0                func_800439B0_cn
                0x0000000080043ba8                func_80043BA8_cn
                0x0000000080043ba8                func_80043BA8_cn.NON_MATCHING
                0x0000000080043d1c                func_80043D1C_cn.NON_MATCHING
                0x0000000080043d1c                func_80043D1C_cn
                0x0000000080043f14                func_80043F14_cn.NON_MATCHING
                0x0000000080043f14                func_80043F14_cn
                0x0000000080043fe0                StretchTexBlock
                0x0000000080044360                StretchTexBlock_ScisRect
                0x00000000800444d4                StretchAlphaTexBlock_LoadColorTex
                0x00000000800446bc                StretchAlphaTexBlock_LoadAlphaTex
                0x00000000800448c4                StretchAlphaTexBlock
                0x00000000800449dc                StretchTexBlock4_LoadTex
                0x0000000080044bd4                StretchTexBlock4
                0x0000000080044d8c                func_80044D8C_cn.NON_MATCHING
                0x0000000080044d8c                func_80044D8C_cn
                0x0000000080044f74                StretchTexBlock8
                0x0000000080044f74                StretchTexBlock8.NON_MATCHING
                0x000000008004512c                func_8004512C_cn.NON_MATCHING
                0x000000008004512c                func_8004512C_cn
                0x0000000080045314                StretchTexBlock16.NON_MATCHING
                0x0000000080045314                StretchTexBlock16
                0x0000000080045408                StretchTexBlock4i_LoadTex
                0x0000000080045600                StretchTexBlock4i
                0x00000000800456f4                func_800456F4_cn
                0x00000000800456f4                func_800456F4_cn.NON_MATCHING
                0x00000000800458dc                func_800458DC_cn.NON_MATCHING
                0x00000000800458dc                func_800458DC_cn
                0x00000000800459d0                StretchTexTile
                0x0000000080045d6c                StretchTexTile_ScisRect
                0x0000000080045ee0                RectTexTile_ScisRect
                0x0000000080046030                StretchAlphaTexTile_LoadColorTex
                0x000000008004621c                StretchAlphaTexTile_LoadAlphaTex
                0x0000000080046420                StretchAlphaTexTile
                0x000000008004656c                RectAlphaTexTile
                0x00000000800466bc                func_800466BC_cn
                0x00000000800466bc                func_800466BC_cn.NON_MATCHING
                0x00000000800468b0                func_800468B0_cn
                0x00000000800468b0                func_800468B0_cn.NON_MATCHING
                0x0000000080046a94                StretchTexTile8_LoadTex
                0x0000000080046c78                StretchTexTile8
                0x0000000080046e5c                func_80046E5C_cn.NON_MATCHING
                0x0000000080046e5c                func_80046E5C_cn
                0x0000000080047044                func_80047044_cn
                0x0000000080047044                func_80047044_cn.NON_MATCHING
                0x0000000080047230                StretchTexTile16
                0x0000000080047230                StretchTexTile16.NON_MATCHING
                0x0000000080047350                func_80047350_cn.NON_MATCHING
                0x0000000080047350                func_80047350_cn
                0x0000000080047544                func_80047544_cn
                0x0000000080047544                func_80047544_cn.NON_MATCHING
                0x0000000080047664                func_80047664_cn
                0x0000000080047664                func_80047664_cn.NON_MATCHING
                0x0000000080047788                tiMappingAddr.NON_MATCHING
                0x0000000080047788                tiMappingAddr
                0x00000000800477f8                tiLoadTexData
                0x00000000800477f8                tiLoadTexData.NON_MATCHING
                0x0000000080047894                func_80047894_cn
                0x0000000080047894                func_80047894_cn.NON_MATCHING
                0x000000008004795c                func_8004795C_cn.NON_MATCHING
                0x000000008004795c                func_8004795C_cn
                0x0000000080047a64                tiStretchTexBlock
                0x0000000080047bc0                func_80047BC0_cn
                0x0000000080047bc0                func_80047BC0_cn.NON_MATCHING
                0x0000000080047d6c                func_80047D6C_cn
                0x0000000080047d6c                func_80047D6C_cn.NON_MATCHING
                0x0000000080047f90                func_80047F90_cn
                0x0000000080047f90                func_80047F90_cn.NON_MATCHING
                0x0000000080048174                func_80048174_cn.NON_MATCHING
                0x0000000080048174                func_80048174_cn
                0x0000000080048324                func_80048324_cn
                0x0000000080048324                func_80048324_cn.NON_MATCHING
 build/src/main_segment/main_menu.o(.text)
 .text          0x0000000080048660    0x193d0 build/src/main_segment/main_menu.o
                0x0000000080048660                func_80048660_cn
                0x0000000080048660                func_80048660_cn.NON_MATCHING
                0x0000000080048698                func_80048698_cn
                0x0000000080048698                func_80048698_cn.NON_MATCHING
                0x00000000800486d4                func_800486D4_cn
                0x00000000800486d4                func_800486D4_cn.NON_MATCHING
                0x000000008004872c                func_8004872C_cn
                0x000000008004872c                func_8004872C_cn.NON_MATCHING
                0x00000000800487b0                func_800487B0_cn.NON_MATCHING
                0x00000000800487b0                func_800487B0_cn
                0x0000000080048854                func_80048854_cn
                0x0000000080048854                func_80048854_cn.NON_MATCHING
                0x000000008004892c                func_8004892C_cn.NON_MATCHING
                0x000000008004892c                func_8004892C_cn
                0x00000000800489b0                func_800489B0_cn
                0x00000000800489b0                func_800489B0_cn.NON_MATCHING
                0x0000000080048a54                func_80048A54_cn
                0x0000000080048a54                func_80048A54_cn.NON_MATCHING
                0x0000000080048ad8                func_80048AD8_cn
                0x0000000080048ad8                func_80048AD8_cn.NON_MATCHING
                0x0000000080048b7c                func_80048B7C_cn.NON_MATCHING
                0x0000000080048b7c                func_80048B7C_cn
                0x0000000080048c54                func_80048C54_cn
                0x0000000080048c54                func_80048C54_cn.NON_MATCHING
                0x0000000080048d88                func_80048D88_cn.NON_MATCHING
                0x0000000080048d88                func_80048D88_cn
                0x0000000080048e58                func_80048E58_cn
                0x0000000080048e58                func_80048E58_cn.NON_MATCHING
                0x0000000080048f20                func_80048F20_cn
                0x0000000080048f20                func_80048F20_cn.NON_MATCHING
                0x0000000080048f78                func_80048F78_cn
                0x0000000080048f78                func_80048F78_cn.NON_MATCHING
                0x0000000080048fec                func_80048FEC_cn
                0x0000000080048fec                func_80048FEC_cn.NON_MATCHING
                0x0000000080049034                func_80049034_cn
                0x0000000080049034                func_80049034_cn.NON_MATCHING
                0x000000008004907c                func_8004907C_cn
                0x000000008004907c                func_8004907C_cn.NON_MATCHING
                0x00000000800490c4                func_800490C4_cn
                0x00000000800490c4                func_800490C4_cn.NON_MATCHING
                0x00000000800490d0                func_800490D0_cn
                0x00000000800490d0                func_800490D0_cn.NON_MATCHING
                0x00000000800490dc                func_800490DC_cn.NON_MATCHING
                0x00000000800490dc                func_800490DC_cn
                0x00000000800490e8                func_800490E8_cn.NON_MATCHING
                0x00000000800490e8                func_800490E8_cn
                0x00000000800490f4                func_800490F4_cn
                0x00000000800490f4                func_800490F4_cn.NON_MATCHING
                0x000000008004910c                func_8004910C_cn
                0x000000008004910c                func_8004910C_cn.NON_MATCHING
                0x0000000080049124                func_80049124_cn.NON_MATCHING
                0x0000000080049124                func_80049124_cn
                0x00000000800491a4                func_800491A4_cn
                0x00000000800491a4                func_800491A4_cn.NON_MATCHING
                0x0000000080049274                func_80049274_cn.NON_MATCHING
                0x0000000080049274                func_80049274_cn
                0x00000000800492f4                func_800492F4_cn.NON_MATCHING
                0x00000000800492f4                func_800492F4_cn
                0x000000008004947c                func_8004947C_cn.NON_MATCHING
                0x000000008004947c                func_8004947C_cn
                0x0000000080049528                func_80049528_cn.NON_MATCHING
                0x0000000080049528                func_80049528_cn
                0x0000000080049690                func_80049690_cn
                0x0000000080049690                func_80049690_cn.NON_MATCHING
                0x0000000080049754                func_80049754_cn
                0x0000000080049754                func_80049754_cn.NON_MATCHING
                0x0000000080049988                func_80049988_cn
                0x0000000080049988                func_80049988_cn.NON_MATCHING
                0x0000000080049ab8                func_80049AB8_cn
                0x0000000080049ab8                func_80049AB8_cn.NON_MATCHING
                0x0000000080049b8c                func_80049B8C_cn
                0x0000000080049b8c                func_80049B8C_cn.NON_MATCHING
                0x0000000080049d00                func_80049D00_cn.NON_MATCHING
                0x0000000080049d00                func_80049D00_cn
                0x0000000080049e68                func_80049E68_cn
                0x0000000080049e68                func_80049E68_cn.NON_MATCHING
                0x0000000080049f38                func_80049F38_cn.NON_MATCHING
                0x0000000080049f38                func_80049F38_cn
                0x0000000080049fd4                func_80049FD4_cn
                0x0000000080049fd4                func_80049FD4_cn.NON_MATCHING
                0x000000008004a008                func_8004A008_cn
                0x000000008004a008                func_8004A008_cn.NON_MATCHING
                0x000000008004a19c                func_8004A19C_cn.NON_MATCHING
                0x000000008004a19c                func_8004A19C_cn
                0x000000008004a240                func_8004A240_cn
                0x000000008004a240                func_8004A240_cn.NON_MATCHING
                0x000000008004a2bc                func_8004A2BC_cn
                0x000000008004a2bc                func_8004A2BC_cn.NON_MATCHING
                0x000000008004a498                func_8004A498_cn.NON_MATCHING
                0x000000008004a498                func_8004A498_cn
                0x000000008004a4ec                func_8004A4EC_cn
                0x000000008004a4ec                func_8004A4EC_cn.NON_MATCHING
                0x000000008004a5d0                func_8004A5D0_cn
                0x000000008004a5d0                func_8004A5D0_cn.NON_MATCHING
                0x000000008004af9c                func_8004AF9C_cn
                0x000000008004af9c                func_8004AF9C_cn.NON_MATCHING
                0x000000008004b1c8                func_8004B1C8_cn.NON_MATCHING
                0x000000008004b1c8                func_8004B1C8_cn
                0x000000008004b230                func_8004B230_cn
                0x000000008004b230                func_8004B230_cn.NON_MATCHING
                0x000000008004b294                func_8004B294_cn.NON_MATCHING
                0x000000008004b294                func_8004B294_cn
                0x000000008004b2f0                func_8004B2F0_cn.NON_MATCHING
                0x000000008004b2f0                func_8004B2F0_cn
                0x000000008004b7b4                func_8004B7B4_cn
                0x000000008004b7b4                func_8004B7B4_cn.NON_MATCHING
                0x000000008004b88c                func_8004B88C_cn.NON_MATCHING
                0x000000008004b88c                func_8004B88C_cn
                0x000000008004b928                func_8004B928_cn
                0x000000008004b928                func_8004B928_cn.NON_MATCHING
                0x000000008004b9b4                func_8004B9B4_cn.NON_MATCHING
                0x000000008004b9b4                func_8004B9B4_cn
                0x000000008004bc10                func_8004BC10_cn.NON_MATCHING
                0x000000008004bc10                func_8004BC10_cn
                0x000000008004bcb4                func_8004BCB4_cn.NON_MATCHING
                0x000000008004bcb4                func_8004BCB4_cn
                0x000000008004bd1c                func_8004BD1C_cn
                0x000000008004bd1c                func_8004BD1C_cn.NON_MATCHING
                0x000000008004bd64                func_8004BD64_cn
                0x000000008004bd64                func_8004BD64_cn.NON_MATCHING
                0x000000008004bd90                func_8004BD90_cn.NON_MATCHING
                0x000000008004bd90                func_8004BD90_cn
                0x000000008004bf44                func_8004BF44_cn
                0x000000008004bf44                func_8004BF44_cn.NON_MATCHING
                0x000000008004c008                func_8004C008_cn
                0x000000008004c008                func_8004C008_cn.NON_MATCHING
                0x000000008004c0ac                func_8004C0AC_cn.NON_MATCHING
                0x000000008004c0ac                func_8004C0AC_cn
                0x000000008004c304                func_8004C304_cn.NON_MATCHING
                0x000000008004c304                func_8004C304_cn
                0x000000008004c34c                func_8004C34C_cn.NON_MATCHING
                0x000000008004c34c                func_8004C34C_cn
                0x000000008004c378                func_8004C378_cn
                0x000000008004c378                func_8004C378_cn.NON_MATCHING
                0x000000008004c538                func_8004970C
                0x000000008004c5a8                func_8004C5A8_cn.NON_MATCHING
                0x000000008004c5a8                func_8004C5A8_cn
                0x000000008004c648                func_8004C648_cn
                0x000000008004c648                func_8004C648_cn.NON_MATCHING
                0x000000008004c738                func_8004C738_cn
                0x000000008004c738                func_8004C738_cn.NON_MATCHING
                0x000000008004c778                func_8004C778_cn
                0x000000008004c778                func_8004C778_cn.NON_MATCHING
                0x000000008004c7a4                func_8004C7A4_cn
                0x000000008004c7a4                func_8004C7A4_cn.NON_MATCHING
                0x000000008004c960                func_8004C960_cn.NON_MATCHING
                0x000000008004c960                func_8004C960_cn
                0x000000008004cbb4                func_8004CBB4_cn.NON_MATCHING
                0x000000008004cbb4                func_8004CBB4_cn
                0x000000008004cc50                func_8004CC50_cn
                0x000000008004cc50                func_8004CC50_cn.NON_MATCHING
                0x000000008004ce4c                func_8004CE4C_cn
                0x000000008004ce4c                func_8004CE4C_cn.NON_MATCHING
                0x000000008004d174                func_8004D174_cn.NON_MATCHING
                0x000000008004d174                func_8004D174_cn
                0x000000008004d218                func_8004D218_cn
                0x000000008004d218                func_8004D218_cn.NON_MATCHING
                0x000000008004d280                func_8004D280_cn.NON_MATCHING
                0x000000008004d280                func_8004D280_cn
                0x000000008004d488                func_8004D488_cn.NON_MATCHING
                0x000000008004d488                func_8004D488_cn
                0x000000008004d588                func_8004D588_cn.NON_MATCHING
                0x000000008004d588                func_8004D588_cn
                0x000000008004d760                func_8004D760_cn.NON_MATCHING
                0x000000008004d760                func_8004D760_cn
                0x000000008004d874                func_8004D874_cn.NON_MATCHING
                0x000000008004d874                func_8004D874_cn
                0x000000008004d918                func_8004D918_cn.NON_MATCHING
                0x000000008004d918                func_8004D918_cn
                0x000000008004d980                func_8004D980_cn
                0x000000008004d980                func_8004D980_cn.NON_MATCHING
                0x000000008004da14                func_8004DA14_cn.NON_MATCHING
                0x000000008004da14                func_8004DA14_cn
                0x000000008004daa0                func_8004DAA0_cn
                0x000000008004daa0                func_8004DAA0_cn.NON_MATCHING
                0x000000008004de20                func_8004DE20_cn.NON_MATCHING
                0x000000008004de20                func_8004DE20_cn
                0x000000008004de8c                func_8004DE8C_cn.NON_MATCHING
                0x000000008004de8c                func_8004DE8C_cn
                0x000000008004deb8                func_8004DEB8_cn
                0x000000008004deb8                func_8004DEB8_cn.NON_MATCHING
                0x000000008004dee0                func_8004DEE0_cn
                0x000000008004dee0                func_8004DEE0_cn.NON_MATCHING
                0x000000008004df44                func_8004DF44_cn.NON_MATCHING
                0x000000008004df44                func_8004DF44_cn
                0x000000008004dfa0                func_8004DFA0_cn.NON_MATCHING
                0x000000008004dfa0                func_8004DFA0_cn
                0x000000008004e32c                func_8004E32C_cn.NON_MATCHING
                0x000000008004e32c                func_8004E32C_cn
                0x000000008004e4f0                func_8004E4F0_cn.NON_MATCHING
                0x000000008004e4f0                func_8004E4F0_cn
                0x000000008004e54c                func_8004E54C_cn
                0x000000008004e54c                func_8004E54C_cn.NON_MATCHING
                0x000000008004e6dc                func_8004E6DC_cn
                0x000000008004e6dc                func_8004E6DC_cn.NON_MATCHING
                0x000000008004e714                func_8004E714_cn.NON_MATCHING
                0x000000008004e714                func_8004E714_cn
                0x000000008004e7cc                func_8004E7CC_cn
                0x000000008004e7cc                func_8004E7CC_cn.NON_MATCHING
                0x000000008004eae4                func_8004EAE4_cn.NON_MATCHING
                0x000000008004eae4                func_8004EAE4_cn
                0x000000008004eb38                func_8004EB38_cn
                0x000000008004eb38                func_8004EB38_cn.NON_MATCHING
                0x000000008004ec80                func_8004EC80_cn
                0x000000008004ec80                func_8004EC80_cn.NON_MATCHING
                0x000000008004ed54                func_8004ED54_cn
                0x000000008004ed54                func_8004ED54_cn.NON_MATCHING
                0x000000008004ede0                func_8004EDE0_cn.NON_MATCHING
                0x000000008004ede0                func_8004EDE0_cn
                0x000000008004ef48                func_8004EF48_cn.NON_MATCHING
                0x000000008004ef48                func_8004EF48_cn
                0x000000008004ef9c                func_8004EF9C_cn.NON_MATCHING
                0x000000008004ef9c                func_8004EF9C_cn
                0x000000008004f080                func_8004F080_cn.NON_MATCHING
                0x000000008004f080                func_8004F080_cn
                0x000000008004f374                func_8004F374_cn.NON_MATCHING
                0x000000008004f374                func_8004F374_cn
                0x000000008004f3d0                func_8004F3D0_cn
                0x000000008004f3d0                func_8004F3D0_cn.NON_MATCHING
                0x000000008004f79c                func_8004F79C_cn
                0x000000008004f79c                func_8004F79C_cn.NON_MATCHING
                0x000000008004f888                func_8004F888_cn
                0x000000008004f888                func_8004F888_cn.NON_MATCHING
                0x000000008004fad4                func_8004FAD4_cn
                0x000000008004fad4                func_8004FAD4_cn.NON_MATCHING
                0x000000008004ff18                func_8004FF18_cn
                0x000000008004ff18                func_8004FF18_cn.NON_MATCHING
                0x000000008004ff6c                func_8004FF6C_cn
                0x000000008004ff6c                func_8004FF6C_cn.NON_MATCHING
                0x00000000800500b0                func_800500B0_cn.NON_MATCHING
                0x00000000800500b0                func_800500B0_cn
                0x0000000080050180                func_80050180_cn
                0x0000000080050180                func_80050180_cn.NON_MATCHING
                0x0000000080050224                func_80050224_cn
                0x0000000080050224                func_80050224_cn.NON_MATCHING
                0x00000000800504bc                func_800504BC_cn
                0x00000000800504bc                func_800504BC_cn.NON_MATCHING
                0x0000000080050510                func_80050510_cn.NON_MATCHING
                0x0000000080050510                func_80050510_cn
                0x0000000080050670                func_80050670_cn.NON_MATCHING
                0x0000000080050670                func_80050670_cn
                0x0000000080050814                func_80050814_cn
                0x0000000080050814                func_80050814_cn.NON_MATCHING
                0x00000000800508f8                func_800508F8_cn.NON_MATCHING
                0x00000000800508f8                func_800508F8_cn
                0x0000000080050b48                func_80050B48_cn.NON_MATCHING
                0x0000000080050b48                func_80050B48_cn
                0x0000000080050ba0                func_80050BA0_cn
                0x0000000080050ba0                func_80050BA0_cn.NON_MATCHING
                0x00000000800510a8                func_800510A8_cn
                0x00000000800510a8                func_800510A8_cn.NON_MATCHING
                0x00000000800510f8                func_800510F8_cn
                0x00000000800510f8                func_800510F8_cn.NON_MATCHING
                0x00000000800511f0                func_800511F0_cn.NON_MATCHING
                0x00000000800511f0                func_800511F0_cn
                0x0000000080051440                func_80051440_cn
                0x0000000080051440                func_80051440_cn.NON_MATCHING
                0x00000000800517c0                func_800517C0_cn.NON_MATCHING
                0x00000000800517c0                func_800517C0_cn
                0x0000000080051e48                func_80051E48_cn.NON_MATCHING
                0x0000000080051e48                func_80051E48_cn
                0x0000000080051e9c                func_80051E9C_cn
                0x0000000080051e9c                func_80051E9C_cn.NON_MATCHING
                0x0000000080051eec                func_80051EEC_cn.NON_MATCHING
                0x0000000080051eec                func_80051EEC_cn
                0x0000000080052178                func_80052178_cn
                0x0000000080052178                func_80052178_cn.NON_MATCHING
                0x0000000080052420                func_80052420_cn
                0x0000000080052420                func_80052420_cn.NON_MATCHING
                0x00000000800525f8                func_800525F8_cn
                0x00000000800525f8                func_800525F8_cn.NON_MATCHING
                0x0000000080052944                menuMain_setMsgStr
                0x0000000080052b94                func_80052B94_cn.NON_MATCHING
                0x0000000080052b94                func_80052B94_cn
                0x0000000080052cfc                func_80052CFC_cn
                0x0000000080052cfc                func_80052CFC_cn.NON_MATCHING
                0x0000000080053228                func_80053228_cn
                0x0000000080053228                func_80053228_cn.NON_MATCHING
                0x00000000800532bc                func_800532BC_cn
                0x00000000800532bc                func_800532BC_cn.NON_MATCHING
                0x00000000800532e4                func_800532E4_cn.NON_MATCHING
                0x00000000800532e4                func_800532E4_cn
                0x0000000080054ab8                func_80054AB8_cn
                0x0000000080054ab8                func_80054AB8_cn.NON_MATCHING
                0x0000000080054e34                func_80054E34_cn.NON_MATCHING
                0x0000000080054e34                func_80054E34_cn
                0x00000000800556ac                func_800556AC_cn
                0x00000000800556ac                func_800556AC_cn.NON_MATCHING
                0x0000000080055888                func_80055888_cn.NON_MATCHING
                0x0000000080055888                func_80055888_cn
                0x000000008005591c                func_8005591C_cn.NON_MATCHING
                0x000000008005591c                func_8005591C_cn
                0x0000000080055970                func_80055970_cn
                0x0000000080055970                func_80055970_cn.NON_MATCHING
                0x00000000800559f8                func_800559F8_cn.NON_MATCHING
                0x00000000800559f8                func_800559F8_cn
                0x0000000080055f30                func_80055F30_cn
                0x0000000080055f30                func_80055F30_cn.NON_MATCHING
                0x0000000080055fb8                func_80055FB8_cn
                0x0000000080055fb8                func_80055FB8_cn.NON_MATCHING
                0x0000000080055fd8                func_80055FD8_cn.NON_MATCHING
                0x0000000080055fd8                func_80055FD8_cn
                0x0000000080056024                func_80056024_cn.NON_MATCHING
                0x0000000080056024                func_80056024_cn
                0x000000008005653c                func_8005653C_cn.NON_MATCHING
                0x000000008005653c                func_8005653C_cn
                0x0000000080056a70                func_80056A70_cn.NON_MATCHING
                0x0000000080056a70                func_80056A70_cn
                0x000000008005734c                func_8005734C_cn
                0x000000008005734c                func_8005734C_cn.NON_MATCHING
                0x00000000800573a0                func_800573A0_cn
                0x00000000800573a0                func_800573A0_cn.NON_MATCHING
                0x000000008005785c                func_8005785C_cn
                0x000000008005785c                func_8005785C_cn.NON_MATCHING
                0x00000000800578e4                func_800578E4_cn.NON_MATCHING
                0x00000000800578e4                func_800578E4_cn
                0x0000000080057ca8                func_80057CA8_cn.NON_MATCHING
                0x0000000080057ca8                func_80057CA8_cn
                0x0000000080058054                func_80058054_cn.NON_MATCHING
                0x0000000080058054                func_80058054_cn
                0x00000000800584e8                func_800584E8_cn
                0x00000000800584e8                func_800584E8_cn.NON_MATCHING
                0x000000008005853c                func_8005853C_cn.NON_MATCHING
                0x000000008005853c                func_8005853C_cn
                0x00000000800589e0                func_800589E0_cn.NON_MATCHING
                0x00000000800589e0                func_800589E0_cn
                0x0000000080058a3c                func_80058A3C_cn
                0x0000000080058a3c                func_80058A3C_cn.NON_MATCHING
                0x0000000080058ab8                func_80058AB8_cn
                0x0000000080058ab8                func_80058AB8_cn.NON_MATCHING
                0x0000000080058e0c                func_80058E0C_cn
                0x0000000080058e0c                func_80058E0C_cn.NON_MATCHING
                0x0000000080058f40                func_80058F40_cn
                0x0000000080058f40                func_80058F40_cn.NON_MATCHING
                0x0000000080059078                func_80059078_cn
                0x0000000080059078                func_80059078_cn.NON_MATCHING
                0x00000000800593c0                func_800593C0_cn.NON_MATCHING
                0x00000000800593c0                func_800593C0_cn
                0x00000000800596c4                func_800596C4_cn.NON_MATCHING
                0x00000000800596c4                func_800596C4_cn
                0x0000000080059ab0                func_80059AB0_cn.NON_MATCHING
                0x0000000080059ab0                func_80059AB0_cn
                0x0000000080059bc4                func_80059BC4_cn.NON_MATCHING
                0x0000000080059bc4                func_80059BC4_cn
                0x000000008005a208                func_8005A208_cn.NON_MATCHING
                0x000000008005a208                func_8005A208_cn
                0x000000008005a29c                func_8005A29C_cn.NON_MATCHING
                0x000000008005a29c                func_8005A29C_cn
                0x000000008005a310                func_8005A310_cn.NON_MATCHING
                0x000000008005a310                func_8005A310_cn
                0x000000008005a3c4                func_8005A3C4_cn
                0x000000008005a3c4                func_8005A3C4_cn.NON_MATCHING
                0x000000008005a478                func_8005A478_cn
                0x000000008005a478                func_8005A478_cn.NON_MATCHING
                0x000000008005a77c                func_8005A77C_cn
                0x000000008005a77c                func_8005A77C_cn.NON_MATCHING
                0x000000008005a8e4                func_8005A8E4_cn.NON_MATCHING
                0x000000008005a8e4                func_8005A8E4_cn
                0x000000008005af08                func_8005AF08_cn.NON_MATCHING
                0x000000008005af08                func_8005AF08_cn
                0x000000008005b044                func_8005B044_cn
                0x000000008005b044                func_8005B044_cn.NON_MATCHING
                0x000000008005b1b4                func_8005B1B4_cn.NON_MATCHING
                0x000000008005b1b4                func_8005B1B4_cn
                0x000000008005b208                func_8005B208_cn
                0x000000008005b208                func_8005B208_cn.NON_MATCHING
                0x000000008005b56c                func_8005B56C_cn
                0x000000008005b56c                func_8005B56C_cn.NON_MATCHING
                0x000000008005b594                func_8005B594_cn.NON_MATCHING
                0x000000008005b594                func_8005B594_cn
                0x000000008005bdd0                func_8005BDD0_cn
                0x000000008005bdd0                func_8005BDD0_cn.NON_MATCHING
                0x000000008005bfa4                func_8005BFA4_cn.NON_MATCHING
                0x000000008005bfa4                func_8005BFA4_cn
                0x000000008005c348                func_8005C348_cn
                0x000000008005c348                func_8005C348_cn.NON_MATCHING
                0x000000008005c380                func_8005C380_cn.NON_MATCHING
                0x000000008005c380                func_8005C380_cn
                0x000000008005c3ac                func_8005C3AC_cn.NON_MATCHING
                0x000000008005c3ac                func_8005C3AC_cn
                0x000000008005c4f0                func_8005C4F0_cn
                0x000000008005c4f0                func_8005C4F0_cn.NON_MATCHING
                0x000000008005c52c                func_8005C52C_cn.NON_MATCHING
                0x000000008005c52c                func_8005C52C_cn
                0x000000008005c558                func_8005C558_cn
                0x000000008005c558                func_8005C558_cn.NON_MATCHING
                0x000000008005c780                func_8005C780_cn.NON_MATCHING
                0x000000008005c780                func_8005C780_cn
                0x000000008005c8b0                func_8005C8B0_cn
                0x000000008005c8b0                func_8005C8B0_cn.NON_MATCHING
                0x000000008005cc68                func_8005CC68_cn
                0x000000008005cc68                func_8005CC68_cn.NON_MATCHING
                0x000000008005cf4c                func_8005CF4C_cn.NON_MATCHING
                0x000000008005cf4c                func_8005CF4C_cn
                0x000000008005d004                func_8005D004_cn
                0x000000008005d004                func_8005D004_cn.NON_MATCHING
                0x000000008005d030                func_8005D030_cn
                0x000000008005d030                func_8005D030_cn.NON_MATCHING
                0x000000008005d1bc                func_8005D1BC_cn
                0x000000008005d1bc                func_8005D1BC_cn.NON_MATCHING
                0x000000008005d1fc                func_8005D1FC_cn
                0x000000008005d1fc                func_8005D1FC_cn.NON_MATCHING
                0x000000008005d228                func_8005D228_cn
                0x000000008005d228                func_8005D228_cn.NON_MATCHING
                0x000000008005d468                func_8005D468_cn
                0x000000008005d468                func_8005D468_cn.NON_MATCHING
                0x000000008005d564                func_8005D564_cn.NON_MATCHING
                0x000000008005d564                func_8005D564_cn
                0x000000008005d5f4                func_8005D5F4_cn.NON_MATCHING
                0x000000008005d5f4                func_8005D5F4_cn
                0x000000008005d6d0                func_8005D6D0_cn
                0x000000008005d6d0                func_8005D6D0_cn.NON_MATCHING
                0x000000008005d860                func_8005D860_cn.NON_MATCHING
                0x000000008005d860                func_8005D860_cn
                0x000000008005d9a4                func_8005D9A4_cn.NON_MATCHING
                0x000000008005d9a4                func_8005D9A4_cn
                0x000000008005dae4                func_8005DAE4_cn.NON_MATCHING
                0x000000008005dae4                func_8005DAE4_cn
                0x000000008005dc98                func_8005DC98_cn.NON_MATCHING
                0x000000008005dc98                func_8005DC98_cn
                0x000000008005de18                func_8005DE18_cn
                0x000000008005de18                func_8005DE18_cn.NON_MATCHING
                0x000000008005df38                func_8005DF38_cn
                0x000000008005df38                func_8005DF38_cn.NON_MATCHING
                0x000000008005e1a0                func_8005E1A0_cn
                0x000000008005e1a0                func_8005E1A0_cn.NON_MATCHING
                0x000000008005e2a0                func_8005E2A0_cn
                0x000000008005e2a0                func_8005E2A0_cn.NON_MATCHING
                0x000000008005e4b0                func_8005E4B0_cn
                0x000000008005e4b0                func_8005E4B0_cn.NON_MATCHING
                0x000000008005e76c                func_8005E76C_cn
                0x000000008005e76c                func_8005E76C_cn.NON_MATCHING
                0x000000008005e80c                func_8005E80C_cn.NON_MATCHING
                0x000000008005e80c                func_8005E80C_cn
                0x000000008005eefc                func_8005EEFC_cn.NON_MATCHING
                0x000000008005eefc                func_8005EEFC_cn
                0x000000008005f174                func_8005F174_cn
                0x000000008005f174                func_8005F174_cn.NON_MATCHING
                0x000000008005f42c                func_8005F42C_cn
                0x000000008005f42c                func_8005F42C_cn.NON_MATCHING
                0x000000008005f5f8                func_8005F5F8_cn
                0x000000008005f5f8                func_8005F5F8_cn.NON_MATCHING
                0x000000008005f988                func_8005F988_cn
                0x000000008005f988                func_8005F988_cn.NON_MATCHING
                0x000000008005fa40                func_8005FA40_cn.NON_MATCHING
                0x000000008005fa40                func_8005FA40_cn
                0x000000008005fa9c                func_8005FA9C_cn
                0x000000008005fa9c                func_8005FA9C_cn.NON_MATCHING
                0x000000008005faf8                func_8005FAF8_cn
                0x000000008005faf8                func_8005FAF8_cn.NON_MATCHING
                0x000000008005fb80                func_8005FB80_cn
                0x000000008005fb80                func_8005FB80_cn.NON_MATCHING
                0x000000008005fc14                func_8005FC14_cn
                0x000000008005fc14                func_8005FC14_cn.NON_MATCHING
                0x000000008005fca8                func_8005FCA8_cn
                0x000000008005fca8                func_8005FCA8_cn.NON_MATCHING
                0x000000008005fd3c                func_8005FD3C_cn.NON_MATCHING
                0x000000008005fd3c                func_8005FD3C_cn
                0x000000008005fd70                func_8005FD70_cn.NON_MATCHING
                0x000000008005fd70                func_8005FD70_cn
                0x000000008005fd88                func_8005FD88_cn.NON_MATCHING
                0x000000008005fd88                func_8005FD88_cn
                0x000000008005fda0                func_8005FDA0_cn.NON_MATCHING
                0x000000008005fda0                func_8005FDA0_cn
                0x000000008005fdb0                func_8005FDB0_cn.NON_MATCHING
                0x000000008005fdb0                func_8005FDB0_cn
                0x000000008005fdc0                func_8005FDC0_cn.NON_MATCHING
                0x000000008005fdc0                func_8005FDC0_cn
                0x000000008005fdd0                func_8005FDD0_cn
                0x000000008005fdd0                func_8005FDD0_cn.NON_MATCHING
                0x000000008005fde0                func_8005FDE0_cn
                0x000000008005fde0                func_8005FDE0_cn.NON_MATCHING
                0x000000008005fdf0                func_8005FDF0_cn.NON_MATCHING
                0x000000008005fdf0                func_8005FDF0_cn
                0x000000008005fe00                func_8005FE00_cn
                0x000000008005fe00                func_8005FE00_cn.NON_MATCHING
                0x000000008005fe10                func_8005FE10_cn
                0x000000008005fe10                func_8005FE10_cn.NON_MATCHING
                0x000000008005fe20                func_8005FE20_cn.NON_MATCHING
                0x000000008005fe20                func_8005FE20_cn
                0x000000008005fe30                func_8005FE30_cn.NON_MATCHING
                0x000000008005fe30                func_8005FE30_cn
                0x000000008005fe40                func_8005FE40_cn
                0x000000008005fe40                func_8005FE40_cn.NON_MATCHING
                0x000000008005fe50                func_8005FE50_cn.NON_MATCHING
                0x000000008005fe50                func_8005FE50_cn
                0x000000008005fe60                func_8005FE60_cn.NON_MATCHING
                0x000000008005fe60                func_8005FE60_cn
                0x000000008005fe70                func_8005FE70_cn.NON_MATCHING
                0x000000008005fe70                func_8005FE70_cn
                0x000000008005fe80                func_8005FE80_cn
                0x000000008005fe80                func_8005FE80_cn.NON_MATCHING
                0x000000008005fe90                func_8005FE90_cn.NON_MATCHING
                0x000000008005fe90                func_8005FE90_cn
                0x000000008005fea0                func_8005FEA0_cn
                0x000000008005fea0                func_8005FEA0_cn.NON_MATCHING
                0x000000008005fea8                func_8005FEA8_cn.NON_MATCHING
                0x000000008005fea8                func_8005FEA8_cn
                0x000000008005fecc                func_8005FECC_cn.NON_MATCHING
                0x000000008005fecc                func_8005FECC_cn
                0x000000008005fef0                func_8005FEF0_cn.NON_MATCHING
                0x000000008005fef0                func_8005FEF0_cn
                0x000000008005ff14                func_8005FF14_cn.NON_MATCHING
                0x000000008005ff14                func_8005FF14_cn
                0x000000008005ff28                func_8005FF28_cn.NON_MATCHING
                0x000000008005ff28                func_8005FF28_cn
                0x000000008005ff3c                func_8005FF3C_cn.NON_MATCHING
                0x000000008005ff3c                func_8005FF3C_cn
                0x000000008005ff50                func_8005FF50_cn
                0x000000008005ff50                func_8005FF50_cn.NON_MATCHING
                0x000000008005ff64                func_8005FF64_cn.NON_MATCHING
                0x000000008005ff64                func_8005FF64_cn
                0x000000008005ff90                func_8005FF90_cn
                0x000000008005ff90                func_8005FF90_cn.NON_MATCHING
                0x000000008005ffe8                func_8005FFE8_cn.NON_MATCHING
                0x000000008005ffe8                func_8005FFE8_cn
                0x0000000080060490                func_80060490_cn.NON_MATCHING
                0x0000000080060490                func_80060490_cn
                0x00000000800604e0                func_800604E0_cn.NON_MATCHING
                0x00000000800604e0                func_800604E0_cn
                0x00000000800605dc                func_800605DC_cn
                0x00000000800605dc                func_800605DC_cn.NON_MATCHING
                0x0000000080060848                func_80060848_cn
                0x0000000080060848                func_80060848_cn.NON_MATCHING
                0x0000000080060a14                func_80060A14_cn
                0x0000000080060a14                func_80060A14_cn.NON_MATCHING
                0x0000000080060d84                func_80060D84_cn
                0x0000000080060d84                func_80060D84_cn.NON_MATCHING
                0x0000000080060f8c                func_80060F8C_cn
                0x0000000080060f8c                func_80060F8C_cn.NON_MATCHING
                0x0000000080061330                main_menu
                0x0000000080061330                main_menu.NON_MATCHING
                0x0000000080061808                graphic_menu
                0x0000000080061808                graphic_menu.NON_MATCHING
 build/src/main_segment/font.o(.text)
 .text          0x0000000080061a30     0x17a0 build/src/main_segment/font.o
                0x0000000080061a30                fontStr_nextChar
                0x0000000080061aa8                fontStr_length
                0x0000000080061af8                fontStr_charSize
                0x0000000080061b48                func_8005B8D8
                0x0000000080061b64                font2index
                0x0000000080061c44                ascii2index
                0x0000000080061c78                font16_initDL
                0x0000000080061ca0                font16_initDL2
                0x0000000080061e04                fontXX_draw
                0x0000000080061e94                fontXX_drawID
                0x00000000800621e0                fontXX_draw2
                0x0000000080062270                fontXX_drawID2
                0x00000000800627e8                fontAsc_draw
                0x000000008006288c                fontAsc_drawID
                0x000000008006288c                fontAsc_drawID.NON_MATCHING
                0x0000000080062c2c                fontAsc_draw2
                0x0000000080062cd0                fontAsc_drawID2
 build/src/main_segment/msgwnd.o(.text)
 .text          0x00000000800631d0     0x12e0 build/src/main_segment/msgwnd.o
                0x00000000800631d0                func_8005CF20
                0x000000008006322c                msgWnd_init
                0x0000000080063298                msgWnd_init2
                0x0000000080063368                msgWnd_clear
                0x00000000800633b8                msgWnd_layout
                0x00000000800635f0                msgWnd_addStr
                0x000000008006371c                func_8005D3F8
                0x0000000080063758                msgWnd_update
                0x0000000080063b08                msgWnd_draw
                0x0000000080063b08                msgWnd_draw.NON_MATCHING
                0x0000000080064444                msgWnd_isEnd
                0x000000008006444c                msgWnd_skip
                0x0000000080064460                msgWnd_isSpeaking
                0x0000000080064468                msgWnd_isScroll
                0x000000008006447c                msgWnd_getWidth
                0x0000000080064494                msgWnd_getHeight
 build/src/main_segment/char_anime.o(.text)
 .text          0x00000000800644b0      0xfc0 build/src/main_segment/char_anime.o
                0x00000000800644b0                animeSeq_init
                0x00000000800644f4                func_8005E154
                0x0000000080064524                animeSeq_update
                0x00000000800646f0                animeSeq_isEnd
                0x000000008006471c                func_8006471C_cn.NON_MATCHING
                0x000000008006471c                func_8006471C_cn
                0x0000000080064734                animeState_load
                0x00000000800647f0                animeState_init
                0x0000000080064880                animeState_set
                0x00000000800648ac                animeState_update
                0x00000000800648f4                animeState_isEnd
                0x000000008006491c                func_8006491C_cn
                0x000000008006491c                func_8006491C_cn.NON_MATCHING
                0x00000000800649d0                func_800649D0_cn
                0x00000000800649d0                func_800649D0_cn.NON_MATCHING
                0x0000000080064a9c                func_80064A9C_cn
                0x0000000080064a9c                func_80064A9C_cn.NON_MATCHING
                0x0000000080064b8c                func_80064B8C_cn
                0x0000000080064b8c                func_80064B8C_cn.NON_MATCHING
                0x0000000080064dc0                func_80064DC0_cn
                0x0000000080064dc0                func_80064DC0_cn.NON_MATCHING
                0x0000000080064f14                animeSmog_init
                0x0000000080064fec                animeSmog_load
                0x000000008006503c                animeSmog_start
                0x000000008006503c                animeSmog_start.NON_MATCHING
                0x0000000080065044                animeSmog_stop
                0x00000000800650b0                animeSmog_update
                0x0000000080065230                func_80065230_cn.NON_MATCHING
                0x0000000080065230                func_80065230_cn
                0x0000000080065364                func_80065364_cn
                0x0000000080065364                func_80065364_cn.NON_MATCHING
                0x0000000080065390                loadAnimeSeq
                0x0000000080065390                loadAnimeSeq.NON_MATCHING
 build/src/main_segment/dm_virus_init.o(.text)
 .text          0x0000000080065470     0x1440 build/src/main_segment/dm_virus_init.o
                0x0000000080065470                init_map_all
                0x00000000800654f4                clear_map
                0x00000000800654f4                clear_map.NON_MATCHING
                0x000000008006553c                clear_map_all
                0x00000000800655b4                get_map_info
                0x00000000800655ec                func_800655EC_cn
                0x00000000800655ec                func_800655EC_cn.NON_MATCHING
                0x0000000080065638                func_80065638_cn
                0x0000000080065638                func_80065638_cn.NON_MATCHING
                0x00000000800656a0                get_virus_color_count
                0x00000000800657a0                get_virus_count
                0x00000000800657d4                set_map
                0x000000008006582c                set_virus
                0x0000000080065880                func_80065880_cn
                0x0000000080065880                func_80065880_cn.NON_MATCHING
                0x0000000080065910                func_80065910_cn
                0x0000000080065910                func_80065910_cn.NON_MATCHING
                0x0000000080065950                func_80065950_cn.NON_MATCHING
                0x0000000080065950                func_80065950_cn
                0x0000000080065b20                func_80065B20_cn
                0x0000000080065b20                func_80065B20_cn.NON_MATCHING
                0x0000000080065bec                dm_virus_map_copy
                0x0000000080065c78                dm_get_first_virus_count
                0x0000000080065cd8                dm_get_first_virus_count_in_new_mode
                0x0000000080065cec                _dm_virus_init.NON_MATCHING
                0x0000000080065cec                _dm_virus_init
                0x000000008006626c                dm_virus_init
                0x0000000080066298                func_80066298_cn.NON_MATCHING
                0x0000000080066298                func_80066298_cn
                0x0000000080066300                func_80066300_cn
                0x0000000080066300                func_80066300_cn.NON_MATCHING
                0x00000000800664dc                func_800664DC_cn
                0x00000000800664dc                func_800664DC_cn.NON_MATCHING
                0x000000008006656c                make_flash_virus_pos.NON_MATCHING
                0x000000008006656c                make_flash_virus_pos
 build/src/main_segment/dm_game_main.o(.text)
 .text          0x00000000800668b0    0x14840 build/src/main_segment/dm_game_main.o
                0x00000000800668b0                func_800601F0
                0x0000000080066930                func_80060270
                0x0000000080066978                dm_make_score
                0x0000000080066a24                dm_attack_se
                0x0000000080066b28                dm_warning_h_line
                0x0000000080066bf4                set_down_flg.NON_MATCHING
                0x0000000080066bf4                set_down_flg
                0x0000000080066ef8                go_down
                0x00000000800670fc                erase_anime
                0x00000000800670fc                erase_anime.NON_MATCHING
                0x0000000080067200                throw_rotate_capsel
                0x00000000800672ac                translate_capsel
                0x00000000800672ac                translate_capsel.NON_MATCHING
                0x00000000800674b0                rotate_capsel.NON_MATCHING
                0x00000000800674b0                rotate_capsel
                0x00000000800676d8                dm_make_magazine
                0x0000000080067840                func_80060F60
                0x0000000080067880                func_80060FA0
                0x00000000800678bc                dm_set_capsel
                0x00000000800679ec                dm_capsel_speed_up
                0x0000000080067a9c                dm_check_game_over
                0x0000000080067abc                update_flash_virus_count
                0x0000000080067abc                update_flash_virus_count.NON_MATCHING
                0x0000000080067b54                func_8006121C
                0x0000000080067bbc                dm_set_virus
                0x0000000080067d38                dm_virus_anime.NON_MATCHING
                0x0000000080067d38                dm_virus_anime
                0x0000000080067e14                dm_capsel_erase_anime
                0x0000000080067ec8                dm_make_erase_h_line
                0x0000000080067ec8                dm_make_erase_h_line.NON_MATCHING
                0x0000000080067f94                dm_h_erase_chack
                0x0000000080068058                dm_h_erase_chack_set
                0x00000000800682cc                dm_make_erase_w_line
                0x00000000800682cc                dm_make_erase_w_line.NON_MATCHING
                0x000000008006836c                dm_w_erase_chack
                0x0000000080068428                dm_w_erase_chack_set
                0x00000000800686a4                dm_h_ball_chack.NON_MATCHING
                0x00000000800686a4                dm_h_ball_chack
                0x0000000080068790                dm_w_ball_chack
                0x0000000080068824                dm_black_up
                0x0000000080068824                dm_black_up.NON_MATCHING
                0x00000000800688e4                dm_broken_set.NON_MATCHING
                0x00000000800688e4                dm_broken_set
                0x0000000080068aac                dm_calc_erase_score_pos
                0x0000000080068bb8                dm_calc_capsel_pos.NON_MATCHING
                0x0000000080068bb8                dm_calc_capsel_pos
                0x0000000080069034                func_80069034_cn
                0x0000000080069034                func_80069034_cn.NON_MATCHING
                0x00000000800691a8                dm_draw_capsel_by_cpu_tentative.NON_MATCHING
                0x00000000800691a8                dm_draw_capsel_by_cpu_tentative
                0x00000000800693d8                dm_game_heap_top.NON_MATCHING
                0x00000000800693d8                dm_game_heap_top
                0x00000000800693e8                get_virus_anime_state
                0x00000000800693e8                get_virus_anime_state.NON_MATCHING
                0x0000000080069400                get_virus_smog_state
                0x0000000080069400                get_virus_smog_state.NON_MATCHING
                0x0000000080069428                dm_get_mtx_buf
                0x0000000080069444                dm_get_vtx_buf
                0x0000000080069464                func_80062920
                0x00000000800694c8                func_800694C8_cn
                0x00000000800694c8                func_800694C8_cn.NON_MATCHING
                0x00000000800694e0                func_800694E0_cn.NON_MATCHING
                0x00000000800694e0                func_800694E0_cn
                0x000000008006950c                func_8006950C_cn.NON_MATCHING
                0x000000008006950c                func_8006950C_cn
                0x0000000080069538                func_80069538_cn
                0x0000000080069538                func_80069538_cn.NON_MATCHING
                0x0000000080069564                func_80069564_cn
                0x0000000080069564                func_80069564_cn.NON_MATCHING
                0x00000000800695a0                func_800695A0_cn
                0x00000000800695a0                func_800695A0_cn.NON_MATCHING
                0x00000000800695cc                func_800695CC_cn
                0x00000000800695cc                func_800695CC_cn.NON_MATCHING
                0x00000000800695f8                func_800695F8_cn.NON_MATCHING
                0x00000000800695f8                func_800695F8_cn
                0x0000000080069624                func_80069624_cn.NON_MATCHING
                0x0000000080069624                func_80069624_cn
                0x0000000080069654                func_80062A8C.NON_MATCHING
                0x0000000080069654                func_80062A8C
                0x000000008006967c                func_80062AA8
                0x000000008006967c                func_80062AA8.NON_MATCHING
                0x00000000800696a4                func_80062AC4.NON_MATCHING
                0x00000000800696a4                func_80062AC4
                0x00000000800696cc                func_800696CC_cn
                0x00000000800696cc                func_800696CC_cn.NON_MATCHING
                0x00000000800696f4                func_80062AFC
                0x00000000800696f4                func_80062AFC.NON_MATCHING
                0x000000008006971c                func_80062B18.NON_MATCHING
                0x000000008006971c                func_80062B18
                0x0000000080069744                func_80062B34
                0x0000000080069744                func_80062B34.NON_MATCHING
                0x000000008006976c                func_80062B50
                0x00000000800697a0                func_80062B84
                0x00000000800697f0                func_800697F0_cn.NON_MATCHING
                0x00000000800697f0                func_800697F0_cn
                0x0000000080069800                timeAttackResult_update
                0x00000000800699e8                func_80062DA4
                0x0000000080069a2c                func_80069A2C_cn.NON_MATCHING
                0x0000000080069a2c                func_80069A2C_cn
                0x0000000080069b00                func_80062E84
                0x0000000080069b5c                func_80062EC0
                0x0000000080069c48                scoreNums_set.NON_MATCHING
                0x0000000080069c48                scoreNums_set
                0x0000000080069d94                backup_game_state
                0x0000000080069ed4                resume_game_state
                0x000000008006a01c                func_80063378
                0x000000008006a080                func_800633C0
                0x000000008006a0c8                func_8006A0C8_cn.NON_MATCHING
                0x000000008006a0c8                func_8006A0C8_cn
                0x000000008006a124                dm_warning_h_line_se
                0x000000008006a1e0                func_8006A1E0_cn
                0x000000008006a1e0                func_8006A1E0_cn.NON_MATCHING
                0x000000008006a2a8                dm_capsel_down.NON_MATCHING
                0x000000008006a2a8                dm_capsel_down
                0x000000008006a5b4                func_80063844
                0x000000008006a644                dm_set_attack_2p
                0x000000008006a644                dm_set_attack_2p.NON_MATCHING
                0x000000008006a860                dm_set_attack_4p
                0x000000008006a860                dm_set_attack_4p.NON_MATCHING
                0x000000008006ae60                func_8006AE60_cn.NON_MATCHING
                0x000000008006ae60                func_8006AE60_cn
                0x000000008006aef0                save_visible_fall_point_flag
                0x000000008006aef0                save_visible_fall_point_flag.NON_MATCHING
                0x000000008006af8c                func_8006AF8C_cn
                0x000000008006af8c                func_8006AF8C_cn.NON_MATCHING
                0x000000008006afe8                func_8006AFE8_cn.NON_MATCHING
                0x000000008006afe8                func_8006AFE8_cn
                0x000000008006b014                retryMenu_input
                0x000000008006b184                func_8006B184_cn
                0x000000008006b184                func_8006B184_cn.NON_MATCHING
                0x000000008006b238                func_8006B238_cn
                0x000000008006b238                func_8006B238_cn.NON_MATCHING
                0x000000008006b328                func_8006B328_cn.NON_MATCHING
                0x000000008006b328                func_8006B328_cn
                0x000000008006b5a0                func_8006B5A0_cn.NON_MATCHING
                0x000000008006b5a0                func_8006B5A0_cn
                0x000000008006b6d8                func_8006B6D8_cn
                0x000000008006b6d8                func_8006B6D8_cn.NON_MATCHING
                0x000000008006b7d0                func_80064848.NON_MATCHING
                0x000000008006b7d0                func_80064848
                0x000000008006b830                func_8006B830_cn.NON_MATCHING
                0x000000008006b830                func_8006B830_cn
                0x000000008006b8fc                func_8006B8FC_cn.NON_MATCHING
                0x000000008006b8fc                func_8006B8FC_cn
                0x000000008006b960                func_8006498C
                0x000000008006b99c                func_8006B99C_cn.NON_MATCHING
                0x000000008006b99c                func_8006B99C_cn
                0x000000008006be94                dm_query_pause_player
                0x000000008006bf60                dm_game_main_cnt_1P
                0x000000008006bf60                dm_game_main_cnt_1P.NON_MATCHING
                0x000000008006cef8                dm_game_main_cnt
                0x000000008006ddbc                func_8006DDBC_cn
                0x000000008006ddbc                func_8006DDBC_cn.NON_MATCHING
                0x000000008006df08                func_8006DF08_cn.NON_MATCHING
                0x000000008006df08                func_8006DF08_cn
                0x000000008006df3c                func_8006DF3C_cn
                0x000000008006df3c                func_8006DF3C_cn.NON_MATCHING
                0x000000008006e0e8                func_8006E0E8_cn
                0x000000008006e0e8                func_8006E0E8_cn.NON_MATCHING
                0x000000008006e11c                dm_calc_big_virus_pos.NON_MATCHING
                0x000000008006e11c                dm_calc_big_virus_pos
                0x000000008006e6e8                dm_game_main_1p
                0x000000008006e6e8                dm_game_main_1p.NON_MATCHING
                0x000000008006eb00                func_8006EB00_cn.NON_MATCHING
                0x000000008006eb00                func_8006EB00_cn
                0x000000008006ec80                func_8006EC80_cn
                0x000000008006ec80                func_8006EC80_cn.NON_MATCHING
                0x000000008006edb0                func_8006EDB0_cn.NON_MATCHING
                0x000000008006edb0                func_8006EDB0_cn
                0x000000008006eec8                func_8006EEC8_cn.NON_MATCHING
                0x000000008006eec8                func_8006EEC8_cn
                0x000000008006ef8c                func_8006EF8C_cn.NON_MATCHING
                0x000000008006ef8c                func_8006EF8C_cn
                0x000000008006f198                dm_game_main_2p.NON_MATCHING
                0x000000008006f198                dm_game_main_2p
                0x000000008006f9bc                dm_game_main_4p.NON_MATCHING
                0x000000008006f9bc                dm_game_main_4p
                0x00000000800704e8                dm_game_demo_1p
                0x0000000080070694                dm_game_demo_2p.NON_MATCHING
                0x0000000080070694                dm_game_demo_2p
                0x000000008007083c                dm_game_demo_4p
                0x000000008007083c                dm_game_demo_4p.NON_MATCHING
                0x00000000800709fc                func_800709FC_cn.NON_MATCHING
                0x00000000800709fc                func_800709FC_cn
                0x0000000080070a24                dm_game_get_capsel_pal.NON_MATCHING
                0x0000000080070a24                dm_game_get_capsel_pal
                0x0000000080070a5c                func_80070A5C_cn.NON_MATCHING
                0x0000000080070a5c                func_80070A5C_cn
                0x0000000080070db8                func_80069160
                0x0000000080070de4                func_80070DE4_cn
                0x0000000080070de4                func_80070DE4_cn.NON_MATCHING
                0x0000000080070e64                func_80070E64_cn.NON_MATCHING
                0x0000000080070e64                func_80070E64_cn
                0x000000008007125c                func_8007125C_cn.NON_MATCHING
                0x000000008007125c                func_8007125C_cn
                0x0000000080071330                func_80071330_cn
                0x0000000080071330                func_80071330_cn.NON_MATCHING
                0x0000000080071660                func_80071660_cn.NON_MATCHING
                0x0000000080071660                func_80071660_cn
                0x00000000800717f0                func_800717F0_cn
                0x00000000800717f0                func_800717F0_cn.NON_MATCHING
                0x0000000080071904                func_80071904_cn
                0x0000000080071904                func_80071904_cn.NON_MATCHING
                0x0000000080071b58                func_80071B58_cn.NON_MATCHING
                0x0000000080071b58                func_80071B58_cn
                0x0000000080071dd4                func_80071DD4_cn
                0x0000000080071dd4                func_80071DD4_cn.NON_MATCHING
                0x0000000080071ef8                func_80071EF8_cn
                0x0000000080071ef8                func_80071EF8_cn.NON_MATCHING
                0x0000000080072040                push_any_key_draw
                0x0000000080072214                func_80072214_cn
                0x0000000080072214                func_80072214_cn.NON_MATCHING
                0x0000000080072490                func_80072490_cn.NON_MATCHING
                0x0000000080072490                func_80072490_cn
                0x00000000800726f4                func_8006A938.NON_MATCHING
                0x00000000800726f4                func_8006A938
                0x0000000080072734                func_80072734_cn
                0x0000000080072734                func_80072734_cn.NON_MATCHING
                0x0000000080072a34                func_80072A34_cn.NON_MATCHING
                0x0000000080072a34                func_80072A34_cn
                0x0000000080072bf0                func_80072BF0_cn.NON_MATCHING
                0x0000000080072bf0                func_80072BF0_cn
                0x0000000080072d18                func_80072D18_cn
                0x0000000080072d18                func_80072D18_cn.NON_MATCHING
                0x0000000080072f04                func_80072F04_cn.NON_MATCHING
                0x0000000080072f04                func_80072F04_cn
                0x00000000800730f0                func_800730F0_cn.NON_MATCHING
                0x00000000800730f0                func_800730F0_cn
                0x000000008007376c                func_8007376C_cn
                0x000000008007376c                func_8007376C_cn.NON_MATCHING
                0x0000000080073a8c                dm_calc_bottle_2p.NON_MATCHING
                0x0000000080073a8c                dm_calc_bottle_2p
                0x0000000080073b08                dm_draw_bottle_2p.NON_MATCHING
                0x0000000080073b08                dm_draw_bottle_2p
                0x0000000080073bd8                dm_draw_big_virus
                0x0000000080073bd8                dm_draw_big_virus.NON_MATCHING
                0x0000000080073d00                dm_draw_KaSaMaRu.NON_MATCHING
                0x0000000080073d00                dm_draw_KaSaMaRu
                0x0000000080074138                func_80074138_cn
                0x0000000080074138                func_80074138_cn.NON_MATCHING
                0x00000000800745b8                dm_game_graphic_p.NON_MATCHING
                0x00000000800745b8                dm_game_graphic_p
                0x00000000800747a8                func_800747A8_cn.NON_MATCHING
                0x00000000800747a8                func_800747A8_cn
                0x0000000080074998                func_80074998_cn
                0x0000000080074998                func_80074998_cn.NON_MATCHING
                0x00000000800752a8                func_8006D0E8
                0x0000000080075318                dm_make_key
                0x000000008007540c                key_control_main
                0x0000000080075884                func_8006D620
                0x0000000080075a28                dm_effect_make
                0x0000000080075ae0                dm_game_init_heap
                0x0000000080075b9c                dm_game_init
                0x000000008007671c                dm_game_init_static
                0x0000000080076f74                dm_game_init_snap_bg
                0x0000000080077004                dm_game_draw_snap_bg
                0x0000000080077004                dm_game_draw_snap_bg.NON_MATCHING
                0x0000000080077ec4                func_80077EC4_cn.NON_MATCHING
                0x0000000080077ec4                func_80077EC4_cn
                0x0000000080077f30                dm_game_main
                0x00000000800783ac                dm_game_main2.NON_MATCHING
                0x00000000800783ac                dm_game_main2
                0x0000000080078b9c                dm_game_main3
                0x0000000080078e44                dm_game_graphic
                0x0000000080078fcc                dm_game_graphic2
                0x0000000080078fcc                dm_game_graphic2.NON_MATCHING
                0x000000008007a5d8                dm_game_graphic_onDoneSawp
                0x000000008007aabc                func_80071A44
                0x000000008007aac4                main_techmes
                0x000000008007ae48                graphic_techmes
 build/src/main_segment/dm_manual_main.o(.text)
 .text          0x000000008007b0f0     0x4ec0 build/src/main_segment/dm_manual_main.o
                0x000000008007b0f0                func_80071EF0
                0x000000008007b10c                func_80071F0C
                0x000000008007b114                func_80071F14
                0x000000008007b1bc                func_80071FA0
                0x000000008007b234                tutolWnd_draw
                0x000000008007b3c4                func_800721A0
                0x000000008007b3f0                func_800721BC
                0x000000008007b41c                func_800721D8
                0x000000008007b440                func_80072204
                0x000000008007b464                func_80072230
                0x000000008007b490                func_8007224C
                0x000000008007b4bc                func_80072268
                0x000000008007b4d4                dm_manual_attack_capsel_down.NON_MATCHING
                0x000000008007b4d4                dm_manual_attack_capsel_down
                0x000000008007b6c4                func_800723EC
                0x000000008007b704                dm_manual_update_virus_anime
                0x000000008007b7a8                dm_manual_main_cnt
                0x000000008007be38                dm_manual_make_key
                0x000000008007be38                dm_manual_make_key.NON_MATCHING
                0x000000008007bfc0                dm_manual_1_main
                0x000000008007cafc                dm_manual_2_main
                0x000000008007d2cc                dm_manual_3_main
                0x000000008007de1c                dm_manual_4_main
                0x000000008007e580                draw_AB_guide
                0x000000008007e774                func_8007E774_cn.NON_MATCHING
                0x000000008007e774                func_8007E774_cn
                0x000000008007ebc4                func_80074EF0
                0x000000008007ed08                disp_cont.NON_MATCHING
                0x000000008007ed08                disp_cont
                0x000000008007f010                dm_manual_draw_fg
                0x000000008007f408                dm_manual_all_init
                0x000000008007f408                dm_manual_all_init.NON_MATCHING
                0x000000008007f95c                dm_manual_main
                0x000000008007fd1c                dm_manual_graphic
 build/src/main_segment/dm_title_main.o(.text)
 .text          0x000000008007ffb0      0xc80 build/src/main_segment/dm_title_main.o
                0x000000008007ffb0                func_80075F30
                0x0000000080080034                dm_title_main
                0x0000000080080520                dm_title_graphic
                0x0000000080080798                main_boot_error
                0x0000000080080adc                graphic_boot_error
 build/src/main_segment/main_story.o(.text)
 .text          0x0000000080080c30     0x5890 build/src/main_segment/main_story.o
                0x0000000080080c30                story_zoomfade.NON_MATCHING
                0x0000000080080c30                story_zoomfade
                0x0000000080081050                get_gbi_stat
                0x000000008008107c                func_8008107C_cn
                0x0000000080081160                curtain_proc_org
                0x0000000080081160                curtain_proc_org.NON_MATCHING
                0x0000000080081470                func_800770E8
                0x0000000080081508                func_80077170
                0x00000000800815a8                func_800815A8_cn.NON_MATCHING
                0x00000000800815a8                func_800815A8_cn
                0x0000000080081814                func_800773F0
                0x0000000080081874                func_8007744C
                0x0000000080081898                func_80081898_cn.NON_MATCHING
                0x0000000080081898                func_80081898_cn
                0x00000000800818fc                func_800818FC_cn.NON_MATCHING
                0x00000000800818fc                func_800818FC_cn
                0x0000000080081954                story_spot
                0x0000000080081c54                func_80081C54_cn
                0x0000000080081c54                func_80081C54_cn.NON_MATCHING
                0x0000000080081c88                init_coffee_break
                0x0000000080081d04                init_coffee_break_cnt
                0x0000000080081d90                func_80081D90_cn.NON_MATCHING
                0x0000000080081d90                func_80081D90_cn
                0x00000000800822c8                init_menu_bg
                0x00000000800823a8                draw_menu_bg
                0x0000000080082570                init_title
                0x000000008008269c                demo_title
                0x0000000080082d5c                func_80082D5C_cn.NON_MATCHING
                0x0000000080082d5c                func_80082D5C_cn
                0x0000000080082d70                func_8007865C
                0x0000000080082e74                story_st_new_op.NON_MATCHING
                0x0000000080082e74                story_st_new_op
                0x0000000080083810                story_st_new
                0x0000000080083ae0                story_st_new2_f.NON_MATCHING
                0x0000000080083ae0                story_st_new2_f
                0x00000000800840fc                story_st_new2
                0x00000000800845c8                story_m_end
                0x0000000080084c70                story_st_new_w9
                0x0000000080084fd8                story_w_end
                0x00000000800855ec                func_8007A9DC
                0x00000000800856c0                main_story
                0x0000000080085be8                init_objMtx
                0x0000000080085c24                graphic_story
                0x000000008008648c                func_8008648C_cn
 build/src/main_segment/lws.o(.text)
 .text          0x00000000800864c0      0x5f0 build/src/main_segment/lws.o
                0x00000000800864c0                lws_anim.NON_MATCHING
                0x00000000800864c0                lws_anim
 build/src/main_segment/calc.o(.text)
 .text          0x0000000080086ab0     0x17b0 build/src/main_segment/calc.o
                0x0000000080086ab0                func_80086AB0_cn
                0x0000000080086ab0                func_80086AB0_cn.NON_MATCHING
                0x0000000080086b08                func_80086B08_cn
                0x0000000080086b08                func_80086B08_cn.NON_MATCHING
                0x0000000080086be4                func_80086BE4_cn.NON_MATCHING
                0x0000000080086be4                func_80086BE4_cn
                0x0000000080086dbc                func_80086DBC_cn
                0x0000000080086dbc                func_80086DBC_cn.NON_MATCHING
                0x0000000080086efc                func_80086EFC_cn
                0x0000000080086efc                func_80086EFC_cn.NON_MATCHING
                0x0000000080086ff8                func_80086FF8_cn
                0x0000000080086ff8                func_80086FF8_cn.NON_MATCHING
                0x0000000080087140                func_80087140_cn.NON_MATCHING
                0x0000000080087140                func_80087140_cn
                0x0000000080087318                func_80087318_cn
                0x0000000080087318                func_80087318_cn.NON_MATCHING
                0x0000000080087340                angleF2S
                0x0000000080087368                func_80087368_cn.NON_MATCHING
                0x0000000080087368                func_80087368_cn
                0x0000000080087400                func_80087400_cn.NON_MATCHING
                0x0000000080087400                func_80087400_cn
                0x0000000080087498                func_80087498_cn
                0x0000000080087498                func_80087498_cn.NON_MATCHING
                0x0000000080087544                func_80087544_cn
                0x0000000080087544                func_80087544_cn.NON_MATCHING
                0x0000000080087614                func_80087614_cn.NON_MATCHING
                0x0000000080087614                func_80087614_cn
                0x00000000800876e4                func_800876E4_cn.NON_MATCHING
                0x00000000800876e4                func_800876E4_cn
                0x0000000080087748                func_80087748_cn
                0x0000000080087748                func_80087748_cn.NON_MATCHING
                0x00000000800877dc                func_800877DC_cn
                0x00000000800877dc                func_800877DC_cn.NON_MATCHING
                0x00000000800878dc                func_800878DC_cn
                0x00000000800878dc                func_800878DC_cn.NON_MATCHING
                0x0000000080087a40                func_80087A40_cn.NON_MATCHING
                0x0000000080087a40                func_80087A40_cn
                0x0000000080087b6c                func_80087B6C_cn
                0x0000000080087b6c                func_80087B6C_cn.NON_MATCHING
                0x0000000080087c0c                func_80087C0C_cn
                0x0000000080087c0c                func_80087C0C_cn.NON_MATCHING
                0x0000000080087cb8                func_80087CB8_cn
                0x0000000080087cb8                func_80087CB8_cn.NON_MATCHING
                0x0000000080087d48                func_80087D48_cn
                0x0000000080087d48                func_80087D48_cn.NON_MATCHING
                0x0000000080087f84                func_80087F84_cn
                0x0000000080087f84                func_80087F84_cn.NON_MATCHING
                0x0000000080088044                func_80088044_cn
                0x0000000080088044                func_80088044_cn.NON_MATCHING
                0x00000000800880d0                randomseed.NON_MATCHING
                0x00000000800880d0                randomseed
                0x00000000800881b4                irandom
                0x00000000800881b4                irandom.NON_MATCHING
                0x000000008008821c                random.NON_MATCHING
                0x000000008008821c                random
 build/src/main_segment/065080.o(.text)
 .text          0x0000000080088260     0x10d0 build/src/main_segment/065080.o
                0x0000000080088260                func_80088260_cn.NON_MATCHING
                0x0000000080088260                func_80088260_cn
                0x0000000080088350                func_80088350_cn
                0x0000000080088350                func_80088350_cn.NON_MATCHING
                0x0000000080088428                func_80088428_cn.NON_MATCHING
                0x0000000080088428                func_80088428_cn
                0x00000000800884e0                func_800884E0_cn
                0x00000000800884e0                func_800884E0_cn.NON_MATCHING
                0x0000000080088580                func_80088580_cn
                0x0000000080088580                func_80088580_cn.NON_MATCHING
                0x00000000800886c4                func_800886C4_cn
                0x00000000800886c4                func_800886C4_cn.NON_MATCHING
                0x0000000080088830                func_80088830_cn.NON_MATCHING
                0x0000000080088830                func_80088830_cn
                0x0000000080088920                func_80088920_cn.NON_MATCHING
                0x0000000080088920                func_80088920_cn
                0x0000000080088c48                func_80088C48_cn.NON_MATCHING
                0x0000000080088c48                func_80088C48_cn
                0x0000000080088e30                func_80088E30_cn
                0x0000000080088e30                func_80088E30_cn.NON_MATCHING
                0x0000000080089014                func_80089014_cn.NON_MATCHING
                0x0000000080089014                func_80089014_cn
 build/src/main_segment/066080.o(.text)
 .text          0x0000000080089330       0x70 build/src/main_segment/066080.o
                0x0000000080089330                func_8007E260
 build/src/main_segment/replay.o(.text)
 .text          0x00000000800893a0      0x480 build/src/main_segment/replay.o
                0x00000000800893a0                replay_record_init_buffer
                0x00000000800893bc                replay_record_init
                0x00000000800894ec                replay_record
                0x0000000080089690                replay_play_init
                0x00000000800896fc                replay_play
 build/src/main_segment/066580.o(.text)
 .text          0x0000000080089820      0x2e0 build/src/main_segment/066580.o
                0x0000000080089820                func_8007E760.NON_MATCHING
                0x0000000080089820                func_8007E760
 build/asm/cn/main_segment/066840.o(.text)
 .text          0x0000000080089b00      0xec0 build/asm/cn/main_segment/066840.o
                0x0000000080089b00                func_80089B00_cn
                0x0000000080089b18                func_80089B18_cn
                0x0000000080089b34                func_80089B34_cn
                0x0000000080089bcc                func_80089BCC_cn
                0x0000000080089d50                func_80089D50_cn
                0x0000000080089d98                func_80089D98_cn
                0x0000000080089de4                func_80089DE4_cn
                0x0000000080089e74                func_80089E74_cn
                0x0000000080089f14                matrixMulL
                0x000000008008a104                makeTransrateMatrix
                0x000000008008a150                makeScaleMatrix
                0x000000008008a19c                makeMatrix
                0x000000008008a324                func_8008A324_cn
                0x000000008008a39c                func_8008A39C_cn
                0x000000008008a414                func_8008A414_cn
                0x000000008008a48c                func_8008A48C_cn
                0x000000008008a550                matrixConv
                0x000000008008a658                func_8008A658_cn
                0x000000008008a698                func_8008A698_cn
                0x000000008008a74c                func_8008A74C_cn
                0x000000008008a7b4                func_8008A7B4_cn
                0x000000008008a804                func_8008A804_cn
                0x000000008008a858                func_8008A858_cn
                0x000000008008a888                func_8008A888_cn
                0x000000008008a8c8                func_8008A8C8_cn
                0x000000008008a950                func_8008A950_cn
 build/src/main_segment/055C40.o(.text)
 .text          0x000000008008a9c0      0x190 build/src/main_segment/055C40.o
                0x000000008008a9c0                func_8007F890
                0x000000008008a9c0                func_8007F890.NON_MATCHING
                0x000000008008aad0                func_8007F990.NON_MATCHING
                0x000000008008aad0                func_8007F990
                0x000000008008ab18                func_8007F9D0.NON_MATCHING
                0x000000008008ab18                func_8007F9D0
 build/asm/cn/main_segment/072880.o(.text)
 .text          0x000000008008ab50     0x34d0 build/asm/cn/main_segment/072880.o
                0x000000008008ab50                func_8008AB50_cn
                0x000000008008ab70                func_8008AB70_cn
                0x000000008008aba0                func_8008ABA0_cn
                0x000000008008abc4                func_8008ABC4_cn
                0x000000008008abd0                func_8008ABD0_cn
                0x000000008008acf0                func_8008ACF0_cn
                0x000000008008add4                func_8008ADD4_cn
                0x000000008008ade8                func_8008ADE8_cn
                0x000000008008ae10                func_8008AE10_cn
                0x000000008008ae7c                func_8008AE7C_cn
                0x000000008008aeec                func_8008AEEC_cn
                0x000000008008aefc                func_8008AEFC_cn
                0x000000008008af2c                func_8008AF2C_cn
                0x000000008008af3c                func_8008AF3C_cn
                0x000000008008af4c                func_8008AF4C_cn
                0x000000008008af5c                func_8008AF5C_cn
                0x000000008008afb4                func_8008AFB4_cn
                0x000000008008b014                func_8008B014_cn
                0x000000008008b024                func_8008B024_cn
                0x000000008008b030                func_8008B030_cn
                0x000000008008b040                func_8008B040_cn
                0x000000008008b04c                func_8008B04C_cn
                0x000000008008b0c8                func_8008B0C8_cn
                0x000000008008b174                func_8008B174_cn
                0x000000008008b19c                func_8008B19C_cn
                0x000000008008b1a8                func_8008B1A8_cn
                0x000000008008b1b8                func_8008B1B8_cn
                0x000000008008b1c4                func_8008B1C4_cn
                0x000000008008b1d8                func_8008B1D8_cn
                0x000000008008b1ec                func_8008B1EC_cn
                0x000000008008b1f4                func_8008B1F4_cn
                0x000000008008b240                func_8008B240_cn
                0x000000008008b24c                func_8008B24C_cn
                0x000000008008b254                func_8008B254_cn
                0x000000008008b2c4                func_8008B2C4_cn
                0x000000008008b2d4                func_8008B2D4_cn
                0x000000008008b328                func_8008B328_cn
                0x000000008008b37c                func_8008B37C_cn
                0x000000008008b3d0                func_8008B3D0_cn
                0x000000008008b3e0                func_8008B3E0_cn
                0x000000008008b4bc                func_8008B4BC_cn
                0x000000008008b4f8                func_8008B4F8_cn
                0x000000008008b508                func_8008B508_cn
                0x000000008008b54c                func_8008B54C_cn
                0x000000008008b5b8                func_8008B5B8_cn
                0x000000008008b5c4                MusInitialize
                0x000000008008b85c                func_8008B85C_cn
                0x000000008008b888                MusStartSong
                0x000000008008b8b8                func_8008B8B8_cn
                0x000000008008bb0c                MusStartEffect
                0x000000008008bb94                MusStartEffect2
                0x000000008008bcac                MusStop
                0x000000008008bd78                MusAsk
                0x000000008008bdf0                MusHandleStop
                0x000000008008bea8                MusHandleAsk
                0x000000008008bef8                MusHandleSetVolume
                0x000000008008bf54                MusHandleSetPan
                0x000000008008bfc0                MusHandleSetFreqOffset
                0x000000008008c030                MusHandleSetTempo
                0x000000008008c0c4                func_8008C0C4_cn
                0x000000008008c14c                MusPtrBankInitialize
                0x000000008008c184                func_8008C184_cn
                0x000000008008c1b0                func_8008C1B0_cn
                0x000000008008c1d4                func_8008C1D4_cn
                0x000000008008c1e4                func_8008C1E4_cn
                0x000000008008c238                MusHandlePause
                0x000000008008c25c                MusHandleUnPause
                0x000000008008c284                func_8008C284_cn
                0x000000008008c2b4                func_8008C2B4_cn
                0x000000008008c2f8                MusFxBankInitialize
                0x000000008008c370                func_8008C370_cn
                0x000000008008c378                func_8008C378_cn
                0x000000008008c388                func_8008C388_cn
                0x000000008008c398                func_8008C398_cn
                0x000000008008c3a8                func_8008C3A8_cn
                0x000000008008c3b0                func_8008C3B0_cn
                0x000000008008c3b8                MusSetScheduler
                0x000000008008c3c8                func_8008C3C8_cn
                0x000000008008c440                func_8008C440_cn
                0x000000008008c4b8                func_8008C4B8_cn
                0x000000008008c4c8                func_8008C4C8_cn
                0x000000008008c52c                func_8008C52C_cn
                0x000000008008c5ac                func_8008C5AC_cn
                0x000000008008c630                func_8008C630_cn
                0x000000008008c6c8                func_8008C6C8_cn
                0x000000008008c944                func_8008C944_cn
                0x000000008008cd84                func_8008CD84_cn
                0x000000008008ce10                func_8008CE10_cn
                0x000000008008cf64                func_8008CF64_cn
                0x000000008008d064                func_8008D064_cn
                0x000000008008d0cc                func_8008D0CC_cn
                0x000000008008d280                func_8008D280_cn
                0x000000008008d29c                func_8008D29C_cn
                0x000000008008d34c                func_8008D34C_cn
                0x000000008008d398                func_8008D398_cn
                0x000000008008d3f8                func_8008D3F8_cn
                0x000000008008d4b4                func_8008D4B4_cn
                0x000000008008d5bc                func_8008D5BC_cn
                0x000000008008d730                func_8008D730_cn
                0x000000008008d8d4                func_8008D8D4_cn
                0x000000008008d95c                func_8008D95C_cn
                0x000000008008da94                func_8008DA94_cn
                0x000000008008dc34                func_8008DC34_cn
                0x000000008008dc64                func_8008DC64_cn
                0x000000008008dd14                func_8008DD14_cn
                0x000000008008ddec                func_8008DDEC_cn
                0x000000008008dfc8                func_8008DFC8_cn
 build/asm/cn/main_segment/075D50.o(.text)
 .text          0x000000008008e020      0x930 build/asm/cn/main_segment/075D50.o
                0x000000008008e020                func_8008E020_cn
                0x000000008008e07c                func_8008E07C_cn
                0x000000008008e3a0                func_8008E3A0_cn
                0x000000008008e434                func_8008E434_cn
                0x000000008008e570                func_8008E570_cn
                0x000000008008e84c                func_8008E84C_cn
                0x000000008008e864                func_8008E864_cn
                0x000000008008e8a8                func_8008E8A8_cn
                0x000000008008e8ec                func_8008E8EC_cn
 build/asm/cn/main_segment/076680.o(.text)
 .text          0x000000008008e950      0x490 build/asm/cn/main_segment/076680.o
                0x000000008008e950                func_8008E950_cn
                0x000000008008eaec                func_8008EAEC_cn
                0x000000008008ebbc                func_8008EBBC_cn
                0x000000008008ebcc                func_8008EBCC_cn
                0x000000008008ec38                func_8008EC38_cn
 build/asm/cn/main_segment/076B10.o(.text)
 .text          0x000000008008ede0      0x450 build/asm/cn/main_segment/076B10.o
                0x000000008008ede0                func_8008EDE0_cn
                0x000000008008edf0                func_8008EDF0_cn
                0x000000008008ee54                func_8008EE54_cn
                0x000000008008eeb4                func_8008EEB4_cn
                0x000000008008ef90                func_8008EF90_cn
                0x000000008008f0cc                func_8008F0CC_cn
 build/asm/cn/main_segment/076F60.o(.text)
 .text          0x000000008008f230      0x140 build/asm/cn/main_segment/076F60.o
                0x000000008008f230                func_8008F230_cn
                0x000000008008f27c                func_8008F27C_cn
                0x000000008008f2ac                func_8008F2AC_cn
                0x000000008008f2c4                func_8008F2C4_cn
                0x000000008008f2d4                func_8008F2D4_cn
                0x000000008008f2fc                func_8008F2FC_cn
 build/asm/cn/main_segment/0770A0.o(.text)
 .text          0x000000008008f370       0xc0 build/asm/cn/main_segment/0770A0.o
                0x000000008008f370                func_8008F370_cn
                0x000000008008f3e0                func_8008F3E0_cn
                0x000000008008f430                main_segment_TEXT_END = .
                0x0000000000064c70                main_segment_TEXT_SIZE = ABSOLUTE ((main_segment_TEXT_END - main_segment_TEXT_START))
                0x000000008008f430                main_segment_DATA_START = .
                0x000000008008f430                rsp_rspboot_data = .
 build/asm/cn/data/rsp/rspboot.data.o(.data)
 .data          0x000000008008f430       0xd0 build/asm/cn/data/rsp/rspboot.data.o
                0x000000008008f430                rspbootTextStart
                0x000000008008f500                rspbootTextEnd
                0x000000008008f500                rsp_aspMain_data = .
 build/asm/cn/data/rsp/aspMain.data.o(.data)
 .data          0x000000008008f500      0xe20 build/asm/cn/data/rsp/aspMain.data.o
                0x000000008008f500                aspMainTextStart
                0x0000000080090320                aspMainTextEnd
                0x0000000080090320                rsp_f3dex2_data = .
 build/asm/cn/data/rsp/f3dex2.data.o(.data)
 .data          0x0000000080090320     0x1390 build/asm/cn/data/rsp/f3dex2.data.o
                0x0000000080090320                gspF3DEX2_fifoTextStart
                0x00000000800916b0                gspF3DEX2_fifoTextEnd
                0x00000000800916b0                rsp_s2dex_data = .
 build/asm/cn/data/rsp/s2dex.data.o(.data)
 .data          0x00000000800916b0     0x17f0 build/asm/cn/data/rsp/s2dex.data.o
                0x00000000800916b0                gspS2DEX_fifoTextStart
                0x0000000080092ea0                gspS2DEX_fifoTextEnd
                0x0000000080092ea0                main_segment_000280 = .
 build/src/main_segment/000280.o(.data)
 .data          0x0000000080092ea0       0x80 build/src/main_segment/000280.o
                0x0000000080092ea0                framecont
                0x0000000080092ea4                D_80088104
                0x0000000080092ea8                D_80092EA8_cn
                0x0000000080092eac                D_80092EAC_cn
                0x0000000080092eb0                D_80092EB0_cn
                0x0000000080092f10                D_80092F10_cn
                0x0000000080092f20                main_segment_graphic = .
 build/src/main_segment/graphic.o(.data)
 .data          0x0000000080092f20       0x40 build/src/main_segment/graphic.o
                0x0000000080092f20                D_80088110
                0x0000000080092f30                gCurrentFramebufferIndex
                0x0000000080092f34                graphic_no
                0x0000000080092f38                pendingGFX
                0x0000000080092f40                vp
                0x0000000080092f50                rdpinit_flag_161
                0x0000000080092f60                main_segment_07AC90_data = .
 build/asm/cn/data/main_segment/07AC90.data.o(.data)
 .data          0x0000000080092f60      0x2a0 build/asm/cn/data/main_segment/07AC90.data.o
                0x0000000080092f60                S2RDPinit_dl
                0x0000000080092fc8                S2ClearCFB_dl
                0x0000000080092ff0                S2Spriteinit_dl
                0x0000000080093038                F3RDPinit_dl
                0x0000000080093118                F3SetupRDP_dl
                0x0000000080093138                F3SetupRSP_dl
                0x0000000080093200                main_segment_07AF30_data = .
 build/asm/cn/data/main_segment/07AF30.data.o(.data)
 .data          0x0000000080093200       0x10 build/asm/cn/data/main_segment/07AF30.data.o
                0x0000000080093200                D_80093200_cn
                0x0000000080093210                main_segment_07AF40_data = .
 build/asm/cn/data/main_segment/07AF40.data.o(.data)
 .data          0x0000000080093210       0x80 build/asm/cn/data/main_segment/07AF40.data.o
                0x0000000080093210                evs_stereo
                0x0000000080093211                evs_seqence
                0x0000000080093212                evs_seqnumb
                0x0000000080093213                evs_playcnt
                0x0000000080093214                evs_keyrept
                0x0000000080093216                evs_gamespeed
                0x0000000080093217                evs_score_flag
                0x0000000080093218                evs_story_flg
                0x0000000080093219                evs_story_no
                0x000000008009321a                evs_story_level
                0x000000008009321c                evs_secret_flg
                0x000000008009321d                D_8009321D_cn
                0x000000008009321e                evs_one_game_flg
                0x000000008009321f                evs_level_21
                0x0000000080093220                evs_manual_no
                0x0000000080093224                evs_high_score
                0x0000000080093228                evs_vs_count
                0x000000008009322c                FlyingCnt
                0x0000000080093230                D_80093230_cn
                0x0000000080093240                GameSpeed
                0x0000000080093244                FallSpeed
                0x000000008009327c                Score1p
                0x0000000080093290                main_segment_vr_init = .
 build/src/main_segment/vr_init.o(.data)
 .data          0x0000000080093290       0x10 build/src/main_segment/vr_init.o
                0x0000000080093290                mti
                0x0000000080093294                mag01_108
                0x00000000800932a0                main_segment_07AFD0_data = .
 build/asm/cn/data/main_segment/07AFD0.data.o(.data)
 .data          0x00000000800932a0     0x4b60 build/asm/cn/data/main_segment/07AFD0.data.o
                0x00000000800932a0                D_800932A0_cn
                0x00000000800932b8                aiVirusLevel
                0x00000000800932d0                D_800884C0
                0x00000000800932e8                aiSlideFSpeed
                0x0000000080093300                D_800884F0
                0x0000000080093318                aiDebugP1
                0x000000008009331c                capsGCnv_122
                0x0000000080093334                capsCCnv_123
                0x000000008009333c                D_8009333C_cn
                0x0000000080093344                D_80093344_cn
                0x0000000080093345                D_80093345_cn
                0x000000008009334c                D_8009334C_cn
                0x000000008009335c                D_8009335C_cn
                0x000000008009336e                D_8009336E_cn
                0x0000000080093374                D_80093374_cn
                0x000000008009337a                D_8009337A_cn
                0x0000000080093380                D_80093380_cn
                0x0000000080093382                D_80093382_cn
                0x0000000080093394                D_80093394_cn
                0x0000000080093398                D_80093398_cn
                0x000000008009339c                D_8009339C_cn
                0x00000000800933a0                D_800933A0_cn
                0x00000000800933b0                D_800933B0_cn
                0x00000000800933b4                D_800933B4_cn
                0x00000000800933c4                D_800933C4_cn
                0x00000000800933c8                D_800933C8_cn
                0x00000000800933d0                D_800933D0_cn
                0x00000000800933d2                D_800933D2_cn
                0x00000000800933dc                D_800933DC_cn
                0x00000000800933e2                D_800933E2_cn
                0x00000000800933e4                D_800933E4_cn
                0x00000000800933e6                D_800933E6_cn
                0x00000000800933e8                D_800933E8_cn
                0x0000000080093408                D_80093408_cn
                0x0000000080093448                D_80093448_cn
                0x0000000080093470                ai_param_org
                0x0000000080093ef0                ai_char_data_org
                0x00000000800945b0                mess_panel_tex_size
                0x00000000800945b8                mess_panel_lut
                0x00000000800947b8                mess_panel_tex
                0x0000000080097da0                _cached_1332
                0x0000000080097db0                D_80097DB0_cn
                0x0000000080097df0                D_80097DF0_cn
                0x0000000080097e00                main_segment_game_etc_data = .
 build/asm/cn/data/main_segment/game_etc.data.o(.data)
 .data          0x0000000080097e00      0x1f0 build/asm/cn/data/main_segment/game_etc.data.o
                0x0000000080097e00                pause_table
                0x0000000080097e30                cont_table
                0x0000000080097e90                etc_parts_tbl
                0x0000000080097ed0                x2p
                0x0000000080097ed8                x4p
                0x0000000080097ee8                etc_vp
                0x0000000080097ef8                etc_setup
                0x0000000080097f90                col_prim_434
                0x0000000080097fc0                col_env_435
                0x0000000080097ff0                main_segment_07FD20_data = .
 build/asm/cn/data/main_segment/07FD20.data.o(.data)
 .data          0x0000000080097ff0       0x30 build/asm/cn/data/main_segment/07FD20.data.o
                0x0000000080097ff0                D_80097FF0_cn
                0x0000000080098020                main_segment_screen_print_debug_print = .
 build/src/main_segment/screen_print/debug_print.o(.data)
 .data          0x0000000080098020     0x10a0 build/src/main_segment/screen_print/debug_print.o
                0x0000000080098020                sDebugPrintFontTex
                0x0000000080098f20                sDebugPrintFontMap
                0x0000000080098fe0                D_8008E290
                0x0000000080099090                D_8008E340
                0x00000000800990a8                sPrinterCallbacks
                0x00000000800990b4                sPrinterInstance
                0x00000000800990c0                main_segment_debug_menu = .
 build/src/main_segment/debug_menu.o(.data)
 .data          0x00000000800990c0      0x260 build/src/main_segment/debug_menu.o
                0x00000000800990c0                D_8008E370
                0x00000000800990d0                D_8008E380
                0x00000000800990e8                D_8008E398
                0x0000000080099108                D_8008E3B8
                0x0000000080099110                D_8008E3C0
                0x0000000080099150                D_8008E400
                0x0000000080099170                D_8008E420
                0x00000000800991a4                D_8008E454
                0x00000000800991d0                D_8008E480
                0x00000000800991e0                D_8008E490
                0x00000000800991f0                D_8008E4A0
                0x00000000800991fc                D_8008E4AC
                0x000000008009922c                D_8008E4DC
                0x0000000080099240                D_8008E4F0
                0x0000000080099258                D_8008E508
                0x0000000080099288                D_8008E538
                0x0000000080099290                D_80099290_cn
                0x0000000080099298                D_8008E548
                0x00000000800992a8                D_8008E558
                0x00000000800992b8                D_8008E568
                0x00000000800992c4                D_8008E574
                0x00000000800992cc                D_8008E57C
                0x00000000800992d4                D_8008E584
                0x00000000800992e0                D_8008E590
                0x00000000800992e8                D_8008E598
                0x00000000800992f0                D_8008E5A0
                0x0000000080099300                D_8008E5B0
                0x0000000080099304                D_8008E5B4
                0x0000000080099320                main_segment_028820 = .
 build/src/main_segment/028820.o(.data)
 .data          0x0000000080099320       0x10 build/src/main_segment/028820.o
                0x0000000080099320                D_8008E5D0
                0x0000000080099330                main_segment_tex_func = .
 build/src/main_segment/tex_func.o(.data)
 .data          0x0000000080099330      0x190 build/src/main_segment/tex_func.o
                0x0000000080099330                D_8008E5E0
                0x00000000800993a0                alpha_texture_init_dl
                0x0000000080099408                normal_texture_init_dl
                0x0000000080099478                D_8008E728
                0x0000000080099498                init_dl_155
                0x00000000800994c0                main_segment_main_menu = .
 build/src/main_segment/main_menu.o(.data)
 .data          0x00000000800994c0      0x150 build/src/main_segment/main_menu.o
                0x00000000800994c0                _yn_1767
                0x00000000800994c8                _type_1949
                0x00000000800994d8                _menuMain_lastMode
                0x00000000800994dc                _tblMain_5279
                0x00000000800994ec                _tblPlay1_5280
                0x0000000080099504                _tblPlay2_5281
                0x0000000080099510                D_8008E7C0
                0x0000000080099520                _tblBaTyp_5282
                0x000000008009952c                _tblOpt_5283
                0x0000000080099540                _tblTutol_5284
                0x0000000080099554                _tblSound_5285
                0x0000000080099564                _tblMisc_5286
                0x0000000080099570                _loopTbl_5287
                0x00000000800995b0                mes_5577
                0x00000000800995bc                _nameEntry_charTable
                0x00000000800995c0                _code_9711
                0x00000000800995e8                _posX_tbl_9716
                0x0000000080099604                _menuAll_lastMode
                0x0000000080099610                main_segment_font = .
 build/src/main_segment/font.o(.data)
 .data          0x0000000080099610    0x258a0 build/src/main_segment/font.o
                0x0000000080099610                font_a_tex
                0x000000008009f0a0                font_2_tex
                0x00000000800aa5c0                font_e_tex
                0x00000000800abbc8                font_e2_tex
                0x00000000800ae7d8                font_grade_tex
                0x00000000800ae820                D_800A3AD0
                0x00000000800ae920                D_800A3BD0
                0x00000000800aea20                char_code_tbl
                0x00000000800b1ae0                D_800A6D90
                0x00000000800b1cc0                D_800B1CC0_cn
                0x00000000800b1cc4                D_800B1CC4_cn
                0x00000000800b2270                D_800B2270_cn
                0x00000000800beea0                _tbl_133
                0x00000000800beeb0                main_segment_0A6BE0_data = .
 build/asm/cn/data/main_segment/0A6BE0.data.o(.data)
 .data          0x00000000800beeb0     0x4c10 build/asm/cn/data/main_segment/0A6BE0.data.o
                0x00000000800beeb0                virus_anime_table
                0x00000000800beebc                dm_chaine_se_table_vs_178
                0x00000000800beec0                dm_chaine_se_table_4p_179
                0x00000000800beecc                D_800BEECC_cn
                0x00000000800beedc                D_800BEEDC_cn
                0x00000000800beef4                D_800A6FC4
                0x00000000800beef8                visible_fall_point
                0x00000000800bef08                D_800BEF08_cn
                0x00000000800bef0c                D_800BEF0C_cn
                0x00000000800bef20                _mesEasyCont
                0x00000000800bef74                _mesEasyNoCont
                0x00000000800befd8                _mesNormalCont
                0x00000000800bf030                _mesNormalNoCont
                0x00000000800bf094                _mesHardCont
                0x00000000800bf0e8                _mesHardNoCont
                0x00000000800bf18c                _mesSHardCont
                0x00000000800bf1e0                _mesSHardNoCont
                0x00000000800bf25c                _n_1199
                0x00000000800bf268                D_800BF268_cn
                0x00000000800bf27c                D_800BF27C_cn
                0x00000000800bf280                D_800BF280_cn
                0x00000000800bf281                D_800BF281_cn
                0x00000000800bf282                D_800BF282_cn
                0x00000000800bf283                D_800BF283_cn
                0x00000000800bf290                title_demo_flg
                0x00000000800bf294                title_demo_no
                0x00000000800bf298                title_manual_no
                0x00000000800bf29b                D_800BF29B_cn
                0x00000000800bf29c                title_exit_flag
                0x00000000800bf2c0                curtain_alpha_00_tex
                0x00000000800bf5c0                curtain_00_tex
                0x00000000800c01c0                changestar_tex
                0x00000000800c09c0                title_bmp_tbl
                0x00000000800c09cc                mess_heap
                0x00000000800c09d0                st_staffroll_txt
                0x00000000800c1168                D_800C1168_cn
                0x00000000800c1198                D_800C1198_cn
                0x00000000800c11d0                D_800C11D0_cn
                0x00000000800c11e8                D_800C11E8_cn
                0x00000000800c1218                D_800C1218_cn
                0x00000000800c1250                D_800C1250_cn
                0x00000000800c1280                D_800C1280_cn
                0x00000000800c12a0                D_800C12A0_cn
                0x00000000800c12dc                D_800C12DC_cn
                0x00000000800c1308                D_800C1308_cn
                0x00000000800c1324                D_800C1324_cn
                0x00000000800c135c                D_800C135C_cn
                0x00000000800c139c                D_800C139C_cn
                0x00000000800c13e0                D_800C13E0_cn
                0x00000000800c1418                D_800C1418_cn
                0x00000000800c1450                D_800C1450_cn
                0x00000000800c147c                D_800C147C_cn
                0x00000000800c1494                D_800C1494_cn
                0x00000000800c14c0                D_800C14C0_cn
                0x00000000800c14ec                D_800C14EC_cn
                0x00000000800c1524                D_800C1524_cn
                0x00000000800c1550                D_800C1550_cn
                0x00000000800c158c                D_800C158C_cn
                0x00000000800c15cc                D_800C15CC_cn
                0x00000000800c160c                D_800C160C_cn
                0x00000000800c164c                D_800C164C_cn
                0x00000000800c168c                D_800C168C_cn
                0x00000000800c16bc                D_800C16BC_cn
                0x00000000800c16d4                D_800C16D4_cn
                0x00000000800c170c                D_800C170C_cn
                0x00000000800c1748                D_800C1748_cn
                0x00000000800c1760                D_800C1760_cn
                0x00000000800c1798                D_800C1798_cn
                0x00000000800c17c8                D_800C17C8_cn
                0x00000000800c17fc                D_800C17FC_cn
                0x00000000800c1820                D_800C1820_cn
                0x00000000800c1850                D_800C1850_cn
                0x00000000800c1884                D_800C1884_cn
                0x00000000800c18bc                D_800C18BC_cn
                0x00000000800c18d8                D_800C18D8_cn
                0x00000000800c1908                D_800C1908_cn
                0x00000000800c1938                D_800C1938_cn
                0x00000000800c196c                D_800C196C_cn
                0x00000000800c1994                D_800C1994_cn
                0x00000000800c19cc                D_800C19CC_cn
                0x00000000800c19fc                D_800C19FC_cn
                0x00000000800c1a18                D_800C1A18_cn
                0x00000000800c1a3c                D_800C1A3C_cn
                0x00000000800c1a70                D_800C1A70_cn
                0x00000000800c1aa0                D_800C1AA0_cn
                0x00000000800c1ad4                D_800C1AD4_cn
                0x00000000800c1b04                D_800C1B04_cn
                0x00000000800c1b40                D_800C1B40_cn
                0x00000000800c1b60                D_800C1B60_cn
                0x00000000800c1b88                D_800C1B88_cn
                0x00000000800c1bac                D_800C1BAC_cn
                0x00000000800c1bd8                D_800C1BD8_cn
                0x00000000800c1bf4                D_800C1BF4_cn
                0x00000000800c1c1c                D_800C1C1C_cn
                0x00000000800c1c60                D_800C1C60_cn
                0x00000000800c1c8c                D_800C1C8C_cn
                0x00000000800c1cbc                D_800C1CBC_cn
                0x00000000800c1cdc                D_800C1CDC_cn
                0x00000000800c1d0c                D_800C1D0C_cn
                0x00000000800c1d30                D_800C1D30_cn
                0x00000000800c1d64                D_800C1D64_cn
                0x00000000800c1d80                D_800C1D80_cn
                0x00000000800c1da8                D_800C1DA8_cn
                0x00000000800c1dd8                D_800C1DD8_cn
                0x00000000800c1df4                D_800C1DF4_cn
                0x00000000800c1e1c                D_800C1E1C_cn
                0x00000000800c1e48                D_800C1E48_cn
                0x00000000800c1e70                D_800C1E70_cn
                0x00000000800c1ea4                D_800C1EA4_cn
                0x00000000800c1ed4                D_800C1ED4_cn
                0x00000000800c1f00                D_800C1F00_cn
                0x00000000800c1f30                D_800C1F30_cn
                0x00000000800c1f58                D_800C1F58_cn
                0x00000000800c1f88                D_800C1F88_cn
                0x00000000800c1f9c                D_800C1F9C_cn
                0x00000000800c1fbc                D_800C1FBC_cn
                0x00000000800c1fdc                D_800C1FDC_cn
                0x00000000800c2018                D_800C2018_cn
                0x00000000800c204c                D_800C204C_cn
                0x00000000800c2080                D_800C2080_cn
                0x00000000800c20b0                D_800C20B0_cn
                0x00000000800c20d0                D_800C20D0_cn
                0x00000000800c20f0                D_800C20F0_cn
                0x00000000800c211c                D_800C211C_cn
                0x00000000800c212c                D_800C212C_cn
                0x00000000800c2158                D_800C2158_cn
                0x00000000800c2168                D_800C2168_cn
                0x00000000800c219c                D_800C219C_cn
                0x00000000800c21d4                D_800C21D4_cn
                0x00000000800c21ec                D_800C21EC_cn
                0x00000000800c2228                D_800C2228_cn
                0x00000000800c2258                D_800C2258_cn
                0x00000000800c2280                D_800C2280_cn
                0x00000000800c22a0                D_800C22A0_cn
                0x00000000800c22e0                D_800C22E0_cn
                0x00000000800c2318                D_800C2318_cn
                0x00000000800c2358                D_800C2358_cn
                0x00000000800c2378                D_800C2378_cn
                0x00000000800c23b8                D_800C23B8_cn
                0x00000000800c23f8                D_800C23F8_cn
                0x00000000800c2428                D_800C2428_cn
                0x00000000800c2448                D_800C2448_cn
                0x00000000800c2478                D_800C2478_cn
                0x00000000800c24ac                D_800C24AC_cn
                0x00000000800c24d4                D_800C24D4_cn
                0x00000000800c2508                D_800C2508_cn
                0x00000000800c2548                D_800C2548_cn
                0x00000000800c2578                D_800C2578_cn
                0x00000000800c25b0                D_800C25B0_cn
                0x00000000800c25dc                D_800C25DC_cn
                0x00000000800c260c                D_800C260C_cn
                0x00000000800c2640                D_800C2640_cn
                0x00000000800c2660                D_800C2660_cn
                0x00000000800c2694                D_800C2694_cn
                0x00000000800c26c4                D_800C26C4_cn
                0x00000000800c26f8                D_800C26F8_cn
                0x00000000800c2718                D_800C2718_cn
                0x00000000800c2740                D_800C2740_cn
                0x00000000800c2754                D_800C2754_cn
                0x00000000800c276c                D_800C276C_cn
                0x00000000800c2798                D_800C2798_cn
                0x00000000800c27d8                D_800C27D8_cn
                0x00000000800c27f0                mes_data
                0x00000000800c2868                story_proc_no
                0x00000000800c286c                D_800C286C_cn
                0x00000000800c2880                EndingLastMessage
                0x00000000800c2884                story_time_cnt
                0x00000000800c2888                story_seq_step
                0x00000000800c288c                story_zoom
                0x00000000800c2890                story_curtain
                0x00000000800c2894                story_spot_cnt
                0x00000000800c2898                D_800AAD1C
                0x00000000800c289c                story_message_on
                0x00000000800c28a0                story_message_start
                0x00000000800c28a4                story_doing
                0x00000000800c28a8                bgtime
                0x00000000800c28b0                mes_time
                0x00000000800c28b4                D_800AAD38
                0x00000000800c28b8                story_buffer
                0x00000000800c28bc                story_z_buffer
                0x00000000800c28c0                objMtx_FF
                0x00000000800c28c4                D_800C28C4_cn
                0x00000000800c28d0                D_800C28D0_cn
                0x00000000800c28e0                story_setup
                0x00000000800c2978                snd_tbl_838
                0x00000000800c29e0                D_800C29E0_cn
                0x00000000800c2b74                D_800C2B74_cn
                0x00000000800c2cf0                D_800C2CF0_cn
                0x00000000800c2d34                D_800C2D34_cn
                0x00000000800c2d54                D_800C2D54_cn
                0x00000000800c2d6c                D_800C2D6C_cn
                0x00000000800c2d7c                D_800C2D7C_cn
                0x00000000800c2d8c                D_800C2D8C_cn
                0x00000000800c2d9c                D_800C2D9C_cn
                0x00000000800c2e1c                D_800C2E1C_cn
                0x00000000800c2ea0                D_800C2EA0_cn
                0x00000000800c2eac                D_800C2EAC_cn
                0x00000000800c2eb4                D_800C2EB4_cn
                0x00000000800c2f34                D_800C2F34_cn
                0x00000000800c2fc0                D_800C2FC0_cn
                0x00000000800c2fc2                D_800C2FC2_cn
                0x00000000800c37d0                D_800C37D0_cn
                0x00000000800c3890                D_800C3890_cn
                0x00000000800c38f8                D_800C38F8_cn
                0x00000000800c3980                D_800C3980_cn
                0x00000000800c39a8                D_800C39A8_cn
                0x00000000800c3a30                D_800C3A30_cn
                0x00000000800c3a58                D_800C3A58_cn
                0x00000000800c3a80                D_800C3A80_cn
                0x00000000800c3a84                D_800C3A84_cn
                0x00000000800c3aa0                D_800C3AA0_cn
                0x00000000800c3aac                D_800C3AAC_cn
                0x00000000800c3ab0                D_800C3AB0_cn
                0x00000000800c3ac0                main_segment_DATA_END = .
                0x0000000000034690                main_segment_DATA_SIZE = ABSOLUTE ((main_segment_DATA_END - main_segment_DATA_START))
                0x00000000800c3ac0                main_segment_RODATA_START = .
 build/src/main_segment/main.o(.rodata)
 .rodata        0x00000000800c3ac0       0x30 build/src/main_segment/main.o
 build/src/main_segment/sound.o(.rodata)
 .rodata        0x00000000800c3af0      0x2e0 build/src/main_segment/sound.o
                0x00000000800c3af0                _charSE_tbl
                0x00000000800c3b00                RO_800ACA20
                0x00000000800c3b60                gSndsEntries
 build/src/main_segment/graphic.o(.rodata)
 .rodata        0x00000000800c3dd0       0x20 build/src/main_segment/graphic.o
 build/src/main_segment/main1x.o(.rodata)
 .rodata        0x00000000800c3df0      0x190 build/src/main_segment/main1x.o
                0x00000000800c3df0                jtbl_800C3DF0
                0x00000000800c3e30                jtbl_800C3E30
                0x00000000800c3e70                jtbl_800C3E70
                0x00000000800c3eb0                jtbl_800C3EB0
                0x00000000800c3eec                _seqTbl_224
                0x00000000800c3ef8                _demoSeqTbl_225
                0x00000000800c3efc                StoryVirLv_226
                0x00000000800c3f1c                _charToAi_227
                0x00000000800c3f2c                _stageToChar_tbl_228
                0x00000000800c3f40                _story4PChar_tbl_229
                0x00000000800c3f48                _team_flg_230
                0x00000000800c3f54                GameSize_231
 build/src/main_segment/aiset.o(.rodata)
 .rodata        0x00000000800c3f80       0x90 build/src/main_segment/aiset.o
                0x00000000800c3f80                jtbl_800C3F80
                0x00000000800c3fb0                jtbl_800C3FB0
                0x00000000800c3fd8                RO_800C3FD8_cn
                0x00000000800c3fe8                wave_tbl_2879
 build/src/main_segment/record.o(.rodata)
 .rodata        0x00000000800c4010       0x70 build/src/main_segment/record.o
                0x00000000800c4010                eeprom_header
                0x00000000800c4014                eeprom_header_bits
                0x00000000800c4018                _defName
                0x00000000800c4020                jtbl_800C4020
                0x00000000800c4038                jtbl_800C4038
                0x00000000800c4050                jtbl_800C4050
                0x00000000800c4068                jtbl_800C4068
 build/src/main_segment/020D10_cn.o(.rodata)
 .rodata        0x00000000800c4080      0x170 build/src/main_segment/020D10_cn.o
                0x00000000800c4080                RO_800C4080_cn
                0x00000000800c4098                RO_800C4098_cn
                0x00000000800c4150                RO_800C4150_cn
 build/src/main_segment/game_etc.o(.rodata)
 .rodata        0x00000000800c41f0       0x10 build/src/main_segment/game_etc.o
                0x00000000800c41f0                RO_800C41F0_cn
                0x00000000800c41f8                RO_800C41F8_cn
 build/src/main_segment/debug_menu.o(.rodata)
 .rodata        0x00000000800c4200      0x860 build/src/main_segment/debug_menu.o
 build/src/main_segment/tex_func.o(.rodata)
 .rodata        0x00000000800c4a60       0x60 build/src/main_segment/tex_func.o
                0x00000000800c4a60                _modes_96
                0x00000000800c4a70                RO_800C4A70_cn
 build/src/main_segment/main_menu.o(.rodata)
 .rodata        0x00000000800c4ac0     0x34f0 build/src/main_segment/main_menu.o
                0x00000000800c4ac0                RO_800C4AC0_cn
                0x00000000800c4ac8                RO_800C4AC8_cn
                0x00000000800c4ad0                RO_800C4AD0_cn
                0x00000000800c4ae0                RO_800C4AE0_cn
                0x00000000800c4af8                RO_800C4AF8_cn
                0x00000000800c4b10                RO_800C4B10_cn
                0x00000000800c4b38                RO_800C4B38_cn
                0x00000000800c4b60                RO_800C4B60_cn
                0x00000000800c4b80                RO_800C4B80_cn
                0x00000000800c4bbc                RO_800C4BBC_cn
                0x00000000800c4bc0                _mesP1
                0x00000000800c4bd8                _mes2P
                0x00000000800c4bf0                _mes4P
                0x00000000800c4c14                _mesOpt
                0x00000000800c4c34                _mesSt
                0x00000000800c4d24                _mesLv
                0x00000000800c4dfc                _mesVsCom
                0x00000000800c4f00                _mesVcFlash
                0x00000000800c5004                _mesLvTaiQ
                0x00000000800c50f8                _mesLvTimeAt
                0x00000000800c51ac                _mesNs1
                0x00000000800c51f8                _mesNs2
                0x00000000800c520c                _mesVsMan
                0x00000000800c52e0                _mesVmFlash
                0x00000000800c5388                _mesVmTimeAt
                0x00000000800c5438                _mesVsNum
                0x00000000800c5448                _mesVs4P
                0x00000000800c5544                _mes4PTag
                0x00000000800c56b0                _mes4PFlash
                0x00000000800c578c                _mesRec
                0x00000000800c57a8                _mesTutol
                0x00000000800c57cc                _mesName
                0x00000000800c57f0                _mesVsCnt
                0x00000000800c5814                _mesSnd
                0x00000000800c585c                _mesBak
                0x00000000800c587c                _mesMisc
                0x00000000800c58a0                _mesRecMs1
                0x00000000800c58b8                _mesRecMs2
                0x00000000800c58d4                _mesRule1
                0x00000000800c58f0                _mesRule2
                0x00000000800c590c                _mesRule3
                0x00000000800c5928                _mesRule4
                0x00000000800c5944                _mesKotu
                0x00000000800c5960                _mesNameSel
                0x00000000800c5984                _mesNameErase
                0x00000000800c59e4                _mesNameErase2
                0x00000000800c5a04                _mesVsCnt2
                0x00000000800c5a20                _mesSound
                0x00000000800c5a3c                _mesStereo
                0x00000000800c5a54                _mesMono
                0x00000000800c5a6c                _mesDoErase
                0x00000000800c5ab0                _mesDoErase1
                0x00000000800c5ad4                _mesNoCont2
                0x00000000800c5af8                _mesNoCont3
                0x00000000800c5b1c                _mesNoCont4
                0x00000000800c5b40                _mesScore
                0x00000000800c5b68                _mesScoreOnOff
                0x00000000800c5b80                STR_800AF4C4
                0x00000000800c5b98                STR_800AF4EC
                0x00000000800c5bb0                RO_800C5BB0_cn
                0x00000000800c5bb4                RO_800C5BB4_cn
                0x00000000800c5bc8                RO_800C5BC8_cn
                0x00000000800c5bcc                RO_800C5BCC_cn
                0x00000000800c5bd0                jtbl_800C5BD0
                0x00000000800c5cf8                RO_800C5CF8_cn
                0x00000000800c5d70                RO_800C5D70_cn
                0x00000000800c5da0                RO_800C5DA0_cn
                0x00000000800c5ec0                jtbl_800C5EC0
                0x00000000800c5ee4                RO_800C5EE4_cn
                0x00000000800c5f28                RO_800C5F28_cn
                0x00000000800c6160                RO_800C6160_cn
                0x00000000800c616c                RO_800C616C_cn
                0x00000000800c6170                RO_800C6170_cn
                0x00000000800c6184                RO_800C6184_cn
                0x00000000800c6190                RO_800C6190_cn
                0x00000000800c61b0                RO_800C61B0_cn
                0x00000000800c61b4                RO_800C61B4_cn
                0x00000000800c61d0                RO_800C61D0_cn
                0x00000000800c61e0                RO_800C61E0_cn
                0x00000000800c61e4                RO_800C61E4_cn
                0x00000000800c6200                RO_800C6200_cn
                0x00000000800c6201                RO_800C6201_cn
                0x00000000800c6208                RO_800C6208_cn
                0x00000000800c6210                RO_800C6210_cn
                0x00000000800c6218                RO_800C6218_cn
                0x00000000800c6220                RO_800C6220_cn
                0x00000000800c6228                RO_800C6228_cn
                0x00000000800c6238                RO_800C6238_cn
                0x00000000800c6240                RO_800C6240_cn
                0x00000000800c6248                RO_800C6248_cn
                0x00000000800c6270                RO_800C6270_cn
                0x00000000800c6278                RO_800C6278_cn
                0x00000000800c6284                RO_800C6284_cn
                0x00000000800c62ac                RO_800C62AC_cn
                0x00000000800c62b4                RO_800C62B4_cn
                0x00000000800c62bc                RO_800C62BC_cn
                0x00000000800c62d0                RO_800C62D0_cn
                0x00000000800c62d8                RO_800C62D8_cn
                0x00000000800c62dc                RO_800C62DC_cn
                0x00000000800c62ec                RO_800C62EC_cn
                0x00000000800c62f4                RO_800C62F4_cn
                0x00000000800c6304                RO_800C6304_cn
                0x00000000800c636c                RO_800C636C_cn
                0x00000000800c637c                RO_800C637C_cn
                0x00000000800c638c                RO_800C638C_cn
                0x00000000800c639c                RO_800C639C_cn
                0x00000000800c63a0                RO_800C63A0_cn
                0x00000000800c63ac                RO_800C63AC_cn
                0x00000000800c63b0                RO_800C63B0_cn
                0x00000000800c63bc                RO_800C63BC_cn
                0x00000000800c63c0                RO_800C63C0_cn
                0x00000000800c63cc                RO_800C63CC_cn
                0x00000000800c63d0                RO_800C63D0_cn
                0x00000000800c63dc                RO_800C63DC_cn
                0x00000000800c63e0                RO_800C63E0_cn
                0x00000000800c63ec                RO_800C63EC_cn
                0x00000000800c63f0                RO_800C63F0_cn
                0x00000000800c63fc                RO_800C63FC_cn
                0x00000000800c6404                RO_800C6404_cn
                0x00000000800c6448                jtbl_800C6448
                0x00000000800c64bc                RO_800C64BC_cn
                0x00000000800c64f8                RO_800C64F8_cn
                0x00000000800c6538                RO_800C6538_cn
                0x00000000800c6540                RO_800C6540_cn
                0x00000000800c6548                RO_800C6548_cn
                0x00000000800c6549                RO_800C6549_cn
                0x00000000800c655c                RO_800C655C_cn
                0x00000000800c656c                RO_800C656C_cn
                0x00000000800c66b8                RO_800C66B8_cn
                0x00000000800c66c8                RO_800C66C8_cn
                0x00000000800c66e0                RO_800C66E0_cn
                0x00000000800c66ec                RO_800C66EC_cn
                0x00000000800c66fc                RO_800C66FC_cn
                0x00000000800c6708                RO_800C6708_cn
                0x00000000800c671c                RO_800C671C_cn
                0x00000000800c6724                RO_800C6724_cn
                0x00000000800c673c                RO_800C673C_cn
                0x00000000800c6748                RO_800C6748_cn
                0x00000000800c675c                RO_800C675C_cn
                0x00000000800c6768                RO_800C6768_cn
                0x00000000800c6770                RO_800C6770_cn
                0x00000000800c677c                RO_800C677C_cn
                0x00000000800c6788                jtbl_800C6788
                0x00000000800c68b0                jtbl_800C68B0
                0x00000000800c69a0                RO_800C69A0_cn
                0x00000000800c69b0                RO_800C69B0_cn
                0x00000000800c69c8                RO_800C69C8_cn
                0x00000000800c69e0                RO_800C69E0_cn
                0x00000000800c69ec                RO_800C69EC_cn
                0x00000000800c69f0                RO_800C69F0_cn
                0x00000000800c69f4                RO_800C69F4_cn
                0x00000000800c6a08                RO_800C6A08_cn
                0x00000000800c6a0c                RO_800C6A0C_cn
                0x00000000800c6a10                RO_800C6A10_cn
                0x00000000800c6a2c                RO_800C6A2C_cn
                0x00000000800c6a30                RO_800C6A30_cn
                0x00000000800c6a34                RO_800C6A34_cn
                0x00000000800c6a50                RO_800C6A50_cn
                0x00000000800c6a54                RO_800C6A54_cn
                0x00000000800c6a68                RO_800C6A68_cn
                0x00000000800c6a7c                RO_800C6A7C_cn
                0x00000000800c6a88                RO_800C6A88_cn
                0x00000000800c6a94                RO_800C6A94_cn
                0x00000000800c6aa0                RO_800C6AA0_cn
                0x00000000800c6aac                RO_800C6AAC_cn
                0x00000000800c6ab4                RO_800C6AB4_cn
                0x00000000800c6acc                RO_800C6ACC_cn
                0x00000000800c6ad8                RO_800C6AD8_cn
                0x00000000800c6ae0                jtbl_800C6AE0
                0x00000000800c6b00                jtbl_800C6B00
                0x00000000800c6c18                jtbl_800C6C18
                0x00000000800c6d40                jtbl_800C6D40
                0x00000000800c6d88                jtbl_800C6D88
                0x00000000800c6e78                jtbl_800C6E78
                0x00000000800c6f68                jtbl_800C6F68
                0x00000000800c6fc8                RO_800C6FC8_cn
                0x00000000800c6fe0                RO_800C6FE0_cn
                0x00000000800c6fe8                RO_800C6FE8_cn
                0x00000000800c6fec                RO_800C6FEC_cn
                0x00000000800c7078                RO_800C7078_cn
                0x00000000800c7088                RO_800C7088_cn
                0x00000000800c7098                RO_800C7098_cn
                0x00000000800c70d4                RO_800C70D4_cn
                0x00000000800c70e4                RO_800C70E4_cn
                0x00000000800c70f4                RO_800C70F4_cn
                0x00000000800c7184                RO_800C7184_cn
                0x00000000800c718c                RO_800C718C_cn
                0x00000000800c71c8                RO_800C71C8_cn
                0x00000000800c71e8                jtbl_800C71E8
                0x00000000800c7260                jtbl_800C7260
                0x00000000800c72d4                RO_800C72D4_cn
                0x00000000800c7310                jtbl_800C7310
                0x00000000800c7388                jtbl_800C7388
                0x00000000800c73fc                RO_800C73FC_cn
                0x00000000800c740c                RO_800C740C_cn
                0x00000000800c7414                RO_800C7414_cn
                0x00000000800c7424                RO_800C7424_cn
                0x00000000800c742c                RO_800C742C_cn
                0x00000000800c743c                RO_800C743C_cn
                0x00000000800c744c                RO_800C744C_cn
                0x00000000800c7470                jtbl_800C7470
                0x00000000800c74e8                jtbl_800C74E8
                0x00000000800c7560                jtbl_800C7560
                0x00000000800c75d4                RO_800B0F5C
                0x00000000800c76e8                jtbl_800C76E8
                0x00000000800c77e0                RO_800C77E0_cn
                0x00000000800c77f8                RO_800C77F8_cn
                0x00000000800c7800                jtbl_800C7800
                0x00000000800c781c                _posX_0_9712
                0x00000000800c7844                _posX_1_9713
                0x00000000800c7858                _posX_2_9714
                0x00000000800c7870                _posX_4_9715
                0x00000000800c7888                RO_800C7888_cn
                0x00000000800c7890                RO_800C7890_cn
                0x00000000800c7898                RO_800C7898_cn
                0x00000000800c78a8                RO_800C78A8_cn
                0x00000000800c78b4                RO_800C78B4_cn
                0x00000000800c78d0                jtbl_800C78D0
                0x00000000800c78e8                jtbl_800C78E8
                0x00000000800c7900                RO_800C7900_cn
                0x00000000800c7908                RO_800C7908_cn
                0x00000000800c7910                RO_800C7910_cn
                0x00000000800c7920                RO_800C7920_cn
                0x00000000800c7930                RO_800C7930_cn
                0x00000000800c7940                RO_800C7940_cn
                0x00000000800c7950                RO_800C7950_cn
                0x00000000800c795c                RO_800C795C_cn
                0x00000000800c7968                RO_800C7968_cn
                0x00000000800c7974                RO_800C7974_cn
                0x00000000800c7980                RO_800C7980_cn
                0x00000000800c798c                RO_800C798C_cn
                0x00000000800c7998                RO_800C7998_cn
                0x00000000800c79a8                RO_800C79A8_cn
                0x00000000800c79b8                RO_800C79B8_cn
                0x00000000800c79c8                RO_800C79C8_cn
                0x00000000800c79d8                RO_800C79D8_cn
                0x00000000800c79e8                RO_800C79E8_cn
                0x00000000800c79f8                jtbl_800C79F8
                0x00000000800c7a20                jtbl_800C7A20
                0x00000000800c7a48                jtbl_800C7A48
                0x00000000800c7a70                RO_800C7A70_cn
                0x00000000800c7a80                jtbl_800C7A80
                0x00000000800c7aa8                RO_800C7AA8_cn
                0x00000000800c7ab0                RO_800C7AB0_cn
                0x00000000800c7ab8                jtbl_800C7AB8
                0x00000000800c7b70                jtbl_800C7B70
                0x00000000800c7c78                jtbl_800C7C78
                0x00000000800c7d80                RO_800C7D80_cn
                0x00000000800c7d88                jtbl_800C7D88
                0x00000000800c7e90                RO_800C7E90_cn
                0x00000000800c7e98                RO_800C7E98_cn
                0x00000000800c7ea0                jtbl_800C7EA0
 build/src/main_segment/font.o(.rodata)
 .rodata        0x00000000800c7fb0       0x30 build/src/main_segment/font.o
                0x00000000800c7fb0                init_dl_135
 build/src/main_segment/msgwnd.o(.rodata)
 .rodata        0x00000000800c7fe0       0xc0 build/src/main_segment/msgwnd.o
                0x00000000800c7fe0                sMessageColorTable
                0x00000000800c8094                STR_800B1A54
 build/src/main_segment/char_anime.o(.rodata)
 .rodata        0x00000000800c80a0      0x140 build/src/main_segment/char_anime.o
                0x00000000800c80a0                _size_122
                0x00000000800c80f0                _addrTbl_124
                0x00000000800c8140                _centerTbl_125
 build/src/main_segment/dm_virus_init.o(.rodata)
 .rodata        0x00000000800c81e0       0x80 build/src/main_segment/dm_virus_init.o
                0x00000000800c81e0                RO_800B1BA0
                0x00000000800c81fc                _n_343
                0x00000000800c8200                RO_800B1BCC
                0x00000000800c8204                RO_800B1BD0
                0x00000000800c8240                jtbl_800C8240
 build/src/main_segment/dm_game_main.o(.rodata)
 .rodata        0x00000000800c8260      0x760 build/src/main_segment/dm_game_main.o
                0x00000000800c827c                rotate_table_399
                0x00000000800c828c                rotate_mtx_400
                0x00000000800c82a4                _speed_561
                0x00000000800c82a8                _retryMenu_itemCount
                0x00000000800c82b0                _big_virus_def_wait
                0x00000000800c82bc                RO_800C82BC_cn
                0x00000000800c82c8                RO_800C82C8_cn
                0x00000000800c82d4                RO_800C82D4_cn
                0x00000000800c82e8                _mesWriting
                0x00000000800c8300                STR_800B1CE0
                0x00000000800c8318                RO_800C8318_cn
                0x00000000800c8328                RO_800C8328_cn
                0x00000000800c832c                RO_800C832C_cn
                0x00000000800c8338                RO_800C8338_cn
                0x00000000800c8340                RO_800C8340_cn
                0x00000000800c8348                RO_800C8348_cn
                0x00000000800c836c                RO_800C836C_cn
                0x00000000800c838c                RO_800C838C_cn
                0x00000000800c8394                _posP4CharBase
                0x00000000800c83b4                RO_800C83B4_cn
                0x00000000800c83fc                RO_800C83FC_cn
                0x00000000800c848c                RO_800C848C_cn
                0x00000000800c849c                RO_800C849C_cn
                0x00000000800c84ac                RO_800C84AC_cn
                0x00000000800c84c8                RO_800C84C8_cn
                0x00000000800c84d0                attack_table_1531
                0x00000000800c84dc                RO_800C84DC_cn
                0x00000000800c84f8                jtbl_800C84F8
                0x00000000800c8620                RO_800C8620_cn
                0x00000000800c862c                RO_800C862C_cn
                0x00000000800c8630                RO_800C8630_cn
                0x00000000800c8638                RO_800C8638_cn
                0x00000000800c8640                jtbl_800C8640
                0x00000000800c8658                RO_800C8658_cn
                0x00000000800c8660                RO_800C8660_cn
                0x00000000800c8690                RO_800C8690_cn
                0x00000000800c8698                RO_800C8698_cn
                0x00000000800c86a0                RO_800C86A0_cn
                0x00000000800c86b0                RO_800C86B0_cn
                0x00000000800c86bc                RO_800C86BC_cn
                0x00000000800c86c8                RO_800C86C8_cn
                0x00000000800c86d4                RO_800C86D4_cn
                0x00000000800c86d8                RO_800C86D8_cn
                0x00000000800c86dc                RO_800C86DC_cn
                0x00000000800c86e4                RO_800C86E4_cn
                0x00000000800c86ec                RO_800C86EC_cn
                0x00000000800c8704                RO_800C8704_cn
                0x00000000800c8718                RO_800C8718_cn
                0x00000000800c8720                RO_800C8720_cn
                0x00000000800c8728                RO_800C8728_cn
                0x00000000800c8730                RO_800C8730_cn
                0x00000000800c8738                RO_800C8738_cn
                0x00000000800c8740                RO_800C8740_cn
                0x00000000800c8748                RO_800C8748_cn
                0x00000000800c8798                RO_800C8798_cn
                0x00000000800c87b0                RO_800C87B0_cn
                0x00000000800c87b8                jtbl_800C87B8
                0x00000000800c8810                jtbl_800C8810
                0x00000000800c8854                map_x_table_5383
                0x00000000800c886c                map_y_table_5384
                0x00000000800c8870                size_table_5385
                0x00000000800c88d4                RO_800C88D4_cn
                0x00000000800c88f0                RO_800C88F0_cn
                0x00000000800c88fc                RO_800C88FC_cn
                0x00000000800c8900                RO_800C8900_cn
                0x00000000800c8904                RO_800C8904_cn
                0x00000000800c8908                RO_800C8908_cn
                0x00000000800c8914                RO_800C8914_cn
                0x00000000800c8918                RO_800C8918_cn
                0x00000000800c8928                jtbl_800C8928
                0x00000000800c8948                jtbl_800C8948
                0x00000000800c8984                RO_800C8984_cn
                0x00000000800c898c                RO_800C898C_cn
                0x00000000800c8994                RO_800C8994_cn
                0x00000000800c89a0                jtbl_800C89A0
 build/src/main_segment/dm_manual_main.o(.rodata)
 .rodata        0x00000000800c89c0      0xb30 build/src/main_segment/dm_manual_main.o
                0x00000000800c89c0                RO_800B2408
                0x00000000800c89c8                RO_800B2410
                0x00000000800c89d0                RO_800B2418
                0x00000000800c89d8                RO_800B2420
                0x00000000800c89e0                RO_800B2428
                0x00000000800c89e8                RO_800B2430
                0x00000000800c89f0                RO_800B2438
                0x00000000800c89f8                RO_800B2440
                0x00000000800c8a00                virus_1_1
                0x00000000800c8a24                RO_800B246C
                0x00000000800c8a2c                RO_800B2474
                0x00000000800c8a34                position_1_1
                0x00000000800c8a44                virus_2_1
                0x00000000800c8a80                capsel_2_1
                0x00000000800c8a8c                position_2_1
                0x00000000800c8ab4                virus_3_1
                0x00000000800c8af0                capsel_3_1
                0x00000000800c8afc                position_3_1
                0x00000000800c8b24                virus_4_1
                0x00000000800c8b54                capsel_4_1
                0x00000000800c8b68                position_4_1
                0x00000000800c8ba8                mes_1_1
                0x00000000800c8bc8                mes_1_2
                0x00000000800c8c00                mes_1_3
                0x00000000800c8c68                mes_1_4
                0x00000000800c8c88                mes_1_5
                0x00000000800c8cc4                mes_1_6
                0x00000000800c8cec                mes_1_7
                0x00000000800c8d18                mes_1_8
                0x00000000800c8d3c                mes_2_1
                0x00000000800c8d6c                mes_2_2
                0x00000000800c8da0                mes_2_3
                0x00000000800c8dd4                mes_2_4
                0x00000000800c8dfc                mes_2_5
                0x00000000800c8e2c                mes_2_6
                0x00000000800c8e50                mes_2_7
                0x00000000800c8e94                mes_2_8
                0x00000000800c8eb4                mes_2_9
                0x00000000800c8ed8                mes_3_1
                0x00000000800c8f08                mes_3_2
                0x00000000800c8f3c                mes_3_3
                0x00000000800c8f70                mes_3_4
                0x00000000800c8f98                mes_3_5
                0x00000000800c8fc8                mes_3_6
                0x00000000800c8ffc                mes_3_7
                0x00000000800c9034                mes_3_8
                0x00000000800c906c                mes_3_9
                0x00000000800c90a0                mes_3_10
                0x00000000800c90d8                mes_3_11
                0x00000000800c9108                mes_3_12
                0x00000000800c9128                mes_3_13
                0x00000000800c914c                mes_3_14
                0x00000000800c917c                mes_3_15
                0x00000000800c91a0                mes_4_1
                0x00000000800c91c0                mes_4_2
                0x00000000800c91e8                mes_4_3
                0x00000000800c9218                mes_4_4
                0x00000000800c9248                mes_4_5
                0x00000000800c927c                mes_4_6
                0x00000000800c92b0                mes_4_7
                0x00000000800c92e8                mes_4_8
                0x00000000800c9308                mes_4_9
                0x00000000800c9334                mes_4_10
                0x00000000800c93e8                _tex_884
                0x00000000800c93f8                _pos_885
                0x00000000800c9408                RO_800C9408_cn
                0x00000000800c9420                RO_800C9420_cn
                0x00000000800c9428                _posContPanel
                0x00000000800c9430                _posCircle_924
                0x00000000800c9450                _posFinger_925
                0x00000000800c9470                map_x_table_1036
                0x00000000800c9488                _seqTbl_1037
                0x00000000800c948c                map_y_table_1038
                0x00000000800c9490                size_table_1039
                0x00000000800c9498                jtbl_800C9498
                0x00000000800c94b0                RO_800C94B0_cn
                0x00000000800c94b8                RO_800C94B8_cn
                0x00000000800c94c0                jtbl_800C94C0
 build/src/main_segment/dm_title_main.o(.rodata)
 .rodata        0x00000000800c94f0       0x90 build/src/main_segment/dm_title_main.o
                0x00000000800c94f0                _stageTbl
                0x00000000800c9520                STR_800B32A8
                0x00000000800c9540                _mesBootContErr
                0x00000000800c954c                _mesBootCSumErr
 build/src/main_segment/main_story.o(.rodata)
 .rodata        0x00000000800c9580       0x80 build/src/main_segment/main_story.o
                0x00000000800c9588                jtbl_800C9588
 build/src/main_segment/calc.o(.rodata)
 .rodata        0x00000000800c9600       0x50 build/src/main_segment/calc.o
                0x00000000800c9600                RO_800C9600_cn
                0x00000000800c9608                RO_800C9608_cn
                0x00000000800c9610                RO_800C9610_cn
                0x00000000800c9618                RO_800C9618_cn
                0x00000000800c9620                RO_800C9620_cn
                0x00000000800c9630                RO_800C9630_cn
                0x00000000800c9638                RO_800C9638_cn
                0x00000000800c9640                RO_800C9640_cn
 build/src/main_segment/065080.o(.rodata)
 .rodata        0x00000000800c9650       0x40 build/src/main_segment/065080.o
                0x00000000800c9650                RO_800C9650_cn
                0x00000000800c9658                RO_800C9658_cn
                0x00000000800c9660                RO_800C9660_cn
                0x00000000800c9668                RO_800C9668_cn
                0x00000000800c9670                RO_800C9670_cn
                0x00000000800c9678                RO_800C9678_cn
                0x00000000800c9680                RO_800C9680_cn
 build/asm/cn/data/main_segment/072880.rodata.o(.rodata)
 .rodata        0x00000000800c9690       0x80 build/asm/cn/data/main_segment/072880.rodata.o
                0x00000000800c9690                RO_800C9690_cn
                0x00000000800c9698                RO_800C9698_cn
                0x00000000800c96a0                RO_800C96A0_cn
                0x00000000800c96a8                RO_800C96A8_cn
                0x00000000800c96b0                RO_800C96B0_cn
                0x00000000800c96b8                RO_800C96B8_cn
                0x00000000800c96c0                RO_800C96C0_cn
                0x00000000800c96c8                RO_800C96C8_cn
                0x00000000800c96d0                RO_800C96D0_cn
                0x00000000800c96d8                RO_800C96D8_cn
                0x00000000800c96e0                RO_800C96E0_cn
                0x00000000800c96e8                RO_800C96E8_cn
                0x00000000800c96f0                RO_800C96F0_cn
                0x00000000800c96f8                RO_800C96F8_cn
                0x00000000800c9700                RO_800C9700_cn
 build/asm/cn/data/main_segment/075D50.rodata.o(.rodata)
 .rodata        0x00000000800c9710       0x10 build/asm/cn/data/main_segment/075D50.rodata.o
                0x00000000800c9710                RO_800C9710_cn
 build/asm/cn/data/rsp/aspMain.rodata.o(.rodata)
 .rodata        0x00000000800c9720      0x2c0 build/asm/cn/data/rsp/aspMain.rodata.o
                0x00000000800c9720                aspMainDataStart
                0x00000000800c99e0                aspMainDataEnd
 build/asm/cn/data/rsp/f3dex2.rodata.o(.rodata)
 .rodata        0x00000000800c99e0      0x420 build/asm/cn/data/rsp/f3dex2.rodata.o
                0x00000000800c99e0                gspF3DEX2_fifoDataStart
                0x00000000800c9e00                gspF3DEX2_fifoDataEnd
 build/asm/cn/data/rsp/s2dex.rodata.o(.rodata)
 .rodata        0x00000000800c9e00      0x3c0 build/asm/cn/data/rsp/s2dex.rodata.o
                0x00000000800c9e00                gspS2DEX_fifoDataStart
                0x00000000800ca1c0                gspS2DEX_fifoDataEnd
                0x00000000800ca1c0                main_segment_RODATA_END = .
                0x0000000000006700                main_segment_RODATA_SIZE = ABSOLUTE ((main_segment_RODATA_END - main_segment_RODATA_START))
                0x00000000800ca1c0                main_segment_bss_VRAM = ADDR (.main_segment_bss)

.main_segment_bss
                0x00000000800ca1c0    0x716b0 load address 0x00000000000b1ef0
                0x00000000800ca1c0                main_segment_BSS_START = .
 build/asm/cn/data/main_segment/800CA1C0.bss.o(.bss)
 .bss           0x00000000800ca1c0    0x31e80 build/asm/cn/data/main_segment/800CA1C0.bss.o
                0x00000000800ca1c0                B_800CA1C0_cn
                0x00000000800ca1c4                B_800CA1C4_cn
                0x00000000800ca1c8                B_800CA1C8_cn
                0x00000000800ca1ca                B_800E9BB6
                0x00000000800ca1cc                B_800CA1CC_cn
                0x00000000800ca1d0                attack_sprite_idx
                0x00000000800ca1d4                main_old
                0x00000000800ca1d8                B_800CA1D8_cn
                0x00000000800ca1dc                B_800CA1DC_cn
                0x00000000800ca1e0                main_no
                0x00000000800ca1e4                gGfxHead
                0x00000000800ca1ec                PlayTime
                0x00000000800ca1f0                B_800CA1F0_cn
                0x00000000800ca1f4                B_800CA1F4_cn
                0x00000000800ca1f5                B_800CA1F5_cn
                0x00000000800ca1f8                main_joy
                0x00000000800ca1fc                B_800ED430
                0x00000000800ca200                gameBackup
                0x00000000800ca208                attack_effect_idx
                0x00000000800ca20c                B_800CA20C_cn
                0x00000000800ca210                fool_mode
                0x00000000800ca214                joycur1
                0x00000000800ca216                decide
                0x00000000800ca218                evs_gamesel
                0x00000000800ca21c                evs_playmax
                0x00000000800ca220                pObjectMtx
                0x00000000800ca224                joycur2
                0x00000000800ca226                B_800CA226_cn
                0x00000000800ca228                B_800CA228_cn
                0x00000000800ca22a                B_800CA22A_cn
                0x00000000800ca22c                watchGame
                0x00000000800ca230                B_800CA230_cn
                0x00000000800ca232                B_800CA232_cn
                0x00000000800ca234                B_800CA234_cn
                0x00000000800ca23c                B_800CA23C_cn
                0x00000000800ca240                B_800F3E60
                0x00000000800ca244                link_joy
                0x00000000800ca248                B_800CA248_cn
                0x00000000800ca250                watchManual
                0x00000000800ca254                B_800CA254_cn
                0x00000000800ca258                B_800F48B0
                0x00000000800ca260                joygam
                0x00000000800ca268                gameGeom
                0x00000000800ca26c                B_800CA26C_cn
                0x00000000800ca270                MissRate
                0x00000000800ca274                B_800CA274_cn
                0x00000000800ca278                joyflg
                0x00000000800ca280                B_800CA280_cn
                0x00000000800ca281                B_800CA281_cn
                0x00000000800ca284                s_hard_mode
                0x00000000800ca288                attack_sprite_address
                0x00000000800ca28c                B_800CA28C_cn
                0x00000000800ca290                B_800CA290_cn
                0x00000000800ca294                gfx_gtask_no
                0x00000000800ca298                B_800CA298_cn
                0x00000000800ca29c                B_800CA29C_cn
                0x00000000800ca29d                B_800CA29B_cn
                0x00000000800ca2a0                joygmf
                0x00000000800ca2a4                B_800CA2A4_cn
                0x00000000800ca2a6                B_800CA2A6_cn
                0x00000000800ca2a8                evs_select_name_no
                0x00000000800ca2aa                B_800CA2AA_cn
                0x00000000800ca2ac                B_800FAF94
                0x00000000800ca2b0                gAudio_800FAF98
                0x00000000800ca2b4                B_800CA2B4_cn
                0x00000000800ca2b6                B_800CA2B6_cn
                0x00000000800ca2b8                evs_game_time
                0x00000000800ca2bc                evs_gamemode
                0x00000000800ca2c0                B_800CA2C0_cn
                0x00000000800ca2d0                B_800B3640
                0x00000000800fb2d0                mt
                0x00000000800fbc90                B_800FBC90_cn
                0x00000000800fbc94                B_800FBC94_cn
                0x00000000800fbe24                B_800FBE24_cn
                0x00000000800fbe28                B_800FBE28_cn
                0x00000000800fbe2c                B_800FBE2C_cn
                0x00000000800fbe30                _cache_1333
                0x00000000800fc030                B_800FC030_cn
 build/asm/cn/data/main_segment/game_etc.bss.o(.bss)
 .bss           0x00000000800fc040      0x4a0 build/asm/cn/data/main_segment/game_etc.bss.o
                0x00000000800fc040                binCount
                0x00000000800fc044                cont_bg_flg
                0x00000000800fc048                etcTexAddress
                0x00000000800fc04c                etcLwsAddress
                0x00000000800fc050                etcLwsTbl
                0x00000000800fc090                logo_ofsY
                0x00000000800fc094                etc_mode
                0x00000000800fc098                g_etc_work
                0x00000000800fc458                B_800FC458_cn
                0x00000000800fc498                etc_viewMtx
                0x00000000800fc4d8                D_800FC4D8
 build/asm/cn/data/main_segment/800FC4E0.bss.o(.bss)
 .bss           0x00000000800fc4e0    0x3f390 build/asm/cn/data/main_segment/800FC4E0.bss.o
                0x00000000800fc4e0                sPrinterState
                0x00000000800fc500                B_800E58B0
                0x00000000800fc504                B_800E58B4
                0x00000000800fc508                B_800E58B8
                0x00000000800fc50c                B_800E58BC
                0x00000000800fc510                B_800E58C0
                0x00000000800fc560                B_800E5910
                0x00000000800fc564                B_800E5914
                0x00000000800fc568                B_800E5918
                0x00000000800fc56c                B_800E591C
                0x00000000800fc570                B_800E5920
                0x00000000800fc574                B_800E5924
                0x00000000800fc578                B_800E5928
                0x00000000800fc57c                B_800E592C
                0x00000000800fc580                B_800E5930
                0x00000000800fc584                B_800E5934
                0x00000000800fc588                B_800E5938
                0x00000000800fc5b8                B_800E5968
                0x00000000800fc5ba                D_800FC5BA
                0x00000000800fc5bc                B_800E596C
                0x00000000800fc5c0                B_800E5970
                0x00000000800fc5d0                heapTop
                0x00000000800fc5e0                _texAll
                0x00000000800fc5e4                _texKaSa
                0x00000000800fc5f0                title_mode_type
                0x00000000800fc5f4                title_fade_count
                0x00000000800fc5f8                title_fade_step
                0x00000000800fc600                fin_frame_440
                0x00000000800fc604                fin_demo_441
                0x00000000800fc608                fin_frame_543
                0x00000000800fc60c                fin_frame_568
                0x00000000800fc610                fin_demo_569
                0x00000000800fc614                fin_frame_623
                0x00000000800fc618                fin_demo_624
                0x00000000800fc61c                fin_frame_667
                0x00000000800fc620                fin_frame_737
                0x00000000800fc624                fin_frame_768
                0x00000000800fc628                title_time
                0x00000000800fc62c                title_wait
                0x00000000800fc630                title_data
                0x00000000800fc634                title_bmp_data
                0x00000000800fc638                lws_data
                0x00000000800fc63c                lws_scene
                0x00000000800fc640                mess_st
                0x00000000800fc6c0                mess_roll_st
                0x00000000800fc740                B_800E5AF0
                0x00000000800fcb40                mess_roll_heap
                0x00000000800fcb44                st_message_count
                0x00000000800fcb48                st_mes_ptr
                0x00000000800fcb4c                loop_flg
                0x00000000800fcb50                story_staff_roll
                0x00000000800fcb54                story_norm
                0x00000000800fcb58                story_viewMtx
                0x00000000800fcb98                story_objectMtx
                0x00000000800ff398                wakuGraphic
                0x00000000800ff3ec                bgGraphic
                0x00000000800ff3f0                storyGraphic
                0x00000000800ff3f4                messageData
                0x00000000800ff3f8                first_copy
                0x00000000800ff400                AnimProc
                0x0000000080100400                B_80100400_cn
                0x0000000080100404                B_80100404_cn
                0x0000000080100406                B_80100406_cn
                0x00000000801004dc                B_801004DC_cn
                0x00000000801004e0                rec_buff
                0x00000000801004e4                pRecBuff
                0x00000000801004f4                oldCont
                0x00000000801004fc                RecPos
                0x000000008010050c                PlayPos
                0x000000008010051c                WaitTime
                0x000000008010052c                max_rec
                0x0000000080100530                replay_player
                0x0000000080100534                D_80100534
                0x0000000080100540                B_80100540_cn
                0x0000000080100554                B_80100554_cn
                0x0000000080100558                B_80100558_cn
                0x000000008010055c                B_8010055C_cn
                0x0000000080100560                B_80100560_cn
                0x0000000080100564                B_80100564_cn
                0x0000000080100568                B_80100568_cn
                0x000000008010056c                B_8010056C_cn
                0x000000008010056e                B_8010056E_cn
                0x0000000080100570                B_80100570_cn
                0x0000000080100574                B_80100574_cn
                0x0000000080100578                B_80100578_cn
                0x000000008010057c                B_8010057C_cn
                0x0000000080100580                B_80100580_cn
                0x0000000080100584                B_80100584_cn
                0x0000000080100588                B_80100588_cn
                0x000000008010058c                B_8010058C_cn
                0x0000000080100590                B_80100590_cn
                0x0000000080100594                B_80100594_cn
                0x0000000080100598                B_80100598_cn
                0x000000008010059c                B_8010059C_cn
                0x00000000801005a0                B_801005A0_cn
                0x00000000801005b0                B_801005B0_cn
                0x00000000801005b4                B_801005B4_cn
                0x00000000801005b8                B_801005B8_cn
                0x00000000801005bc                B_801005BC_cn
                0x00000000801005c0                B_801005C0_cn
                0x00000000801005c4                B_801005C4_cn
                0x00000000801005c8                B_801005C8_cn
                0x00000000801005cc                B_801005CC_cn
                0x00000000801005e4                B_801005E4_cn
                0x00000000801005f0                B_801005F0_cn
                0x00000000801005f4                B_801005F4_cn
                0x0000000080100600                B_80100600_cn
                0x00000000801007b0                B_801007B0_cn
                0x00000000801007b4                B_801007B4_cn
                0x00000000801007b8                B_801007B8_cn
                0x00000000801007c0                B_801007C0_cn
                0x00000000801007c4                B_801007C4_cn
                0x00000000801007d0                B_801007D0_cn
                0x00000000801007d4                B_801007D4_cn
                0x00000000801007dc                B_801007DC_cn
                0x00000000801007e0                ai_char_data
                0x000000008010084c                B_8010084C_cn
                0x0000000080100cf0                B_80100CF0_cn
                0x0000000080100ea0                B_800EA290
                0x00000000801020e4                D_801020E4
                0x00000000801020e8                B_801020E8_cn
                0x0000000080102268                B_80102268_cn
                0x00000000801023e8                B_800EB4D8
                0x0000000080102400                aiRecurData
                0x0000000080102568                B_800EB670
                0x0000000080102be8                gControllerHoldButtons
                0x0000000080102bf4                B_80102BF4_cn
                0x0000000080102bf5                B_80102BF5_cn
                0x0000000080102bf6                B_80102BF6_cn
                0x0000000080102bf7                B_80102BF7_cn
                0x0000000080102bfd                B_80102BFB_cn
                0x0000000080102c00                sGraphicThread
                0x0000000080102db0                B_800EBED0
                0x0000000080102dd0                game_map_data
                0x0000000080104310                B_800ED440
                0x0000000080106310                CapsMagazine
                0x0000000080106410                evs_mem_data
                0x0000000080106b60                B_80106B60_cn
                0x0000000080106b80                B_800EFCE0
                0x0000000080108b80                aiFieldData
                0x0000000080108c90                evs_default_name
                0x0000000080108cb0                sGraphicStack
                0x000000008010acb0                B_8010ACB0_cn
                0x000000008010b110                B_800F3E38
                0x000000008010b128                gControllerPrevHoldButtons
                0x000000008010b134                B_8010B134_cn
                0x000000008010b135                B_8010B135_cn
                0x000000008010b136                B_8010B136_cn
                0x000000008010b137                B_8010B137_cn
                0x000000008010b139                B_8010B139_cn
                0x000000008010b13d                B_8010B13B_cn
                0x000000008010b140                B_8010B140_cn
                0x000000008010b180                attack_sprite
                0x000000008010bb80                B_800F4898
                0x000000008010bb98                joycur
                0x000000008010bba4                ai_param
                0x000000008010c624                B_800F5358
                0x000000008010c634                aiFlag
                0x000000008010c635                B_8010C635_cn
                0x000000008010c63c                B_8010C63C_cn
                0x000000008010df34                B_8010DF34_cn
                0x000000008010df35                B_8010DF35_cn
                0x000000008010df98                virus_map_data
                0x000000008010e598                virus_map_disp_order
                0x000000008010e718                evs_cfg_4p
                0x000000008010e71c                B_8010E71C_cn
                0x000000008010e720                B_8010E720_cn
                0x000000008010e724                B_8010E724_cn
                0x000000008010e728                B_8010E728_cn
                0x000000008010e72c                B_8010E72C_cn
                0x000000008010e730                B_800F7490
                0x000000008010f330                D_8010F330
                0x000000008010ff30                B_8010FF30_cn
                0x000000008010ff80                B_800F8CE0
                0x0000000080111f80                sound_song_id
                0x0000000080111fc8                B_80111FC8_cn
                0x0000000080111fc9                B_80111FC9_cn
                0x00000000801120d8                B_801120D8_cn
                0x00000000801120e8                B_801120E8_cn
                0x00000000801120f0                B_801120F0_cn
                0x0000000080112100                B_800FAE80
                0x0000000080112208                gControllerPressedButtons
                0x0000000080112220                B_800FAFA0
                0x0000000080112620                attack_effect
                0x00000000801128e0                gGfxGlist
                0x000000008012a8e0                joycnt
                0x000000008012a960                B_801136F0
                0x000000008013a960                game_state_data
                0x000000008013b870                main_segment_BSS_END = .
                0x00000000000716b0                main_segment_BSS_SIZE = ABSOLUTE ((main_segment_BSS_END - main_segment_BSS_START))
                0x000000000065e150                __romPos = (__romPos + SIZEOF (.main_segment))
                0x000000000065e150                __romPos = ALIGN (__romPos, 0x10)
                0x00000000000b1ef0                main_segment_ROM_END = __romPos
                0x000000008013b870                main_segment_VRAM_END = .
                0x00000000000b1ef0                buffer1_ROM_START = __romPos
                0x000000008013b870                buffer1_VRAM = ADDR (.buffer1)

.buffer1        0x000000008013b870        0x0 load address 0x00000000000b1ef0
                0x000000008013b870                buffer1_TEXT_START = .
 build/src/buffers/buffer1.o(.text)
 .text          0x000000008013b870        0x0 build/src/buffers/buffer1.o
                0x000000008013b870                buffer1_TEXT_END = .
                0x0000000000000000                buffer1_TEXT_SIZE = ABSOLUTE ((buffer1_TEXT_END - buffer1_TEXT_START))
                0x000000008013b870                buffer1_bss_VRAM = ADDR (.buffer1_bss)

.buffer1_bss    0x000000008013b870       0x10 load address 0x00000000000b1ef0
                0x000000008013b870                buffer1_BSS_START = .
 build/src/buffers/buffer1.o(.bss)
 .bss           0x000000008013b870       0x10 build/src/buffers/buffer1.o
                0x000000008013b870                Heap_bufferp
                0x000000008013b880                buffers_buffer1 = .
                0x000000008013b870                buffer1_VRAM = ADDR (.buffer1)

.buffer1        0x000000008013b870        0x0 load address 0x00000000000b1ef0
                0x000000008013b870                buffer1_DATA_START = .
 build/src/buffers/buffer1.o(.data)
 .data          0x000000008013b870        0x0 build/src/buffers/buffer1.o
                0x000000008013b870                buffer1_RODATA_START = .
 build/src/buffers/buffer1.o(.rodata)
                0x000000008013b870                buffer1_RODATA_END = .
                0x0000000000000000                buffer1_RODATA_SIZE = ABSOLUTE ((buffer1_RODATA_END - buffer1_RODATA_START))
                0x000000008013b870                buffer1_DATA_END = .
                0x0000000000000000                buffer1_DATA_SIZE = ABSOLUTE ((buffer1_DATA_END - buffer1_DATA_START))
                0x000000008013b870                buffer1_BSS_END = .
                0x0000000000000000                buffer1_BSS_SIZE = ABSOLUTE ((buffer1_BSS_END - buffer1_BSS_START))
                0x000000000065e150                __romPos = (__romPos + SIZEOF (.buffer1))
                0x000000000065e150                __romPos = ALIGN (__romPos, 0x10)
                0x00000000000b1ef0                buffer1_ROM_END = __romPos
                0x000000008013b870                buffer1_VRAM_END = .
                0x00000000000b1ef0                buffer2_ROM_START = __romPos
                0x0000000080205000                buffer2_VRAM = ADDR (.buffer2)

.buffer2        0x0000000080205000        0x0 load address 0x00000000000b1ef0
                0x0000000080205000                buffer2_TEXT_START = .
 build/src/buffers/buffer2.o(.text)
 .text          0x0000000080205000        0x0 build/src/buffers/buffer2.o
                0x0000000080205000                buffer2_TEXT_END = .
                0x0000000000000000                buffer2_TEXT_SIZE = ABSOLUTE ((buffer2_TEXT_END - buffer2_TEXT_START))
                0x0000000080205000                buffer2_bss_VRAM = ADDR (.buffer2_bss)

.buffer2_bss    0x0000000080205000       0x10 load address 0x00000000000b1ef0
                0x0000000080205000                buffer2_BSS_START = .
 build/src/buffers/buffer2.o(.bss)
 .bss           0x0000000080205000       0x10 build/src/buffers/buffer2.o
                0x0000000080205000                gfx_freebuf
                0x0000000080205010                buffers_buffer2 = .
                0x0000000080205000                buffer2_VRAM = ADDR (.buffer2)

.buffer2        0x0000000080205000        0x0 load address 0x00000000000b1ef0
                0x0000000080205000                buffer2_DATA_START = .
 build/src/buffers/buffer2.o(.data)
 .data          0x0000000080205000        0x0 build/src/buffers/buffer2.o
                0x0000000080205000                buffer2_RODATA_START = .
 build/src/buffers/buffer2.o(.rodata)
                0x0000000080205000                buffer2_RODATA_END = .
                0x0000000000000000                buffer2_RODATA_SIZE = ABSOLUTE ((buffer2_RODATA_END - buffer2_RODATA_START))
                0x0000000080205000                buffer2_DATA_END = .
                0x0000000000000000                buffer2_DATA_SIZE = ABSOLUTE ((buffer2_DATA_END - buffer2_DATA_START))
                0x0000000080205000                buffer2_BSS_END = .
                0x0000000000000000                buffer2_BSS_SIZE = ABSOLUTE ((buffer2_BSS_END - buffer2_BSS_START))
                0x000000000065e150                __romPos = (__romPos + SIZEOF (.buffer2))
                0x000000000065e150                __romPos = ALIGN (__romPos, 0x10)
                0x00000000000b1ef0                buffer2_ROM_END = __romPos
                0x0000000080205000                buffer2_VRAM_END = .
                0x00000000000b1ef0                framebuffer_ROM_START = __romPos
                0x00000000803b5000                framebuffer_VRAM = ADDR (.framebuffer)

.framebuffer    0x00000000803b5000        0x0 load address 0x00000000000b1ef0
                0x00000000803b5000                framebuffer_TEXT_START = .
 build/src/buffers/framebuffer.o(.text)
 .text          0x00000000803b5000        0x0 build/src/buffers/framebuffer.o
                0x00000000803b5000                framebuffer_TEXT_END = .
                0x0000000000000000                framebuffer_TEXT_SIZE = ABSOLUTE ((framebuffer_TEXT_END - framebuffer_TEXT_START))
                0x00000000803b5000                framebuffer_bss_VRAM = ADDR (.framebuffer_bss)

.framebuffer_bss
                0x00000000803b5000    0x4b000 load address 0x00000000000b1ef0
                0x00000000803b5000                framebuffer_BSS_START = .
 build/src/buffers/framebuffer.o(.bss)
 .bss           0x00000000803b5000    0x4b000 build/src/buffers/framebuffer.o
                0x00000000803b5000                gFramebuffers
                0x0000000080400000                buffers_framebuffer = .
                0x00000000803b5000                framebuffer_VRAM = ADDR (.framebuffer)

.framebuffer    0x00000000803b5000        0x0 load address 0x00000000000b1ef0
                0x00000000803b5000                framebuffer_DATA_START = .
 build/src/buffers/framebuffer.o(.data)
 .data          0x00000000803b5000        0x0 build/src/buffers/framebuffer.o
                0x00000000803b5000                framebuffer_RODATA_START = .
 build/src/buffers/framebuffer.o(.rodata)
                0x00000000803b5000                framebuffer_RODATA_END = .
                0x0000000000000000                framebuffer_RODATA_SIZE = ABSOLUTE ((framebuffer_RODATA_END - framebuffer_RODATA_START))
                0x00000000803b5000                framebuffer_DATA_END = .
                0x0000000000000000                framebuffer_DATA_SIZE = ABSOLUTE ((framebuffer_DATA_END - framebuffer_DATA_START))
                0x00000000803b5000                framebuffer_BSS_END = .
                0x0000000000000000                framebuffer_BSS_SIZE = ABSOLUTE ((framebuffer_BSS_END - framebuffer_BSS_START))
                0x000000000065e150                __romPos = (__romPos + SIZEOF (.framebuffer))
                0x000000000065e150                __romPos = ALIGN (__romPos, 0x10)
                0x00000000000b1ef0                framebuffer_ROM_END = __romPos
                0x00000000803b5000                framebuffer_VRAM_END = .
                0x00000000000b1ef0                n64_wave_tables_ROM_START = __romPos
                0x00000000803b5000                n64_wave_tables_VRAM = ADDR (.n64_wave_tables)

.n64_wave_tables
                0x00000000803b5000   0x11a260 load address 0x00000000000b1ef0
                0x00000000803b5000                n64_wave_tables_DATA_START = .
                0x00000000803b5000                n64_wave_tables = .
 build/bin/cn/n64_wave_tables.o(.data)
 .data          0x00000000803b5000   0x11a260 build/bin/cn/n64_wave_tables.o
                0x00000000803b5000                _binary_bin_cn_n64_wave_tables_bin_start
                0x00000000804cf260                _binary_bin_cn_n64_wave_tables_bin_end
                0x00000000804cf260                n64_wave_tables_DATA_END = .
                0x000000000011a260                n64_wave_tables_DATA_SIZE = ABSOLUTE ((n64_wave_tables_DATA_END - n64_wave_tables_DATA_START))
                0x000000000065e150                __romPos = (__romPos + SIZEOF (.n64_wave_tables))
                0x00000000001cc150                n64_wave_tables_ROM_END = __romPos
                0x00000000804cf260                n64_wave_tables_VRAM_END = .
                0x00000000001cc150                n64_ptr_tables_v2_ROM_START = __romPos
                0x00000000804cf260                n64_ptr_tables_v2_VRAM = ADDR (.n64_ptr_tables_v2)

.n64_ptr_tables_v2
                0x00000000804cf260     0x8550 load address 0x00000000001cc150
                0x00000000804cf260                n64_ptr_tables_v2_DATA_START = .
                0x00000000804cf260                n64_ptr_tables_v2 = .
 build/bin/cn/n64_ptr_tables_v2.o(.data)
 .data          0x00000000804cf260     0x8550 build/bin/cn/n64_ptr_tables_v2.o
                0x00000000804cf260                _binary_bin_cn_n64_ptr_tables_v2_bin_start
                0x00000000804d77b0                _binary_bin_cn_n64_ptr_tables_v2_bin_end
                0x00000000804d77b0                n64_ptr_tables_v2_DATA_END = .
                0x0000000000008550                n64_ptr_tables_v2_DATA_SIZE = ABSOLUTE ((n64_ptr_tables_v2_DATA_END - n64_ptr_tables_v2_DATA_START))
                0x000000000065e150                __romPos = (__romPos + SIZEOF (.n64_ptr_tables_v2))
                0x00000000001d46a0                n64_ptr_tables_v2_ROM_END = __romPos
                0x00000000804d77b0                n64_ptr_tables_v2_VRAM_END = .
                0x00000000001d46a0                segment_172130_ROM_START = __romPos
                0x00000000804d77b0                segment_172130_VRAM = ADDR (.segment_172130)

.segment_172130
                0x00000000804d77b0      0xc30 load address 0x00000000001d46a0
                0x00000000804d77b0                segment_172130_DATA_START = .
                0x00000000804d77b0                segment_172130 = .
 build/bin/cn/segment_172130.o(.data)
 .data          0x00000000804d77b0      0xc30 build/bin/cn/segment_172130.o
                0x00000000804d77b0                _binary_bin_cn_segment_172130_bin_start
                0x00000000804d83e0                _binary_bin_cn_segment_172130_bin_end
                0x00000000804d83e0                segment_172130_DATA_END = .
                0x0000000000000c30                segment_172130_DATA_SIZE = ABSOLUTE ((segment_172130_DATA_END - segment_172130_DATA_START))
                0x000000000065e150                __romPos = (__romPos + SIZEOF (.segment_172130))
                0x00000000001d52d0                segment_172130_ROM_END = __romPos
                0x00000000804d83e0                segment_172130_VRAM_END = .
                0x00000000001d52d0                segment_172D60_ROM_START = __romPos
                0x00000000804d83e0                segment_172D60_VRAM = ADDR (.segment_172D60)

.segment_172D60
                0x00000000804d83e0     0x2360 load address 0x00000000001d52d0
                0x00000000804d83e0                segment_172D60_DATA_START = .
                0x00000000804d83e0                segment_172D60 = .
 build/bin/cn/segment_172D60.o(.data)
 .data          0x00000000804d83e0     0x2360 build/bin/cn/segment_172D60.o
                0x00000000804d83e0                _binary_bin_cn_segment_172D60_bin_start
                0x00000000804da740                _binary_bin_cn_segment_172D60_bin_end
                0x00000000804da740                segment_172D60_DATA_END = .
                0x0000000000002360                segment_172D60_DATA_SIZE = ABSOLUTE ((segment_172D60_DATA_END - segment_172D60_DATA_START))
                0x000000000065e150                __romPos = (__romPos + SIZEOF (.segment_172D60))
                0x00000000001d7630                segment_172D60_ROM_END = __romPos
                0x00000000804da740                segment_172D60_VRAM_END = .
                0x00000000001d7630                segment_1750C0_ROM_START = __romPos
                0x00000000804da740                segment_1750C0_VRAM = ADDR (.segment_1750C0)

.segment_1750C0
                0x00000000804da740     0x2360 load address 0x00000000001d7630
                0x00000000804da740                segment_1750C0_DATA_START = .
                0x00000000804da740                segment_1750C0 = .
 build/bin/cn/segment_1750C0.o(.data)
 .data          0x00000000804da740     0x2360 build/bin/cn/segment_1750C0.o
                0x00000000804da740                _binary_bin_cn_segment_1750C0_bin_start
                0x00000000804dcaa0                _binary_bin_cn_segment_1750C0_bin_end
                0x00000000804dcaa0                segment_1750C0_DATA_END = .
                0x0000000000002360                segment_1750C0_DATA_SIZE = ABSOLUTE ((segment_1750C0_DATA_END - segment_1750C0_DATA_START))
                0x000000000065e150                __romPos = (__romPos + SIZEOF (.segment_1750C0))
                0x00000000001d9990                segment_1750C0_ROM_END = __romPos
                0x00000000804dcaa0                segment_1750C0_VRAM_END = .
                0x00000000001d9990                segment_177420_ROM_START = __romPos
                0x00000000804dcaa0                segment_177420_VRAM = ADDR (.segment_177420)

.segment_177420
                0x00000000804dcaa0     0x2200 load address 0x00000000001d9990
                0x00000000804dcaa0                segment_177420_DATA_START = .
                0x00000000804dcaa0                segment_177420 = .
 build/bin/cn/segment_177420.o(.data)
 .data          0x00000000804dcaa0     0x2200 build/bin/cn/segment_177420.o
                0x00000000804dcaa0                _binary_bin_cn_segment_177420_bin_start
                0x00000000804deca0                _binary_bin_cn_segment_177420_bin_end
                0x00000000804deca0                segment_177420_DATA_END = .
                0x0000000000002200                segment_177420_DATA_SIZE = ABSOLUTE ((segment_177420_DATA_END - segment_177420_DATA_START))
                0x000000000065e150                __romPos = (__romPos + SIZEOF (.segment_177420))
                0x00000000001dbb90                segment_177420_ROM_END = __romPos
                0x00000000804deca0                segment_177420_VRAM_END = .
                0x00000000001dbb90                segment_179620_ROM_START = __romPos
                0x00000000804deca0                segment_179620_VRAM = ADDR (.segment_179620)

.segment_179620
                0x00000000804deca0     0x2170 load address 0x00000000001dbb90
                0x00000000804deca0                segment_179620_DATA_START = .
                0x00000000804deca0                segment_179620 = .
 build/bin/cn/segment_179620.o(.data)
 .data          0x00000000804deca0     0x2170 build/bin/cn/segment_179620.o
                0x00000000804deca0                _binary_bin_cn_segment_179620_bin_start
                0x00000000804e0e10                _binary_bin_cn_segment_179620_bin_end
                0x00000000804e0e10                segment_179620_DATA_END = .
                0x0000000000002170                segment_179620_DATA_SIZE = ABSOLUTE ((segment_179620_DATA_END - segment_179620_DATA_START))
                0x000000000065e150                __romPos = (__romPos + SIZEOF (.segment_179620))
                0x00000000001ddd00                segment_179620_ROM_END = __romPos
                0x00000000804e0e10                segment_179620_VRAM_END = .
                0x00000000001ddd00                segment_17B790_ROM_START = __romPos
                0x00000000804e0e10                segment_17B790_VRAM = ADDR (.segment_17B790)

.segment_17B790
                0x00000000804e0e10      0xa50 load address 0x00000000001ddd00
                0x00000000804e0e10                segment_17B790_DATA_START = .
                0x00000000804e0e10                segment_17B790 = .
 build/bin/cn/segment_17B790.o(.data)
 .data          0x00000000804e0e10      0xa50 build/bin/cn/segment_17B790.o
                0x00000000804e0e10                _binary_bin_cn_segment_17B790_bin_start
                0x00000000804e1860                _binary_bin_cn_segment_17B790_bin_end
                0x00000000804e1860                segment_17B790_DATA_END = .
                0x0000000000000a50                segment_17B790_DATA_SIZE = ABSOLUTE ((segment_17B790_DATA_END - segment_17B790_DATA_START))
                0x000000000065e150                __romPos = (__romPos + SIZEOF (.segment_17B790))
                0x00000000001de750                segment_17B790_ROM_END = __romPos
                0x00000000804e1860                segment_17B790_VRAM_END = .
                0x00000000001de750                segment_17C1E0_ROM_START = __romPos
                0x00000000804e1860                segment_17C1E0_VRAM = ADDR (.segment_17C1E0)

.segment_17C1E0
                0x00000000804e1860      0xf50 load address 0x00000000001de750
                0x00000000804e1860                segment_17C1E0_DATA_START = .
                0x00000000804e1860                segment_17C1E0 = .
 build/bin/cn/segment_17C1E0.o(.data)
 .data          0x00000000804e1860      0xf50 build/bin/cn/segment_17C1E0.o
                0x00000000804e1860                _binary_bin_cn_segment_17C1E0_bin_start
                0x00000000804e27b0                _binary_bin_cn_segment_17C1E0_bin_end
                0x00000000804e27b0                segment_17C1E0_DATA_END = .
                0x0000000000000f50                segment_17C1E0_DATA_SIZE = ABSOLUTE ((segment_17C1E0_DATA_END - segment_17C1E0_DATA_START))
                0x000000000065e150                __romPos = (__romPos + SIZEOF (.segment_17C1E0))
                0x00000000001df6a0                segment_17C1E0_ROM_END = __romPos
                0x00000000804e27b0                segment_17C1E0_VRAM_END = .
                0x00000000001df6a0                segment_17D130_ROM_START = __romPos
                0x00000000804e27b0                segment_17D130_VRAM = ADDR (.segment_17D130)

.segment_17D130
                0x00000000804e27b0      0xf60 load address 0x00000000001df6a0
                0x00000000804e27b0                segment_17D130_DATA_START = .
                0x00000000804e27b0                segment_17D130 = .
 build/bin/cn/segment_17D130.o(.data)
 .data          0x00000000804e27b0      0xf60 build/bin/cn/segment_17D130.o
                0x00000000804e27b0                _binary_bin_cn_segment_17D130_bin_start
                0x00000000804e3710                _binary_bin_cn_segment_17D130_bin_end
                0x00000000804e3710                segment_17D130_DATA_END = .
                0x0000000000000f60                segment_17D130_DATA_SIZE = ABSOLUTE ((segment_17D130_DATA_END - segment_17D130_DATA_START))
                0x000000000065e150                __romPos = (__romPos + SIZEOF (.segment_17D130))
                0x00000000001e0600                segment_17D130_ROM_END = __romPos
                0x00000000804e3710                segment_17D130_VRAM_END = .
                0x00000000001e0600                segment_17E090_ROM_START = __romPos
                0x00000000804e3710                segment_17E090_VRAM = ADDR (.segment_17E090)

.segment_17E090
                0x00000000804e3710     0x37b0 load address 0x00000000001e0600
                0x00000000804e3710                segment_17E090_DATA_START = .
                0x00000000804e3710                segment_17E090 = .
 build/bin/cn/segment_17E090.o(.data)
 .data          0x00000000804e3710     0x37b0 build/bin/cn/segment_17E090.o
                0x00000000804e3710                _binary_bin_cn_segment_17E090_bin_start
                0x00000000804e6ec0                _binary_bin_cn_segment_17E090_bin_end
                0x00000000804e6ec0                segment_17E090_DATA_END = .
                0x00000000000037b0                segment_17E090_DATA_SIZE = ABSOLUTE ((segment_17E090_DATA_END - segment_17E090_DATA_START))
                0x000000000065e150                __romPos = (__romPos + SIZEOF (.segment_17E090))
                0x00000000001e3db0                segment_17E090_ROM_END = __romPos
                0x00000000804e6ec0                segment_17E090_VRAM_END = .
                0x00000000001e3db0                segment_181840_ROM_START = __romPos
                0x00000000804e6ec0                segment_181840_VRAM = ADDR (.segment_181840)

.segment_181840
                0x00000000804e6ec0     0x37b0 load address 0x00000000001e3db0
                0x00000000804e6ec0                segment_181840_DATA_START = .
                0x00000000804e6ec0                segment_181840 = .
 build/bin/cn/segment_181840.o(.data)
 .data          0x00000000804e6ec0     0x37b0 build/bin/cn/segment_181840.o
                0x00000000804e6ec0                _binary_bin_cn_segment_181840_bin_start
                0x00000000804ea670                _binary_bin_cn_segment_181840_bin_end
                0x00000000804ea670                segment_181840_DATA_END = .
                0x00000000000037b0                segment_181840_DATA_SIZE = ABSOLUTE ((segment_181840_DATA_END - segment_181840_DATA_START))
                0x000000000065e150                __romPos = (__romPos + SIZEOF (.segment_181840))
                0x00000000001e7560                segment_181840_ROM_END = __romPos
                0x00000000804ea670                segment_181840_VRAM_END = .
                0x00000000001e7560                segment_184FF0_ROM_START = __romPos
                0x00000000804ea670                segment_184FF0_VRAM = ADDR (.segment_184FF0)

.segment_184FF0
                0x00000000804ea670     0x2000 load address 0x00000000001e7560
                0x00000000804ea670                segment_184FF0_DATA_START = .
                0x00000000804ea670                segment_184FF0 = .
 build/bin/cn/segment_184FF0.o(.data)
 .data          0x00000000804ea670     0x2000 build/bin/cn/segment_184FF0.o
                0x00000000804ea670                _binary_bin_cn_segment_184FF0_bin_start
                0x00000000804ec670                _binary_bin_cn_segment_184FF0_bin_end
                0x00000000804ec670                segment_184FF0_DATA_END = .
                0x0000000000002000                segment_184FF0_DATA_SIZE = ABSOLUTE ((segment_184FF0_DATA_END - segment_184FF0_DATA_START))
                0x000000000065e150                __romPos = (__romPos + SIZEOF (.segment_184FF0))
                0x00000000001e9560                segment_184FF0_ROM_END = __romPos
                0x00000000804ec670                segment_184FF0_VRAM_END = .
                0x00000000001e9560                segment_186FF0_ROM_START = __romPos
                0x00000000804ec670                segment_186FF0_VRAM = ADDR (.segment_186FF0)

.segment_186FF0
                0x00000000804ec670     0x2000 load address 0x00000000001e9560
                0x00000000804ec670                segment_186FF0_DATA_START = .
                0x00000000804ec670                segment_186FF0 = .
 build/bin/cn/segment_186FF0.o(.data)
 .data          0x00000000804ec670     0x2000 build/bin/cn/segment_186FF0.o
                0x00000000804ec670                _binary_bin_cn_segment_186FF0_bin_start
                0x00000000804ee670                _binary_bin_cn_segment_186FF0_bin_end
                0x00000000804ee670                segment_186FF0_DATA_END = .
                0x0000000000002000                segment_186FF0_DATA_SIZE = ABSOLUTE ((segment_186FF0_DATA_END - segment_186FF0_DATA_START))
                0x000000000065e150                __romPos = (__romPos + SIZEOF (.segment_186FF0))
                0x00000000001eb560                segment_186FF0_ROM_END = __romPos
                0x00000000804ee670                segment_186FF0_VRAM_END = .
                0x00000000001eb560                segment_188FF0_ROM_START = __romPos
                0x00000000804ee670                segment_188FF0_VRAM = ADDR (.segment_188FF0)

.segment_188FF0
                0x00000000804ee670      0xd50 load address 0x00000000001eb560
                0x00000000804ee670                segment_188FF0_DATA_START = .
                0x00000000804ee670                segment_188FF0 = .
 build/bin/cn/segment_188FF0.o(.data)
 .data          0x00000000804ee670      0xd50 build/bin/cn/segment_188FF0.o
                0x00000000804ee670                _binary_bin_cn_segment_188FF0_bin_start
                0x00000000804ef3c0                _binary_bin_cn_segment_188FF0_bin_end
                0x00000000804ef3c0                segment_188FF0_DATA_END = .
                0x0000000000000d50                segment_188FF0_DATA_SIZE = ABSOLUTE ((segment_188FF0_DATA_END - segment_188FF0_DATA_START))
                0x000000000065e150                __romPos = (__romPos + SIZEOF (.segment_188FF0))
                0x00000000001ec2b0                segment_188FF0_ROM_END = __romPos
                0x00000000804ef3c0                segment_188FF0_VRAM_END = .
                0x00000000001ec2b0                segment_189D40_ROM_START = __romPos
                0x00000000804ef3c0                segment_189D40_VRAM = ADDR (.segment_189D40)

.segment_189D40
                0x00000000804ef3c0     0x2e00 load address 0x00000000001ec2b0
                0x00000000804ef3c0                segment_189D40_DATA_START = .
                0x00000000804ef3c0                segment_189D40 = .
 build/bin/cn/segment_189D40.o(.data)
 .data          0x00000000804ef3c0     0x2e00 build/bin/cn/segment_189D40.o
                0x00000000804ef3c0                _binary_bin_cn_segment_189D40_bin_start
                0x00000000804f21c0                _binary_bin_cn_segment_189D40_bin_end
                0x00000000804f21c0                segment_189D40_DATA_END = .
                0x0000000000002e00                segment_189D40_DATA_SIZE = ABSOLUTE ((segment_189D40_DATA_END - segment_189D40_DATA_START))
                0x000000000065e150                __romPos = (__romPos + SIZEOF (.segment_189D40))
                0x00000000001ef0b0                segment_189D40_ROM_END = __romPos
                0x00000000804f21c0                segment_189D40_VRAM_END = .
                0x00000000001ef0b0                segment_18CB40_ROM_START = __romPos
                0x00000000804f21c0                segment_18CB40_VRAM = ADDR (.segment_18CB40)

.segment_18CB40
                0x00000000804f21c0     0x1050 load address 0x00000000001ef0b0
                0x00000000804f21c0                segment_18CB40_DATA_START = .
                0x00000000804f21c0                segment_18CB40 = .
 build/bin/cn/segment_18CB40.o(.data)
 .data          0x00000000804f21c0     0x1050 build/bin/cn/segment_18CB40.o
                0x00000000804f21c0                _binary_bin_cn_segment_18CB40_bin_start
                0x00000000804f3210                _binary_bin_cn_segment_18CB40_bin_end
                0x00000000804f3210                segment_18CB40_DATA_END = .
                0x0000000000001050                segment_18CB40_DATA_SIZE = ABSOLUTE ((segment_18CB40_DATA_END - segment_18CB40_DATA_START))
                0x000000000065e150                __romPos = (__romPos + SIZEOF (.segment_18CB40))
                0x00000000001f0100                segment_18CB40_ROM_END = __romPos
                0x00000000804f3210                segment_18CB40_VRAM_END = .
                0x00000000001f0100                segment_18DB90_ROM_START = __romPos
                0x00000000804f3210                segment_18DB90_VRAM = ADDR (.segment_18DB90)

.segment_18DB90
                0x00000000804f3210     0x15d0 load address 0x00000000001f0100
                0x00000000804f3210                segment_18DB90_DATA_START = .
                0x00000000804f3210                segment_18DB90 = .
 build/bin/cn/segment_18DB90.o(.data)
 .data          0x00000000804f3210     0x15d0 build/bin/cn/segment_18DB90.o
                0x00000000804f3210                _binary_bin_cn_segment_18DB90_bin_start
                0x00000000804f47e0                _binary_bin_cn_segment_18DB90_bin_end
                0x00000000804f47e0                segment_18DB90_DATA_END = .
                0x00000000000015d0                segment_18DB90_DATA_SIZE = ABSOLUTE ((segment_18DB90_DATA_END - segment_18DB90_DATA_START))
                0x000000000065e150                __romPos = (__romPos + SIZEOF (.segment_18DB90))
                0x00000000001f16d0                segment_18DB90_ROM_END = __romPos
                0x00000000804f47e0                segment_18DB90_VRAM_END = .
                0x00000000001f16d0                segment_18F160_ROM_START = __romPos
                0x00000000804f47e0                segment_18F160_VRAM = ADDR (.segment_18F160)

.segment_18F160
                0x00000000804f47e0     0x1580 load address 0x00000000001f16d0
                0x00000000804f47e0                segment_18F160_DATA_START = .
                0x00000000804f47e0                segment_18F160 = .
 build/bin/cn/segment_18F160.o(.data)
 .data          0x00000000804f47e0     0x1580 build/bin/cn/segment_18F160.o
                0x00000000804f47e0                _binary_bin_cn_segment_18F160_bin_start
                0x00000000804f5d60                _binary_bin_cn_segment_18F160_bin_end
                0x00000000804f5d60                segment_18F160_DATA_END = .
                0x0000000000001580                segment_18F160_DATA_SIZE = ABSOLUTE ((segment_18F160_DATA_END - segment_18F160_DATA_START))
                0x000000000065e150                __romPos = (__romPos + SIZEOF (.segment_18F160))
                0x00000000001f2c50                segment_18F160_ROM_END = __romPos
                0x00000000804f5d60                segment_18F160_VRAM_END = .
                0x00000000001f2c50                segment_1906E0_ROM_START = __romPos
                0x00000000804f5d60                segment_1906E0_VRAM = ADDR (.segment_1906E0)

.segment_1906E0
                0x00000000804f5d60      0xaf0 load address 0x00000000001f2c50
                0x00000000804f5d60                segment_1906E0_DATA_START = .
                0x00000000804f5d60                segment_1906E0 = .
 build/bin/cn/segment_1906E0.o(.data)
 .data          0x00000000804f5d60      0xaf0 build/bin/cn/segment_1906E0.o
                0x00000000804f5d60                _binary_bin_cn_segment_1906E0_bin_start
                0x00000000804f6850                _binary_bin_cn_segment_1906E0_bin_end
                0x00000000804f6850                segment_1906E0_DATA_END = .
                0x0000000000000af0                segment_1906E0_DATA_SIZE = ABSOLUTE ((segment_1906E0_DATA_END - segment_1906E0_DATA_START))
                0x000000000065e150                __romPos = (__romPos + SIZEOF (.segment_1906E0))
                0x00000000001f3740                segment_1906E0_ROM_END = __romPos
                0x00000000804f6850                segment_1906E0_VRAM_END = .
                0x00000000001f3740                segment_1911D0_ROM_START = __romPos
                0x00000000804f6850                segment_1911D0_VRAM = ADDR (.segment_1911D0)

.segment_1911D0
                0x00000000804f6850     0x24f0 load address 0x00000000001f3740
                0x00000000804f6850                segment_1911D0_DATA_START = .
                0x00000000804f6850                segment_1911D0 = .
 build/bin/cn/segment_1911D0.o(.data)
 .data          0x00000000804f6850     0x24f0 build/bin/cn/segment_1911D0.o
                0x00000000804f6850                _binary_bin_cn_segment_1911D0_bin_start
                0x00000000804f8d40                _binary_bin_cn_segment_1911D0_bin_end
                0x00000000804f8d40                segment_1911D0_DATA_END = .
                0x00000000000024f0                segment_1911D0_DATA_SIZE = ABSOLUTE ((segment_1911D0_DATA_END - segment_1911D0_DATA_START))
                0x000000000065e150                __romPos = (__romPos + SIZEOF (.segment_1911D0))
                0x00000000001f5c30                segment_1911D0_ROM_END = __romPos
                0x00000000804f8d40                segment_1911D0_VRAM_END = .
                0x00000000001f5c30                segment_1936C0_ROM_START = __romPos
                0x00000000804f8d40                segment_1936C0_VRAM = ADDR (.segment_1936C0)

.segment_1936C0
                0x00000000804f8d40      0x130 load address 0x00000000001f5c30
                0x00000000804f8d40                segment_1936C0_DATA_START = .
                0x00000000804f8d40                segment_1936C0 = .
 build/bin/cn/segment_1936C0.o(.data)
 .data          0x00000000804f8d40      0x130 build/bin/cn/segment_1936C0.o
                0x00000000804f8d40                _binary_bin_cn_segment_1936C0_bin_start
                0x00000000804f8e70                _binary_bin_cn_segment_1936C0_bin_end
                0x00000000804f8e70                segment_1936C0_DATA_END = .
                0x0000000000000130                segment_1936C0_DATA_SIZE = ABSOLUTE ((segment_1936C0_DATA_END - segment_1936C0_DATA_START))
                0x000000000065e150                __romPos = (__romPos + SIZEOF (.segment_1936C0))
                0x00000000001f5d60                segment_1936C0_ROM_END = __romPos
                0x00000000804f8e70                segment_1936C0_VRAM_END = .
                0x00000000001f5d60                segment_1937F0_ROM_START = __romPos
                0x00000000804f8e70                segment_1937F0_VRAM = ADDR (.segment_1937F0)

.segment_1937F0
                0x00000000804f8e70      0x880 load address 0x00000000001f5d60
                0x00000000804f8e70                segment_1937F0_DATA_START = .
                0x00000000804f8e70                segment_1937F0 = .
 build/bin/cn/segment_1937F0.o(.data)
 .data          0x00000000804f8e70      0x880 build/bin/cn/segment_1937F0.o
                0x00000000804f8e70                _binary_bin_cn_segment_1937F0_bin_start
                0x00000000804f96f0                _binary_bin_cn_segment_1937F0_bin_end
                0x00000000804f96f0                segment_1937F0_DATA_END = .
                0x0000000000000880                segment_1937F0_DATA_SIZE = ABSOLUTE ((segment_1937F0_DATA_END - segment_1937F0_DATA_START))
                0x000000000065e150                __romPos = (__romPos + SIZEOF (.segment_1937F0))
                0x00000000001f65e0                segment_1937F0_ROM_END = __romPos
                0x00000000804f96f0                segment_1937F0_VRAM_END = .
                0x00000000001f65e0                segment_194070_ROM_START = __romPos
                0x00000000804f96f0                segment_194070_VRAM = ADDR (.segment_194070)

.segment_194070
                0x00000000804f96f0       0xe0 load address 0x00000000001f65e0
                0x00000000804f96f0                segment_194070_DATA_START = .
                0x00000000804f96f0                segment_194070 = .
 build/bin/cn/segment_194070.o(.data)
 .data          0x00000000804f96f0       0xe0 build/bin/cn/segment_194070.o
                0x00000000804f96f0                _binary_bin_cn_segment_194070_bin_start
                0x00000000804f97d0                _binary_bin_cn_segment_194070_bin_end
                0x00000000804f97d0                segment_194070_DATA_END = .
                0x00000000000000e0                segment_194070_DATA_SIZE = ABSOLUTE ((segment_194070_DATA_END - segment_194070_DATA_START))
                0x000000000065e150                __romPos = (__romPos + SIZEOF (.segment_194070))
                0x00000000001f66c0                segment_194070_ROM_END = __romPos
                0x00000000804f97d0                segment_194070_VRAM_END = .
                0x00000000001f66c0                segment_194150_ROM_START = __romPos
                0x00000000804f97d0                segment_194150_VRAM = ADDR (.segment_194150)

.segment_194150
                0x00000000804f97d0      0x7c0 load address 0x00000000001f66c0
                0x00000000804f97d0                segment_194150_DATA_START = .
                0x00000000804f97d0                segment_194150 = .
 build/bin/cn/segment_194150.o(.data)
 .data          0x00000000804f97d0      0x7c0 build/bin/cn/segment_194150.o
                0x00000000804f97d0                _binary_bin_cn_segment_194150_bin_start
                0x00000000804f9f90                _binary_bin_cn_segment_194150_bin_end
                0x00000000804f9f90                segment_194150_DATA_END = .
                0x00000000000007c0                segment_194150_DATA_SIZE = ABSOLUTE ((segment_194150_DATA_END - segment_194150_DATA_START))
                0x000000000065e150                __romPos = (__romPos + SIZEOF (.segment_194150))
                0x00000000001f6e80                segment_194150_ROM_END = __romPos
                0x00000000804f9f90                segment_194150_VRAM_END = .
                0x00000000001f6e80                segment_194910_ROM_START = __romPos
                0x00000000804f9f90                segment_194910_VRAM = ADDR (.segment_194910)

.segment_194910
                0x00000000804f9f90      0x980 load address 0x00000000001f6e80
                0x00000000804f9f90                segment_194910_DATA_START = .
                0x00000000804f9f90                segment_194910 = .
 build/bin/cn/segment_194910.o(.data)
 .data          0x00000000804f9f90      0x980 build/bin/cn/segment_194910.o
                0x00000000804f9f90                _binary_bin_cn_segment_194910_bin_start
                0x00000000804fa910                _binary_bin_cn_segment_194910_bin_end
                0x00000000804fa910                segment_194910_DATA_END = .
                0x0000000000000980                segment_194910_DATA_SIZE = ABSOLUTE ((segment_194910_DATA_END - segment_194910_DATA_START))
                0x000000000065e150                __romPos = (__romPos + SIZEOF (.segment_194910))
                0x00000000001f7800                segment_194910_ROM_END = __romPos
                0x00000000804fa910                segment_194910_VRAM_END = .
                0x00000000001f7800                segment_195290_ROM_START = __romPos
                0x00000000804fa910                segment_195290_VRAM = ADDR (.segment_195290)

.segment_195290
                0x00000000804fa910      0x390 load address 0x00000000001f7800
                0x00000000804fa910                segment_195290_DATA_START = .
                0x00000000804fa910                segment_195290 = .
 build/bin/cn/segment_195290.o(.data)
 .data          0x00000000804fa910      0x390 build/bin/cn/segment_195290.o
                0x00000000804fa910                _binary_bin_cn_segment_195290_bin_start
                0x00000000804faca0                _binary_bin_cn_segment_195290_bin_end
                0x00000000804faca0                segment_195290_DATA_END = .
                0x0000000000000390                segment_195290_DATA_SIZE = ABSOLUTE ((segment_195290_DATA_END - segment_195290_DATA_START))
                0x000000000065e150                __romPos = (__romPos + SIZEOF (.segment_195290))
                0x00000000001f7b90                segment_195290_ROM_END = __romPos
                0x00000000804faca0                segment_195290_VRAM_END = .
                0x00000000001f7b90                segment_game_etc_ROM_START = __romPos
                0x00000000804faca0                segment_game_etc_VRAM = ADDR (.segment_game_etc)

.segment_game_etc
                0x00000000804faca0    0x269a0 load address 0x00000000001f7b90
                0x00000000804faca0                segment_game_etc_DATA_START = .
                0x00000000804faca0                segment_game_etc = .
 build/bin/cn/segment_game_etc.o(.data)
 .data          0x00000000804faca0    0x269a0 build/bin/cn/segment_game_etc.o
                0x00000000804faca0                _binary_bin_cn_segment_game_etc_bin_start
                0x0000000080521640                _binary_bin_cn_segment_game_etc_bin_end
                0x0000000080521640                segment_game_etc_DATA_END = .
                0x00000000000269a0                segment_game_etc_DATA_SIZE = ABSOLUTE ((segment_game_etc_DATA_END - segment_game_etc_DATA_START))
                0x000000000065e150                __romPos = (__romPos + SIZEOF (.segment_game_etc))
                0x000000000021e530                segment_game_etc_ROM_END = __romPos
                0x0000000080521640                segment_game_etc_VRAM_END = .
                0x000000000021e530                segment_menu_bg_ROM_START = __romPos
                0x0000000080521640                segment_menu_bg_VRAM = ADDR (.segment_menu_bg)

.segment_menu_bg
                0x0000000080521640     0x3a90 load address 0x000000000021e530
                0x0000000080521640                segment_menu_bg_DATA_START = .
                0x0000000080521640                segment_menu_bg = .
 build/bin/cn/segment_menu_bg.o(.data)
 .data          0x0000000080521640     0x3a90 build/bin/cn/segment_menu_bg.o
                0x0000000080521640                _binary_bin_cn_segment_menu_bg_bin_start
                0x00000000805250d0                _binary_bin_cn_segment_menu_bg_bin_end
                0x00000000805250d0                segment_menu_bg_DATA_END = .
                0x0000000000003a90                segment_menu_bg_DATA_SIZE = ABSOLUTE ((segment_menu_bg_DATA_END - segment_menu_bg_DATA_START))
                0x000000000065e150                __romPos = (__romPos + SIZEOF (.segment_menu_bg))
                0x0000000000221fc0                segment_menu_bg_ROM_END = __romPos
                0x00000000805250d0                segment_menu_bg_VRAM_END = .
                0x0000000000221fc0                segment_menu_bg2_ROM_START = __romPos
                0x00000000805250d0                segment_menu_bg2_VRAM = ADDR (.segment_menu_bg2)

.segment_menu_bg2
                0x00000000805250d0     0x3a90 load address 0x0000000000221fc0
                0x00000000805250d0                segment_menu_bg2_DATA_START = .
                0x00000000805250d0                segment_menu_bg2 = .
 build/bin/cn/segment_menu_bg2.o(.data)
 .data          0x00000000805250d0     0x3a90 build/bin/cn/segment_menu_bg2.o
                0x00000000805250d0                _binary_bin_cn_segment_menu_bg2_bin_start
                0x0000000080528b60                _binary_bin_cn_segment_menu_bg2_bin_end
                0x0000000080528b60                segment_menu_bg2_DATA_END = .
                0x0000000000003a90                segment_menu_bg2_DATA_SIZE = ABSOLUTE ((segment_menu_bg2_DATA_END - segment_menu_bg2_DATA_START))
                0x000000000065e150                __romPos = (__romPos + SIZEOF (.segment_menu_bg2))
                0x0000000000225a50                segment_menu_bg2_ROM_END = __romPos
                0x0000000080528b60                segment_menu_bg2_VRAM_END = .
                0x0000000000225a50                segment_coffee01_ROM_START = __romPos
                0x0000000080528b60                segment_coffee01_VRAM = ADDR (.segment_coffee01)

.segment_coffee01
                0x0000000080528b60    0x26130 load address 0x0000000000225a50
                0x0000000080528b60                segment_coffee01_DATA_START = .
                0x0000000080528b60                segment_coffee01 = .
 build/bin/cn/segment_coffee01.o(.data)
 .data          0x0000000080528b60    0x26130 build/bin/cn/segment_coffee01.o
                0x0000000080528b60                _binary_bin_cn_segment_coffee01_bin_start
                0x000000008054ec90                _binary_bin_cn_segment_coffee01_bin_end
                0x000000008054ec90                segment_coffee01_DATA_END = .
                0x0000000000026130                segment_coffee01_DATA_SIZE = ABSOLUTE ((segment_coffee01_DATA_END - segment_coffee01_DATA_START))
                0x000000000065e150                __romPos = (__romPos + SIZEOF (.segment_coffee01))
                0x000000000024bb80                segment_coffee01_ROM_END = __romPos
                0x000000008054ec90                segment_coffee01_VRAM_END = .
                0x000000000024bb80                segment_title_all_ROM_START = __romPos
                0x000000008054ec90                segment_title_all_VRAM = ADDR (.segment_title_all)

.segment_title_all
                0x000000008054ec90   0x12ca60 load address 0x000000000024bb80
                0x000000008054ec90                segment_title_all_DATA_START = .
                0x000000008054ec90                segment_title_all = .
 build/bin/cn/segment_title_all.o(.data)
 .data          0x000000008054ec90   0x12ca60 build/bin/cn/segment_title_all.o
                0x000000008054ec90                _binary_bin_cn_segment_title_all_bin_start
                0x000000008067b6f0                _binary_bin_cn_segment_title_all_bin_end
                0x000000008067b6f0                segment_title_all_DATA_END = .
                0x000000000012ca60                segment_title_all_DATA_SIZE = ABSOLUTE ((segment_title_all_DATA_END - segment_title_all_DATA_START))
                0x000000000065e150                __romPos = (__romPos + SIZEOF (.segment_title_all))
                0x00000000003785e0                segment_title_all_ROM_END = __romPos
                0x000000008067b6f0                segment_title_all_VRAM_END = .
                0x00000000003785e0                segment_title_bmp_ROM_START = __romPos
                0x000000008067b6f0                segment_title_bmp_VRAM = ADDR (.segment_title_bmp)

.segment_title_bmp
                0x000000008067b6f0     0x2c70 load address 0x00000000003785e0
                0x000000008067b6f0                segment_title_bmp_DATA_START = .
                0x000000008067b6f0                segment_title_bmp = .
 build/bin/cn/segment_title_bmp.o(.data)
 .data          0x000000008067b6f0     0x2c70 build/bin/cn/segment_title_bmp.o
                0x000000008067b6f0                _binary_bin_cn_segment_title_bmp_bin_start
                0x000000008067e360                _binary_bin_cn_segment_title_bmp_bin_end
                0x000000008067e360                segment_title_bmp_DATA_END = .
                0x0000000000002c70                segment_title_bmp_DATA_SIZE = ABSOLUTE ((segment_title_bmp_DATA_END - segment_title_bmp_DATA_START))
                0x000000000065e150                __romPos = (__romPos + SIZEOF (.segment_title_bmp))
                0x000000000037b250                segment_title_bmp_ROM_END = __romPos
                0x000000008067e360                segment_title_bmp_VRAM_END = .
                0x000000000037b250                segment_waku_ROM_START = __romPos
                0x000000008067e360                segment_waku_VRAM = ADDR (.segment_waku)

.segment_waku   0x000000008067e360    0x13590 load address 0x000000000037b250
                0x000000008067e360                segment_waku_DATA_START = .
                0x000000008067e360                segment_waku = .
 build/bin/cn/segment_waku.o(.data)
 .data          0x000000008067e360    0x13590 build/bin/cn/segment_waku.o
                0x000000008067e360                _binary_bin_cn_segment_waku_bin_start
                0x00000000806918f0                _binary_bin_cn_segment_waku_bin_end
                0x00000000806918f0                segment_waku_DATA_END = .
                0x0000000000013590                segment_waku_DATA_SIZE = ABSOLUTE ((segment_waku_DATA_END - segment_waku_DATA_START))
                0x000000000065e150                __romPos = (__romPos + SIZEOF (.segment_waku))
                0x000000000038e7e0                segment_waku_ROM_END = __romPos
                0x00000000806918f0                segment_waku_VRAM_END = .
                0x000000000038e7e0                segment_waku2_ROM_START = __romPos
                0x00000000806918f0                segment_waku2_VRAM = ADDR (.segment_waku2)

.segment_waku2  0x00000000806918f0     0xa8b0 load address 0x000000000038e7e0
                0x00000000806918f0                segment_waku2_DATA_START = .
                0x00000000806918f0                segment_waku2 = .
 build/bin/cn/segment_waku2.o(.data)
 .data          0x00000000806918f0     0xa8b0 build/bin/cn/segment_waku2.o
                0x00000000806918f0                _binary_bin_cn_segment_waku2_bin_start
                0x000000008069c1a0                _binary_bin_cn_segment_waku2_bin_end
                0x000000008069c1a0                segment_waku2_DATA_END = .
                0x000000000000a8b0                segment_waku2_DATA_SIZE = ABSOLUTE ((segment_waku2_DATA_END - segment_waku2_DATA_START))
                0x000000000065e150                __romPos = (__romPos + SIZEOF (.segment_waku2))
                0x0000000000399090                segment_waku2_ROM_END = __romPos
                0x000000008069c1a0                segment_waku2_VRAM_END = .
                0x0000000000399090                segment_story_bg01_ROM_START = __romPos
                0x000000008069c1a0                segment_story_bg01_VRAM = ADDR (.segment_story_bg01)

.segment_story_bg01
                0x000000008069c1a0     0xca10 load address 0x0000000000399090
                0x000000008069c1a0                segment_story_bg01_DATA_START = .
                0x000000008069c1a0                segment_story_bg01 = .
 build/bin/cn/segment_story_bg01.o(.data)
 .data          0x000000008069c1a0     0xca10 build/bin/cn/segment_story_bg01.o
                0x000000008069c1a0                _binary_bin_cn_segment_story_bg01_bin_start
                0x00000000806a8bb0                _binary_bin_cn_segment_story_bg01_bin_end
                0x00000000806a8bb0                segment_story_bg01_DATA_END = .
                0x000000000000ca10                segment_story_bg01_DATA_SIZE = ABSOLUTE ((segment_story_bg01_DATA_END - segment_story_bg01_DATA_START))
                0x000000000065e150                __romPos = (__romPos + SIZEOF (.segment_story_bg01))
                0x00000000003a5aa0                segment_story_bg01_ROM_END = __romPos
                0x00000000806a8bb0                segment_story_bg01_VRAM_END = .
                0x00000000003a5aa0                segment_story_bg02_ROM_START = __romPos
                0x00000000806a8bb0                segment_story_bg02_VRAM = ADDR (.segment_story_bg02)

.segment_story_bg02
                0x00000000806a8bb0     0xca10 load address 0x00000000003a5aa0
                0x00000000806a8bb0                segment_story_bg02_DATA_START = .
                0x00000000806a8bb0                segment_story_bg02 = .
 build/bin/cn/segment_story_bg02.o(.data)
 .data          0x00000000806a8bb0     0xca10 build/bin/cn/segment_story_bg02.o
                0x00000000806a8bb0                _binary_bin_cn_segment_story_bg02_bin_start
                0x00000000806b55c0                _binary_bin_cn_segment_story_bg02_bin_end
                0x00000000806b55c0                segment_story_bg02_DATA_END = .
                0x000000000000ca10                segment_story_bg02_DATA_SIZE = ABSOLUTE ((segment_story_bg02_DATA_END - segment_story_bg02_DATA_START))
                0x000000000065e150                __romPos = (__romPos + SIZEOF (.segment_story_bg02))
                0x00000000003b24b0                segment_story_bg02_ROM_END = __romPos
                0x00000000806b55c0                segment_story_bg02_VRAM_END = .
                0x00000000003b24b0                segment_story_bg03_ROM_START = __romPos
                0x00000000806b55c0                segment_story_bg03_VRAM = ADDR (.segment_story_bg03)

.segment_story_bg03
                0x00000000806b55c0     0xca10 load address 0x00000000003b24b0
                0x00000000806b55c0                segment_story_bg03_DATA_START = .
                0x00000000806b55c0                segment_story_bg03 = .
 build/bin/cn/segment_story_bg03.o(.data)
 .data          0x00000000806b55c0     0xca10 build/bin/cn/segment_story_bg03.o
                0x00000000806b55c0                _binary_bin_cn_segment_story_bg03_bin_start
                0x00000000806c1fd0                _binary_bin_cn_segment_story_bg03_bin_end
                0x00000000806c1fd0                segment_story_bg03_DATA_END = .
                0x000000000000ca10                segment_story_bg03_DATA_SIZE = ABSOLUTE ((segment_story_bg03_DATA_END - segment_story_bg03_DATA_START))
                0x000000000065e150                __romPos = (__romPos + SIZEOF (.segment_story_bg03))
                0x00000000003beec0                segment_story_bg03_ROM_END = __romPos
                0x00000000806c1fd0                segment_story_bg03_VRAM_END = .
                0x00000000003beec0                segment_story_bg04_ROM_START = __romPos
                0x00000000806c1fd0                segment_story_bg04_VRAM = ADDR (.segment_story_bg04)

.segment_story_bg04
                0x00000000806c1fd0     0xca10 load address 0x00000000003beec0
                0x00000000806c1fd0                segment_story_bg04_DATA_START = .
                0x00000000806c1fd0                segment_story_bg04 = .
 build/bin/cn/segment_story_bg04.o(.data)
 .data          0x00000000806c1fd0     0xca10 build/bin/cn/segment_story_bg04.o
                0x00000000806c1fd0                _binary_bin_cn_segment_story_bg04_bin_start
                0x00000000806ce9e0                _binary_bin_cn_segment_story_bg04_bin_end
                0x00000000806ce9e0                segment_story_bg04_DATA_END = .
                0x000000000000ca10                segment_story_bg04_DATA_SIZE = ABSOLUTE ((segment_story_bg04_DATA_END - segment_story_bg04_DATA_START))
                0x000000000065e150                __romPos = (__romPos + SIZEOF (.segment_story_bg04))
                0x00000000003cb8d0                segment_story_bg04_ROM_END = __romPos
                0x00000000806ce9e0                segment_story_bg04_VRAM_END = .
                0x00000000003cb8d0                segment_story_bg05_ROM_START = __romPos
                0x00000000806ce9e0                segment_story_bg05_VRAM = ADDR (.segment_story_bg05)

.segment_story_bg05
                0x00000000806ce9e0     0xca10 load address 0x00000000003cb8d0
                0x00000000806ce9e0                segment_story_bg05_DATA_START = .
                0x00000000806ce9e0                segment_story_bg05 = .
 build/bin/cn/segment_story_bg05.o(.data)
 .data          0x00000000806ce9e0     0xca10 build/bin/cn/segment_story_bg05.o
                0x00000000806ce9e0                _binary_bin_cn_segment_story_bg05_bin_start
                0x00000000806db3f0                _binary_bin_cn_segment_story_bg05_bin_end
                0x00000000806db3f0                segment_story_bg05_DATA_END = .
                0x000000000000ca10                segment_story_bg05_DATA_SIZE = ABSOLUTE ((segment_story_bg05_DATA_END - segment_story_bg05_DATA_START))
                0x000000000065e150                __romPos = (__romPos + SIZEOF (.segment_story_bg05))
                0x00000000003d82e0                segment_story_bg05_ROM_END = __romPos
                0x00000000806db3f0                segment_story_bg05_VRAM_END = .
                0x00000000003d82e0                segment_story_bg07_ROM_START = __romPos
                0x00000000806db3f0                segment_story_bg07_VRAM = ADDR (.segment_story_bg07)

.segment_story_bg07
                0x00000000806db3f0     0xca10 load address 0x00000000003d82e0
                0x00000000806db3f0                segment_story_bg07_DATA_START = .
                0x00000000806db3f0                segment_story_bg07 = .
 build/bin/cn/segment_story_bg07.o(.data)
 .data          0x00000000806db3f0     0xca10 build/bin/cn/segment_story_bg07.o
                0x00000000806db3f0                _binary_bin_cn_segment_story_bg07_bin_start
                0x00000000806e7e00                _binary_bin_cn_segment_story_bg07_bin_end
                0x00000000806e7e00                segment_story_bg07_DATA_END = .
                0x000000000000ca10                segment_story_bg07_DATA_SIZE = ABSOLUTE ((segment_story_bg07_DATA_END - segment_story_bg07_DATA_START))
                0x000000000065e150                __romPos = (__romPos + SIZEOF (.segment_story_bg07))
                0x00000000003e4cf0                segment_story_bg07_ROM_END = __romPos
                0x00000000806e7e00                segment_story_bg07_VRAM_END = .
                0x00000000003e4cf0                segment_story_bg08_ROM_START = __romPos
                0x00000000806e7e00                segment_story_bg08_VRAM = ADDR (.segment_story_bg08)

.segment_story_bg08
                0x00000000806e7e00     0xca10 load address 0x00000000003e4cf0
                0x00000000806e7e00                segment_story_bg08_DATA_START = .
                0x00000000806e7e00                segment_story_bg08 = .
 build/bin/cn/segment_story_bg08.o(.data)
 .data          0x00000000806e7e00     0xca10 build/bin/cn/segment_story_bg08.o
                0x00000000806e7e00                _binary_bin_cn_segment_story_bg08_bin_start
                0x00000000806f4810                _binary_bin_cn_segment_story_bg08_bin_end
                0x00000000806f4810                segment_story_bg08_DATA_END = .
                0x000000000000ca10                segment_story_bg08_DATA_SIZE = ABSOLUTE ((segment_story_bg08_DATA_END - segment_story_bg08_DATA_START))
                0x000000000065e150                __romPos = (__romPos + SIZEOF (.segment_story_bg08))
                0x00000000003f1700                segment_story_bg08_ROM_END = __romPos
                0x00000000806f4810                segment_story_bg08_VRAM_END = .
                0x00000000003f1700                segment_story_bg09_ROM_START = __romPos
                0x00000000806f4810                segment_story_bg09_VRAM = ADDR (.segment_story_bg09)

.segment_story_bg09
                0x00000000806f4810     0xca10 load address 0x00000000003f1700
                0x00000000806f4810                segment_story_bg09_DATA_START = .
                0x00000000806f4810                segment_story_bg09 = .
 build/bin/cn/segment_story_bg09.o(.data)
 .data          0x00000000806f4810     0xca10 build/bin/cn/segment_story_bg09.o
                0x00000000806f4810                _binary_bin_cn_segment_story_bg09_bin_start
                0x0000000080701220                _binary_bin_cn_segment_story_bg09_bin_end
                0x0000000080701220                segment_story_bg09_DATA_END = .
                0x000000000000ca10                segment_story_bg09_DATA_SIZE = ABSOLUTE ((segment_story_bg09_DATA_END - segment_story_bg09_DATA_START))
                0x000000000065e150                __romPos = (__romPos + SIZEOF (.segment_story_bg09))
                0x00000000003fe110                segment_story_bg09_ROM_END = __romPos
                0x0000000080701220                segment_story_bg09_VRAM_END = .
                0x00000000003fe110                segment_story_bg10_ROM_START = __romPos
                0x0000000080701220                segment_story_bg10_VRAM = ADDR (.segment_story_bg10)

.segment_story_bg10
                0x0000000080701220     0xca10 load address 0x00000000003fe110
                0x0000000080701220                segment_story_bg10_DATA_START = .
                0x0000000080701220                segment_story_bg10 = .
 build/bin/cn/segment_story_bg10.o(.data)
 .data          0x0000000080701220     0xca10 build/bin/cn/segment_story_bg10.o
                0x0000000080701220                _binary_bin_cn_segment_story_bg10_bin_start
                0x000000008070dc30                _binary_bin_cn_segment_story_bg10_bin_end
                0x000000008070dc30                segment_story_bg10_DATA_END = .
                0x000000000000ca10                segment_story_bg10_DATA_SIZE = ABSOLUTE ((segment_story_bg10_DATA_END - segment_story_bg10_DATA_START))
                0x000000000065e150                __romPos = (__romPos + SIZEOF (.segment_story_bg10))
                0x000000000040ab20                segment_story_bg10_ROM_END = __romPos
                0x000000008070dc30                segment_story_bg10_VRAM_END = .
                0x000000000040ab20                segment_story_bg11_ROM_START = __romPos
                0x000000008070dc30                segment_story_bg11_VRAM = ADDR (.segment_story_bg11)

.segment_story_bg11
                0x000000008070dc30     0xca10 load address 0x000000000040ab20
                0x000000008070dc30                segment_story_bg11_DATA_START = .
                0x000000008070dc30                segment_story_bg11 = .
 build/bin/cn/segment_story_bg11.o(.data)
 .data          0x000000008070dc30     0xca10 build/bin/cn/segment_story_bg11.o
                0x000000008070dc30                _binary_bin_cn_segment_story_bg11_bin_start
                0x000000008071a640                _binary_bin_cn_segment_story_bg11_bin_end
                0x000000008071a640                segment_story_bg11_DATA_END = .
                0x000000000000ca10                segment_story_bg11_DATA_SIZE = ABSOLUTE ((segment_story_bg11_DATA_END - segment_story_bg11_DATA_START))
                0x000000000065e150                __romPos = (__romPos + SIZEOF (.segment_story_bg11))
                0x0000000000417530                segment_story_bg11_ROM_END = __romPos
                0x000000008071a640                segment_story_bg11_VRAM_END = .
                0x0000000000417530                segment_menu_char_ROM_START = __romPos
                0x000000008071a640                segment_menu_char_VRAM = ADDR (.segment_menu_char)

.segment_menu_char
                0x000000008071a640    0x10be0 load address 0x0000000000417530
                0x000000008071a640                segment_menu_char_DATA_START = .
                0x000000008071a640                segment_menu_char = .
 build/bin/cn/segment_menu_char.o(.data)
 .data          0x000000008071a640    0x10be0 build/bin/cn/segment_menu_char.o
                0x000000008071a640                _binary_bin_cn_segment_menu_char_bin_start
                0x000000008072b220                _binary_bin_cn_segment_menu_char_bin_end
                0x000000008072b220                segment_menu_char_DATA_END = .
                0x0000000000010be0                segment_menu_char_DATA_SIZE = ABSOLUTE ((segment_menu_char_DATA_END - segment_menu_char_DATA_START))
                0x000000000065e150                __romPos = (__romPos + SIZEOF (.segment_menu_char))
                0x0000000000428110                segment_menu_char_ROM_END = __romPos
                0x000000008072b220                segment_menu_char_VRAM_END = .
                0x0000000000428110                segment_menu_common_ROM_START = __romPos
                0x000000008072b220                segment_menu_common_VRAM = ADDR (.segment_menu_common)

.segment_menu_common
                0x000000008072b220    0x288d0 load address 0x0000000000428110
                0x000000008072b220                segment_menu_common_DATA_START = .
                0x000000008072b220                segment_menu_common = .
 build/bin/cn/segment_menu_common.o(.data)
 .data          0x000000008072b220    0x288d0 build/bin/cn/segment_menu_common.o
                0x000000008072b220                _binary_bin_cn_segment_menu_common_bin_start
                0x0000000080753af0                _binary_bin_cn_segment_menu_common_bin_end
                0x0000000080753af0                segment_menu_common_DATA_END = .
                0x00000000000288d0                segment_menu_common_DATA_SIZE = ABSOLUTE ((segment_menu_common_DATA_END - segment_menu_common_DATA_START))
                0x000000000065e150                __romPos = (__romPos + SIZEOF (.segment_menu_common))
                0x00000000004509e0                segment_menu_common_ROM_END = __romPos
                0x0000000080753af0                segment_menu_common_VRAM_END = .
                0x00000000004509e0                segment_menu_level_ROM_START = __romPos
                0x0000000080753af0                segment_menu_level_VRAM = ADDR (.segment_menu_level)

.segment_menu_level
                0x0000000080753af0    0x19810 load address 0x00000000004509e0
                0x0000000080753af0                segment_menu_level_DATA_START = .
                0x0000000080753af0                segment_menu_level = .
 build/bin/cn/segment_menu_level.o(.data)
 .data          0x0000000080753af0    0x19810 build/bin/cn/segment_menu_level.o
                0x0000000080753af0                _binary_bin_cn_segment_menu_level_bin_start
                0x000000008076d300                _binary_bin_cn_segment_menu_level_bin_end
                0x000000008076d300                segment_menu_level_DATA_END = .
                0x0000000000019810                segment_menu_level_DATA_SIZE = ABSOLUTE ((segment_menu_level_DATA_END - segment_menu_level_DATA_START))
                0x000000000065e150                __romPos = (__romPos + SIZEOF (.segment_menu_level))
                0x000000000046a1f0                segment_menu_level_ROM_END = __romPos
                0x000000008076d300                segment_menu_level_VRAM_END = .
                0x000000000046a1f0                segment_menu_main_ROM_START = __romPos
                0x000000008076d300                segment_menu_main_VRAM = ADDR (.segment_menu_main)

.segment_menu_main
                0x000000008076d300    0x26910 load address 0x000000000046a1f0
                0x000000008076d300                segment_menu_main_DATA_START = .
                0x000000008076d300                segment_menu_main = .
 build/bin/cn/segment_menu_main.o(.data)
 .data          0x000000008076d300    0x26910 build/bin/cn/segment_menu_main.o
                0x000000008076d300                _binary_bin_cn_segment_menu_main_bin_start
                0x0000000080793c10                _binary_bin_cn_segment_menu_main_bin_end
                0x0000000080793c10                segment_menu_main_DATA_END = .
                0x0000000000026910                segment_menu_main_DATA_SIZE = ABSOLUTE ((segment_menu_main_DATA_END - segment_menu_main_DATA_START))
                0x000000000065e150                __romPos = (__romPos + SIZEOF (.segment_menu_main))
                0x0000000000490b00                segment_menu_main_ROM_END = __romPos
                0x0000000080793c10                segment_menu_main_VRAM_END = .
                0x0000000000490b00                segment_menu_name_ROM_START = __romPos
                0x0000000080793c10                segment_menu_name_VRAM = ADDR (.segment_menu_name)

.segment_menu_name
                0x0000000080793c10     0xbe20 load address 0x0000000000490b00
                0x0000000080793c10                segment_menu_name_DATA_START = .
                0x0000000080793c10                segment_menu_name = .
 build/bin/cn/segment_menu_name.o(.data)
 .data          0x0000000080793c10     0xbe20 build/bin/cn/segment_menu_name.o
                0x0000000080793c10                _binary_bin_cn_segment_menu_name_bin_start
                0x000000008079fa30                _binary_bin_cn_segment_menu_name_bin_end
                0x000000008079fa30                segment_menu_name_DATA_END = .
                0x000000000000be20                segment_menu_name_DATA_SIZE = ABSOLUTE ((segment_menu_name_DATA_END - segment_menu_name_DATA_START))
                0x000000000065e150                __romPos = (__romPos + SIZEOF (.segment_menu_name))
                0x000000000049c920                segment_menu_name_ROM_END = __romPos
                0x000000008079fa30                segment_menu_name_VRAM_END = .
                0x000000000049c920                segment_menu_p2_ROM_START = __romPos
                0x000000008079fa30                segment_menu_p2_VRAM = ADDR (.segment_menu_p2)

.segment_menu_p2
                0x000000008079fa30     0x9ea0 load address 0x000000000049c920
                0x000000008079fa30                segment_menu_p2_DATA_START = .
                0x000000008079fa30                segment_menu_p2 = .
 build/bin/cn/segment_menu_p2.o(.data)
 .data          0x000000008079fa30     0x9ea0 build/bin/cn/segment_menu_p2.o
                0x000000008079fa30                _binary_bin_cn_segment_menu_p2_bin_start
                0x00000000807a98d0                _binary_bin_cn_segment_menu_p2_bin_end
                0x00000000807a98d0                segment_menu_p2_DATA_END = .
                0x0000000000009ea0                segment_menu_p2_DATA_SIZE = ABSOLUTE ((segment_menu_p2_DATA_END - segment_menu_p2_DATA_START))
                0x000000000065e150                __romPos = (__romPos + SIZEOF (.segment_menu_p2))
                0x00000000004a67c0                segment_menu_p2_ROM_END = __romPos
                0x00000000807a98d0                segment_menu_p2_VRAM_END = .
                0x00000000004a67c0                segment_menu_p4_ROM_START = __romPos
                0x00000000807a98d0                segment_menu_p4_VRAM = ADDR (.segment_menu_p4)

.segment_menu_p4
                0x00000000807a98d0     0xdac0 load address 0x00000000004a67c0
                0x00000000807a98d0                segment_menu_p4_DATA_START = .
                0x00000000807a98d0                segment_menu_p4 = .
 build/bin/cn/segment_menu_p4.o(.data)
 .data          0x00000000807a98d0     0xdac0 build/bin/cn/segment_menu_p4.o
                0x00000000807a98d0                _binary_bin_cn_segment_menu_p4_bin_start
                0x00000000807b7390                _binary_bin_cn_segment_menu_p4_bin_end
                0x00000000807b7390                segment_menu_p4_DATA_END = .
                0x000000000000dac0                segment_menu_p4_DATA_SIZE = ABSOLUTE ((segment_menu_p4_DATA_END - segment_menu_p4_DATA_START))
                0x000000000065e150                __romPos = (__romPos + SIZEOF (.segment_menu_p4))
                0x00000000004b4280                segment_menu_p4_ROM_END = __romPos
                0x00000000807b7390                segment_menu_p4_VRAM_END = .
                0x00000000004b4280                segment_menu_rank_ROM_START = __romPos
                0x00000000807b7390                segment_menu_rank_VRAM = ADDR (.segment_menu_rank)

.segment_menu_rank
                0x00000000807b7390     0x9310 load address 0x00000000004b4280
                0x00000000807b7390                segment_menu_rank_DATA_START = .
                0x00000000807b7390                segment_menu_rank = .
 build/bin/cn/segment_menu_rank.o(.data)
 .data          0x00000000807b7390     0x9310 build/bin/cn/segment_menu_rank.o
                0x00000000807b7390                _binary_bin_cn_segment_menu_rank_bin_start
                0x00000000807c06a0                _binary_bin_cn_segment_menu_rank_bin_end
                0x00000000807c06a0                segment_menu_rank_DATA_END = .
                0x0000000000009310                segment_menu_rank_DATA_SIZE = ABSOLUTE ((segment_menu_rank_DATA_END - segment_menu_rank_DATA_START))
                0x000000000065e150                __romPos = (__romPos + SIZEOF (.segment_menu_rank))
                0x00000000004bd590                segment_menu_rank_ROM_END = __romPos
                0x00000000807c06a0                segment_menu_rank_VRAM_END = .
                0x00000000004bd590                segment_menu_setup_ROM_START = __romPos
                0x00000000807c06a0                segment_menu_setup_VRAM = ADDR (.segment_menu_setup)

.segment_menu_setup
                0x00000000807c06a0    0x1c6c0 load address 0x00000000004bd590
                0x00000000807c06a0                segment_menu_setup_DATA_START = .
                0x00000000807c06a0                segment_menu_setup = .
 build/bin/cn/segment_menu_setup.o(.data)
 .data          0x00000000807c06a0    0x1c6c0 build/bin/cn/segment_menu_setup.o
                0x00000000807c06a0                _binary_bin_cn_segment_menu_setup_bin_start
                0x00000000807dcd60                _binary_bin_cn_segment_menu_setup_bin_end
                0x00000000807dcd60                segment_menu_setup_DATA_END = .
                0x000000000001c6c0                segment_menu_setup_DATA_SIZE = ABSOLUTE ((segment_menu_setup_DATA_END - segment_menu_setup_DATA_START))
                0x000000000065e150                __romPos = (__romPos + SIZEOF (.segment_menu_setup))
                0x00000000004d9c50                segment_menu_setup_ROM_END = __romPos
                0x00000000807dcd60                segment_menu_setup_VRAM_END = .
                0x00000000004d9c50                segment_menu_story_ROM_START = __romPos
                0x00000000807dcd60                segment_menu_story_VRAM = ADDR (.segment_menu_story)

.segment_menu_story
                0x00000000807dcd60    0x1b240 load address 0x00000000004d9c50
                0x00000000807dcd60                segment_menu_story_DATA_START = .
                0x00000000807dcd60                segment_menu_story = .
 build/bin/cn/segment_menu_story.o(.data)
 .data          0x00000000807dcd60    0x1b240 build/bin/cn/segment_menu_story.o
                0x00000000807dcd60                _binary_bin_cn_segment_menu_story_bin_start
                0x00000000807f7fa0                _binary_bin_cn_segment_menu_story_bin_end
                0x00000000807f7fa0                segment_menu_story_DATA_END = .
                0x000000000001b240                segment_menu_story_DATA_SIZE = ABSOLUTE ((segment_menu_story_DATA_END - segment_menu_story_DATA_START))
                0x000000000065e150                __romPos = (__romPos + SIZEOF (.segment_menu_story))
                0x00000000004f4e90                segment_menu_story_ROM_END = __romPos
                0x00000000807f7fa0                segment_menu_story_VRAM_END = .
                0x00000000004f4e90                segment_menu_cont_ROM_START = __romPos
                0x00000000807f7fa0                segment_menu_cont_VRAM = ADDR (.segment_menu_cont)

.segment_menu_cont
                0x00000000807f7fa0     0x84c0 load address 0x00000000004f4e90
                0x00000000807f7fa0                segment_menu_cont_DATA_START = .
                0x00000000807f7fa0                segment_menu_cont = .
 build/bin/cn/segment_menu_cont.o(.data)
 .data          0x00000000807f7fa0     0x84c0 build/bin/cn/segment_menu_cont.o
                0x00000000807f7fa0                _binary_bin_cn_segment_menu_cont_bin_start
                0x0000000080800460                _binary_bin_cn_segment_menu_cont_bin_end
                0x0000000080800460                segment_menu_cont_DATA_END = .
                0x00000000000084c0                segment_menu_cont_DATA_SIZE = ABSOLUTE ((segment_menu_cont_DATA_END - segment_menu_cont_DATA_START))
                0x000000000065e150                __romPos = (__romPos + SIZEOF (.segment_menu_cont))
                0x00000000004fd350                segment_menu_cont_ROM_END = __romPos
                0x0000000080800460                segment_menu_cont_VRAM_END = .
                0x00000000004fd350                segment_menu_kasa_ROM_START = __romPos
                0x0000000080800460                segment_menu_kasa_VRAM = ADDR (.segment_menu_kasa)

.segment_menu_kasa
                0x0000000080800460     0xe610 load address 0x00000000004fd350
                0x0000000080800460                segment_menu_kasa_DATA_START = .
                0x0000000080800460                segment_menu_kasa = .
 build/bin/cn/segment_menu_kasa.o(.data)
 .data          0x0000000080800460     0xe610 build/bin/cn/segment_menu_kasa.o
                0x0000000080800460                _binary_bin_cn_segment_menu_kasa_bin_start
                0x000000008080ea70                _binary_bin_cn_segment_menu_kasa_bin_end
                0x000000008080ea70                segment_menu_kasa_DATA_END = .
                0x000000000000e610                segment_menu_kasa_DATA_SIZE = ABSOLUTE ((segment_menu_kasa_DATA_END - segment_menu_kasa_DATA_START))
                0x000000000065e150                __romPos = (__romPos + SIZEOF (.segment_menu_kasa))
                0x000000000050b960                segment_menu_kasa_ROM_END = __romPos
                0x000000008080ea70                segment_menu_kasa_VRAM_END = .
                0x000000000050b960                segment_game_al_ROM_START = __romPos
                0x000000008080ea70                segment_game_al_VRAM = ADDR (.segment_game_al)

.segment_game_al
                0x000000008080ea70     0xf4c0 load address 0x000000000050b960
                0x000000008080ea70                segment_game_al_DATA_START = .
                0x000000008080ea70                segment_game_al = .
 build/bin/cn/segment_game_al.o(.data)
 .data          0x000000008080ea70     0xf4c0 build/bin/cn/segment_game_al.o
                0x000000008080ea70                _binary_bin_cn_segment_game_al_bin_start
                0x000000008081df30                _binary_bin_cn_segment_game_al_bin_end
                0x000000008081df30                segment_game_al_DATA_END = .
                0x000000000000f4c0                segment_game_al_DATA_SIZE = ABSOLUTE ((segment_game_al_DATA_END - segment_game_al_DATA_START))
                0x000000000065e150                __romPos = (__romPos + SIZEOF (.segment_game_al))
                0x000000000051ae20                segment_game_al_ROM_END = __romPos
                0x000000008081df30                segment_game_al_VRAM_END = .
                0x000000000051ae20                segment_game_p1_ROM_START = __romPos
                0x000000008081df30                segment_game_p1_VRAM = ADDR (.segment_game_p1)

.segment_game_p1
                0x000000008081df30    0x116c0 load address 0x000000000051ae20
                0x000000008081df30                segment_game_p1_DATA_START = .
                0x000000008081df30                segment_game_p1 = .
 build/bin/cn/segment_game_p1.o(.data)
 .data          0x000000008081df30    0x116c0 build/bin/cn/segment_game_p1.o
                0x000000008081df30                _binary_bin_cn_segment_game_p1_bin_start
                0x000000008082f5f0                _binary_bin_cn_segment_game_p1_bin_end
                0x000000008082f5f0                segment_game_p1_DATA_END = .
                0x00000000000116c0                segment_game_p1_DATA_SIZE = ABSOLUTE ((segment_game_p1_DATA_END - segment_game_p1_DATA_START))
                0x000000000065e150                __romPos = (__romPos + SIZEOF (.segment_game_p1))
                0x000000000052c4e0                segment_game_p1_ROM_END = __romPos
                0x000000008082f5f0                segment_game_p1_VRAM_END = .
                0x000000000052c4e0                segment_game_p2_ROM_START = __romPos
                0x000000008082f5f0                segment_game_p2_VRAM = ADDR (.segment_game_p2)

.segment_game_p2
                0x000000008082f5f0    0x11f50 load address 0x000000000052c4e0
                0x000000008082f5f0                segment_game_p2_DATA_START = .
                0x000000008082f5f0                segment_game_p2 = .
 build/bin/cn/segment_game_p2.o(.data)
 .data          0x000000008082f5f0    0x11f50 build/bin/cn/segment_game_p2.o
                0x000000008082f5f0                _binary_bin_cn_segment_game_p2_bin_start
                0x0000000080841540                _binary_bin_cn_segment_game_p2_bin_end
                0x0000000080841540                segment_game_p2_DATA_END = .
                0x0000000000011f50                segment_game_p2_DATA_SIZE = ABSOLUTE ((segment_game_p2_DATA_END - segment_game_p2_DATA_START))
                0x000000000065e150                __romPos = (__romPos + SIZEOF (.segment_game_p2))
                0x000000000053e430                segment_game_p2_ROM_END = __romPos
                0x0000000080841540                segment_game_p2_VRAM_END = .
                0x000000000053e430                segment_game_p4_ROM_START = __romPos
                0x0000000080841540                segment_game_p4_VRAM = ADDR (.segment_game_p4)

.segment_game_p4
                0x0000000080841540    0x1ef70 load address 0x000000000053e430
                0x0000000080841540                segment_game_p4_DATA_START = .
                0x0000000080841540                segment_game_p4 = .
 build/bin/cn/segment_game_p4.o(.data)
 .data          0x0000000080841540    0x1ef70 build/bin/cn/segment_game_p4.o
                0x0000000080841540                _binary_bin_cn_segment_game_p4_bin_start
                0x00000000808604b0                _binary_bin_cn_segment_game_p4_bin_end
                0x00000000808604b0                segment_game_p4_DATA_END = .
                0x000000000001ef70                segment_game_p4_DATA_SIZE = ABSOLUTE ((segment_game_p4_DATA_END - segment_game_p4_DATA_START))
                0x000000000065e150                __romPos = (__romPos + SIZEOF (.segment_game_p4))
                0x000000000055d3a0                segment_game_p4_ROM_END = __romPos
                0x00000000808604b0                segment_game_p4_VRAM_END = .
                0x000000000055d3a0                segment_game_ls_ROM_START = __romPos
                0x00000000808604b0                segment_game_ls_VRAM = ADDR (.segment_game_ls)

.segment_game_ls
                0x00000000808604b0    0x33400 load address 0x000000000055d3a0
                0x00000000808604b0                segment_game_ls_DATA_START = .
                0x00000000808604b0                segment_game_ls = .
 build/bin/cn/segment_game_ls.o(.data)
 .data          0x00000000808604b0    0x33400 build/bin/cn/segment_game_ls.o
                0x00000000808604b0                _binary_bin_cn_segment_game_ls_bin_start
                0x00000000808938b0                _binary_bin_cn_segment_game_ls_bin_end
                0x00000000808938b0                segment_game_ls_DATA_END = .
                0x0000000000033400                segment_game_ls_DATA_SIZE = ABSOLUTE ((segment_game_ls_DATA_END - segment_game_ls_DATA_START))
                0x000000000065e150                __romPos = (__romPos + SIZEOF (.segment_game_ls))
                0x00000000005907a0                segment_game_ls_ROM_END = __romPos
                0x00000000808938b0                segment_game_ls_VRAM_END = .
                0x00000000005907a0                segment_game_item_ROM_START = __romPos
                0x00000000808938b0                segment_game_item_VRAM = ADDR (.segment_game_item)

.segment_game_item
                0x00000000808938b0     0x1a40 load address 0x00000000005907a0
                0x00000000808938b0                segment_game_item_DATA_START = .
                0x00000000808938b0                segment_game_item = .
 build/bin/cn/segment_game_item.o(.data)
 .data          0x00000000808938b0     0x1a40 build/bin/cn/segment_game_item.o
                0x00000000808938b0                _binary_bin_cn_segment_game_item_bin_start
                0x00000000808952f0                _binary_bin_cn_segment_game_item_bin_end
                0x00000000808952f0                segment_game_item_DATA_END = .
                0x0000000000001a40                segment_game_item_DATA_SIZE = ABSOLUTE ((segment_game_item_DATA_END - segment_game_item_DATA_START))
                0x000000000065e150                __romPos = (__romPos + SIZEOF (.segment_game_item))
                0x00000000005921e0                segment_game_item_ROM_END = __romPos
                0x00000000808952f0                segment_game_item_VRAM_END = .
                0x00000000005921e0                segment_anime_a_ROM_START = __romPos
                0x00000000808952f0                segment_anime_a_VRAM = ADDR (.segment_anime_a)

.segment_anime_a
                0x00000000808952f0    0x10370 load address 0x00000000005921e0
                0x00000000808952f0                segment_anime_a_DATA_START = .
                0x00000000808952f0                segment_anime_a = .
 build/bin/cn/segment_anime_a.o(.data)
 .data          0x00000000808952f0    0x10370 build/bin/cn/segment_anime_a.o
                0x00000000808952f0                _binary_bin_cn_segment_anime_a_bin_start
                0x00000000808a5660                _binary_bin_cn_segment_anime_a_bin_end
                0x00000000808a5660                segment_anime_a_DATA_END = .
                0x0000000000010370                segment_anime_a_DATA_SIZE = ABSOLUTE ((segment_anime_a_DATA_END - segment_anime_a_DATA_START))
                0x000000000065e150                __romPos = (__romPos + SIZEOF (.segment_anime_a))
                0x00000000005a2550                segment_anime_a_ROM_END = __romPos
                0x00000000808a5660                segment_anime_a_VRAM_END = .
                0x00000000005a2550                segment_anime_b_ROM_START = __romPos
                0x00000000808a5660                segment_anime_b_VRAM = ADDR (.segment_anime_b)

.segment_anime_b
                0x00000000808a5660     0x6100 load address 0x00000000005a2550
                0x00000000808a5660                segment_anime_b_DATA_START = .
                0x00000000808a5660                segment_anime_b = .
 build/bin/cn/segment_anime_b.o(.data)
 .data          0x00000000808a5660     0x6100 build/bin/cn/segment_anime_b.o
                0x00000000808a5660                _binary_bin_cn_segment_anime_b_bin_start
                0x00000000808ab760                _binary_bin_cn_segment_anime_b_bin_end
                0x00000000808ab760                segment_anime_b_DATA_END = .
                0x0000000000006100                segment_anime_b_DATA_SIZE = ABSOLUTE ((segment_anime_b_DATA_END - segment_anime_b_DATA_START))
                0x000000000065e150                __romPos = (__romPos + SIZEOF (.segment_anime_b))
                0x00000000005a8650                segment_anime_b_ROM_END = __romPos
                0x00000000808ab760                segment_anime_b_VRAM_END = .
                0x00000000005a8650                segment_anime_c_ROM_START = __romPos
                0x00000000808ab760                segment_anime_c_VRAM = ADDR (.segment_anime_c)

.segment_anime_c
                0x00000000808ab760    0x10ff0 load address 0x00000000005a8650
                0x00000000808ab760                segment_anime_c_DATA_START = .
                0x00000000808ab760                segment_anime_c = .
 build/bin/cn/segment_anime_c.o(.data)
 .data          0x00000000808ab760    0x10ff0 build/bin/cn/segment_anime_c.o
                0x00000000808ab760                _binary_bin_cn_segment_anime_c_bin_start
                0x00000000808bc750                _binary_bin_cn_segment_anime_c_bin_end
                0x00000000808bc750                segment_anime_c_DATA_END = .
                0x0000000000010ff0                segment_anime_c_DATA_SIZE = ABSOLUTE ((segment_anime_c_DATA_END - segment_anime_c_DATA_START))
                0x000000000065e150                __romPos = (__romPos + SIZEOF (.segment_anime_c))
                0x00000000005b9640                segment_anime_c_ROM_END = __romPos
                0x00000000808bc750                segment_anime_c_VRAM_END = .
                0x00000000005b9640                segment_anime_d_ROM_START = __romPos
                0x00000000808bc750                segment_anime_d_VRAM = ADDR (.segment_anime_d)

.segment_anime_d
                0x00000000808bc750     0x8a30 load address 0x00000000005b9640
                0x00000000808bc750                segment_anime_d_DATA_START = .
                0x00000000808bc750                segment_anime_d = .
 build/bin/cn/segment_anime_d.o(.data)
 .data          0x00000000808bc750     0x8a30 build/bin/cn/segment_anime_d.o
                0x00000000808bc750                _binary_bin_cn_segment_anime_d_bin_start
                0x00000000808c5180                _binary_bin_cn_segment_anime_d_bin_end
                0x00000000808c5180                segment_anime_d_DATA_END = .
                0x0000000000008a30                segment_anime_d_DATA_SIZE = ABSOLUTE ((segment_anime_d_DATA_END - segment_anime_d_DATA_START))
                0x000000000065e150                __romPos = (__romPos + SIZEOF (.segment_anime_d))
                0x00000000005c2070                segment_anime_d_ROM_END = __romPos
                0x00000000808c5180                segment_anime_d_VRAM_END = .
                0x00000000005c2070                segment_anime_e_ROM_START = __romPos
                0x00000000808c5180                segment_anime_e_VRAM = ADDR (.segment_anime_e)

.segment_anime_e
                0x00000000808c5180     0xa0b0 load address 0x00000000005c2070
                0x00000000808c5180                segment_anime_e_DATA_START = .
                0x00000000808c5180                segment_anime_e = .
 build/bin/cn/segment_anime_e.o(.data)
 .data          0x00000000808c5180     0xa0b0 build/bin/cn/segment_anime_e.o
                0x00000000808c5180                _binary_bin_cn_segment_anime_e_bin_start
                0x00000000808cf230                _binary_bin_cn_segment_anime_e_bin_end
                0x00000000808cf230                segment_anime_e_DATA_END = .
                0x000000000000a0b0                segment_anime_e_DATA_SIZE = ABSOLUTE ((segment_anime_e_DATA_END - segment_anime_e_DATA_START))
                0x000000000065e150                __romPos = (__romPos + SIZEOF (.segment_anime_e))
                0x00000000005cc120                segment_anime_e_ROM_END = __romPos
                0x00000000808cf230                segment_anime_e_VRAM_END = .
                0x00000000005cc120                segment_anime_f_ROM_START = __romPos
                0x00000000808cf230                segment_anime_f_VRAM = ADDR (.segment_anime_f)

.segment_anime_f
                0x00000000808cf230     0x6c50 load address 0x00000000005cc120
                0x00000000808cf230                segment_anime_f_DATA_START = .
                0x00000000808cf230                segment_anime_f = .
 build/bin/cn/segment_anime_f.o(.data)
 .data          0x00000000808cf230     0x6c50 build/bin/cn/segment_anime_f.o
                0x00000000808cf230                _binary_bin_cn_segment_anime_f_bin_start
                0x00000000808d5e80                _binary_bin_cn_segment_anime_f_bin_end
                0x00000000808d5e80                segment_anime_f_DATA_END = .
                0x0000000000006c50                segment_anime_f_DATA_SIZE = ABSOLUTE ((segment_anime_f_DATA_END - segment_anime_f_DATA_START))
                0x000000000065e150                __romPos = (__romPos + SIZEOF (.segment_anime_f))
                0x00000000005d2d70                segment_anime_f_ROM_END = __romPos
                0x00000000808d5e80                segment_anime_f_VRAM_END = .
                0x00000000005d2d70                segment_anime_g_ROM_START = __romPos
                0x00000000808d5e80                segment_anime_g_VRAM = ADDR (.segment_anime_g)

.segment_anime_g
                0x00000000808d5e80     0xd430 load address 0x00000000005d2d70
                0x00000000808d5e80                segment_anime_g_DATA_START = .
                0x00000000808d5e80                segment_anime_g = .
 build/bin/cn/segment_anime_g.o(.data)
 .data          0x00000000808d5e80     0xd430 build/bin/cn/segment_anime_g.o
                0x00000000808d5e80                _binary_bin_cn_segment_anime_g_bin_start
                0x00000000808e32b0                _binary_bin_cn_segment_anime_g_bin_end
                0x00000000808e32b0                segment_anime_g_DATA_END = .
                0x000000000000d430                segment_anime_g_DATA_SIZE = ABSOLUTE ((segment_anime_g_DATA_END - segment_anime_g_DATA_START))
                0x000000000065e150                __romPos = (__romPos + SIZEOF (.segment_anime_g))
                0x00000000005e01a0                segment_anime_g_ROM_END = __romPos
                0x00000000808e32b0                segment_anime_g_VRAM_END = .
                0x00000000005e01a0                segment_anime_h_ROM_START = __romPos
                0x00000000808e32b0                segment_anime_h_VRAM = ADDR (.segment_anime_h)

.segment_anime_h
                0x00000000808e32b0     0x5740 load address 0x00000000005e01a0
                0x00000000808e32b0                segment_anime_h_DATA_START = .
                0x00000000808e32b0                segment_anime_h = .
 build/bin/cn/segment_anime_h.o(.data)
 .data          0x00000000808e32b0     0x5740 build/bin/cn/segment_anime_h.o
                0x00000000808e32b0                _binary_bin_cn_segment_anime_h_bin_start
                0x00000000808e89f0                _binary_bin_cn_segment_anime_h_bin_end
                0x00000000808e89f0                segment_anime_h_DATA_END = .
                0x0000000000005740                segment_anime_h_DATA_SIZE = ABSOLUTE ((segment_anime_h_DATA_END - segment_anime_h_DATA_START))
                0x000000000065e150                __romPos = (__romPos + SIZEOF (.segment_anime_h))
                0x00000000005e58e0                segment_anime_h_ROM_END = __romPos
                0x00000000808e89f0                segment_anime_h_VRAM_END = .
                0x00000000005e58e0                segment_anime_i_ROM_START = __romPos
                0x00000000808e89f0                segment_anime_i_VRAM = ADDR (.segment_anime_i)

.segment_anime_i
                0x00000000808e89f0     0x93a0 load address 0x00000000005e58e0
                0x00000000808e89f0                segment_anime_i_DATA_START = .
                0x00000000808e89f0                segment_anime_i = .
 build/bin/cn/segment_anime_i.o(.data)
 .data          0x00000000808e89f0     0x93a0 build/bin/cn/segment_anime_i.o
                0x00000000808e89f0                _binary_bin_cn_segment_anime_i_bin_start
                0x00000000808f1d90                _binary_bin_cn_segment_anime_i_bin_end
                0x00000000808f1d90                segment_anime_i_DATA_END = .
                0x00000000000093a0                segment_anime_i_DATA_SIZE = ABSOLUTE ((segment_anime_i_DATA_END - segment_anime_i_DATA_START))
                0x000000000065e150                __romPos = (__romPos + SIZEOF (.segment_anime_i))
                0x00000000005eec80                segment_anime_i_ROM_END = __romPos
                0x00000000808f1d90                segment_anime_i_VRAM_END = .
                0x00000000005eec80                segment_anime_j_ROM_START = __romPos
                0x00000000808f1d90                segment_anime_j_VRAM = ADDR (.segment_anime_j)

.segment_anime_j
                0x00000000808f1d90     0xac30 load address 0x00000000005eec80
                0x00000000808f1d90                segment_anime_j_DATA_START = .
                0x00000000808f1d90                segment_anime_j = .
 build/bin/cn/segment_anime_j.o(.data)
 .data          0x00000000808f1d90     0xac30 build/bin/cn/segment_anime_j.o
                0x00000000808f1d90                _binary_bin_cn_segment_anime_j_bin_start
                0x00000000808fc9c0                _binary_bin_cn_segment_anime_j_bin_end
                0x00000000808fc9c0                segment_anime_j_DATA_END = .
                0x000000000000ac30                segment_anime_j_DATA_SIZE = ABSOLUTE ((segment_anime_j_DATA_END - segment_anime_j_DATA_START))
                0x000000000065e150                __romPos = (__romPos + SIZEOF (.segment_anime_j))
                0x00000000005f98b0                segment_anime_j_ROM_END = __romPos
                0x00000000808fc9c0                segment_anime_j_VRAM_END = .
                0x00000000005f98b0                segment_anime_k_ROM_START = __romPos
                0x00000000808fc9c0                segment_anime_k_VRAM = ADDR (.segment_anime_k)

.segment_anime_k
                0x00000000808fc9c0     0x51b0 load address 0x00000000005f98b0
                0x00000000808fc9c0                segment_anime_k_DATA_START = .
                0x00000000808fc9c0                segment_anime_k = .
 build/bin/cn/segment_anime_k.o(.data)
 .data          0x00000000808fc9c0     0x51b0 build/bin/cn/segment_anime_k.o
                0x00000000808fc9c0                _binary_bin_cn_segment_anime_k_bin_start
                0x0000000080901b70                _binary_bin_cn_segment_anime_k_bin_end
                0x0000000080901b70                segment_anime_k_DATA_END = .
                0x00000000000051b0                segment_anime_k_DATA_SIZE = ABSOLUTE ((segment_anime_k_DATA_END - segment_anime_k_DATA_START))
                0x000000000065e150                __romPos = (__romPos + SIZEOF (.segment_anime_k))
                0x00000000005fea60                segment_anime_k_ROM_END = __romPos
                0x0000000080901b70                segment_anime_k_VRAM_END = .
                0x00000000005fea60                segment_anime_l_ROM_START = __romPos
                0x0000000080901b70                segment_anime_l_VRAM = ADDR (.segment_anime_l)

.segment_anime_l
                0x0000000080901b70     0xccd0 load address 0x00000000005fea60
                0x0000000080901b70                segment_anime_l_DATA_START = .
                0x0000000080901b70                segment_anime_l = .
 build/bin/cn/segment_anime_l.o(.data)
 .data          0x0000000080901b70     0xccd0 build/bin/cn/segment_anime_l.o
                0x0000000080901b70                _binary_bin_cn_segment_anime_l_bin_start
                0x000000008090e840                _binary_bin_cn_segment_anime_l_bin_end
                0x000000008090e840                segment_anime_l_DATA_END = .
                0x000000000000ccd0                segment_anime_l_DATA_SIZE = ABSOLUTE ((segment_anime_l_DATA_END - segment_anime_l_DATA_START))
                0x000000000065e150                __romPos = (__romPos + SIZEOF (.segment_anime_l))
                0x000000000060b730                segment_anime_l_ROM_END = __romPos
                0x000000008090e840                segment_anime_l_VRAM_END = .
                0x000000000060b730                segment_anime_m_ROM_START = __romPos
                0x000000008090e840                segment_anime_m_VRAM = ADDR (.segment_anime_m)

.segment_anime_m
                0x000000008090e840     0x6b60 load address 0x000000000060b730
                0x000000008090e840                segment_anime_m_DATA_START = .
                0x000000008090e840                segment_anime_m = .
 build/bin/cn/segment_anime_m.o(.data)
 .data          0x000000008090e840     0x6b60 build/bin/cn/segment_anime_m.o
                0x000000008090e840                _binary_bin_cn_segment_anime_m_bin_start
                0x00000000809153a0                _binary_bin_cn_segment_anime_m_bin_end
                0x00000000809153a0                segment_anime_m_DATA_END = .
                0x0000000000006b60                segment_anime_m_DATA_SIZE = ABSOLUTE ((segment_anime_m_DATA_END - segment_anime_m_DATA_START))
                0x000000000065e150                __romPos = (__romPos + SIZEOF (.segment_anime_m))
                0x0000000000612290                segment_anime_m_ROM_END = __romPos
                0x00000000809153a0                segment_anime_m_VRAM_END = .
                0x0000000000612290                segment_anime_n_ROM_START = __romPos
                0x00000000809153a0                segment_anime_n_VRAM = ADDR (.segment_anime_n)

.segment_anime_n
                0x00000000809153a0     0x8f80 load address 0x0000000000612290
                0x00000000809153a0                segment_anime_n_DATA_START = .
                0x00000000809153a0                segment_anime_n = .
 build/bin/cn/segment_anime_n.o(.data)
 .data          0x00000000809153a0     0x8f80 build/bin/cn/segment_anime_n.o
                0x00000000809153a0                _binary_bin_cn_segment_anime_n_bin_start
                0x000000008091e320                _binary_bin_cn_segment_anime_n_bin_end
                0x000000008091e320                segment_anime_n_DATA_END = .
                0x0000000000008f80                segment_anime_n_DATA_SIZE = ABSOLUTE ((segment_anime_n_DATA_END - segment_anime_n_DATA_START))
                0x000000000065e150                __romPos = (__romPos + SIZEOF (.segment_anime_n))
                0x000000000061b210                segment_anime_n_ROM_END = __romPos
                0x000000008091e320                segment_anime_n_VRAM_END = .
                0x000000000061b210                segment_anime_o_ROM_START = __romPos
                0x000000008091e320                segment_anime_o_VRAM = ADDR (.segment_anime_o)

.segment_anime_o
                0x000000008091e320     0x6b60 load address 0x000000000061b210
                0x000000008091e320                segment_anime_o_DATA_START = .
                0x000000008091e320                segment_anime_o = .
 build/bin/cn/segment_anime_o.o(.data)
 .data          0x000000008091e320     0x6b60 build/bin/cn/segment_anime_o.o
                0x000000008091e320                _binary_bin_cn_segment_anime_o_bin_start
                0x0000000080924e80                _binary_bin_cn_segment_anime_o_bin_end
                0x0000000080924e80                segment_anime_o_DATA_END = .
                0x0000000000006b60                segment_anime_o_DATA_SIZE = ABSOLUTE ((segment_anime_o_DATA_END - segment_anime_o_DATA_START))
                0x000000000065e150                __romPos = (__romPos + SIZEOF (.segment_anime_o))
                0x0000000000621d70                segment_anime_o_ROM_END = __romPos
                0x0000000080924e80                segment_anime_o_VRAM_END = .
                0x0000000000621d70                segment_anime_mario_ROM_START = __romPos
                0x0000000080924e80                segment_anime_mario_VRAM = ADDR (.segment_anime_mario)

.segment_anime_mario
                0x0000000080924e80    0x2d790 load address 0x0000000000621d70
                0x0000000080924e80                segment_anime_mario_DATA_START = .
                0x0000000080924e80                segment_anime_mario = .
 build/bin/cn/segment_anime_mario.o(.data)
 .data          0x0000000080924e80    0x2d790 build/bin/cn/segment_anime_mario.o
                0x0000000080924e80                _binary_bin_cn_segment_anime_mario_bin_start
                0x0000000080952610                _binary_bin_cn_segment_anime_mario_bin_end
                0x0000000080952610                segment_anime_mario_DATA_END = .
                0x000000000002d790                segment_anime_mario_DATA_SIZE = ABSOLUTE ((segment_anime_mario_DATA_END - segment_anime_mario_DATA_START))
                0x000000000065e150                __romPos = (__romPos + SIZEOF (.segment_anime_mario))
                0x000000000064f500                segment_anime_mario_ROM_END = __romPos
                0x0000000080952610                segment_anime_mario_VRAM_END = .
                0x000000000064f500                segment_anime_virus_b_ROM_START = __romPos
                0x0000000080952610                segment_anime_virus_b_VRAM = ADDR (.segment_anime_virus_b)

.segment_anime_virus_b
                0x0000000080952610     0x1bf0 load address 0x000000000064f500
                0x0000000080952610                segment_anime_virus_b_DATA_START = .
                0x0000000080952610                segment_anime_virus_b = .
 build/bin/cn/segment_anime_virus_b.o(.data)
 .data          0x0000000080952610     0x1bf0 build/bin/cn/segment_anime_virus_b.o
                0x0000000080952610                _binary_bin_cn_segment_anime_virus_b_bin_start
                0x0000000080954200                _binary_bin_cn_segment_anime_virus_b_bin_end
                0x0000000080954200                segment_anime_virus_b_DATA_END = .
                0x0000000000001bf0                segment_anime_virus_b_DATA_SIZE = ABSOLUTE ((segment_anime_virus_b_DATA_END - segment_anime_virus_b_DATA_START))
                0x000000000065e150                __romPos = (__romPos + SIZEOF (.segment_anime_virus_b))
                0x00000000006510f0                segment_anime_virus_b_ROM_END = __romPos
                0x0000000080954200                segment_anime_virus_b_VRAM_END = .
                0x00000000006510f0                segment_anime_virus_r_ROM_START = __romPos
                0x0000000080954200                segment_anime_virus_r_VRAM = ADDR (.segment_anime_virus_r)

.segment_anime_virus_r
                0x0000000080954200     0x15a0 load address 0x00000000006510f0
                0x0000000080954200                segment_anime_virus_r_DATA_START = .
                0x0000000080954200                segment_anime_virus_r = .
 build/bin/cn/segment_anime_virus_r.o(.data)
 .data          0x0000000080954200     0x15a0 build/bin/cn/segment_anime_virus_r.o
                0x0000000080954200                _binary_bin_cn_segment_anime_virus_r_bin_start
                0x00000000809557a0                _binary_bin_cn_segment_anime_virus_r_bin_end
                0x00000000809557a0                segment_anime_virus_r_DATA_END = .
                0x00000000000015a0                segment_anime_virus_r_DATA_SIZE = ABSOLUTE ((segment_anime_virus_r_DATA_END - segment_anime_virus_r_DATA_START))
                0x000000000065e150                __romPos = (__romPos + SIZEOF (.segment_anime_virus_r))
                0x0000000000652690                segment_anime_virus_r_ROM_END = __romPos
                0x00000000809557a0                segment_anime_virus_r_VRAM_END = .
                0x0000000000652690                segment_anime_virus_y_ROM_START = __romPos
                0x00000000809557a0                segment_anime_virus_y_VRAM = ADDR (.segment_anime_virus_y)

.segment_anime_virus_y
                0x00000000809557a0     0x15a0 load address 0x0000000000652690
                0x00000000809557a0                segment_anime_virus_y_DATA_START = .
                0x00000000809557a0                segment_anime_virus_y = .
 build/bin/cn/segment_anime_virus_y.o(.data)
 .data          0x00000000809557a0     0x15a0 build/bin/cn/segment_anime_virus_y.o
                0x00000000809557a0                _binary_bin_cn_segment_anime_virus_y_bin_start
                0x0000000080956d40                _binary_bin_cn_segment_anime_virus_y_bin_end
                0x0000000080956d40                segment_anime_virus_y_DATA_END = .
                0x00000000000015a0                segment_anime_virus_y_DATA_SIZE = ABSOLUTE ((segment_anime_virus_y_DATA_END - segment_anime_virus_y_DATA_START))
                0x000000000065e150                __romPos = (__romPos + SIZEOF (.segment_anime_virus_y))
                0x0000000000653c30                segment_anime_virus_y_ROM_END = __romPos
                0x0000000080956d40                segment_anime_virus_y_VRAM_END = .
                0x0000000000653c30                segment_anime_smog_ROM_START = __romPos
                0x0000000080956d40                segment_anime_smog_VRAM = ADDR (.segment_anime_smog)

.segment_anime_smog
                0x0000000080956d40     0x1340 load address 0x0000000000653c30
                0x0000000080956d40                segment_anime_smog_DATA_START = .
                0x0000000080956d40                segment_anime_smog = .
 build/bin/cn/segment_anime_smog.o(.data)
 .data          0x0000000080956d40     0x1340 build/bin/cn/segment_anime_smog.o
                0x0000000080956d40                _binary_bin_cn_segment_anime_smog_bin_start
                0x0000000080958080                _binary_bin_cn_segment_anime_smog_bin_end
                0x0000000080958080                segment_anime_smog_DATA_END = .
                0x0000000000001340                segment_anime_smog_DATA_SIZE = ABSOLUTE ((segment_anime_smog_DATA_END - segment_anime_smog_DATA_START))
                0x000000000065e150                __romPos = (__romPos + SIZEOF (.segment_anime_smog))
                0x0000000000654f70                segment_anime_smog_ROM_END = __romPos
                0x0000000080958080                segment_anime_smog_VRAM_END = .
                0x0000000000654f70                segment_tutorial_data_ROM_START = __romPos
                0x0000000080958080                segment_tutorial_data_VRAM = ADDR (.segment_tutorial_data)

.segment_tutorial_data
                0x0000000080958080     0x7f90 load address 0x0000000000654f70
                0x0000000080958080                segment_tutorial_data_DATA_START = .
                0x0000000080958080                segment_tutorial_data = .
 build/bin/cn/segment_tutorial_data.o(.data)
 .data          0x0000000080958080     0x7f90 build/bin/cn/segment_tutorial_data.o
                0x0000000080958080                _binary_bin_cn_segment_tutorial_data_bin_start
                0x0000000080960010                _binary_bin_cn_segment_tutorial_data_bin_end
                0x0000000080960010                segment_tutorial_data_DATA_END = .
                0x0000000000007f90                segment_tutorial_data_DATA_SIZE = ABSOLUTE ((segment_tutorial_data_DATA_END - segment_tutorial_data_DATA_START))
                0x000000000065e150                __romPos = (__romPos + SIZEOF (.segment_tutorial_data))
                0x000000000065cf00                segment_tutorial_data_ROM_END = __romPos
                0x0000000080960010                segment_tutorial_data_VRAM_END = .
                0x000000000065cf00                _65CF00_ROM_START = __romPos
                0x0000000080960010                _65CF00_VRAM = ADDR (._65CF00)

._65CF00        0x0000000080960010     0x1250 load address 0x000000000065cf00
                0x0000000080960010                _65CF00_DATA_START = .
                0x0000000080960010                _65CF00 = .
 build/bin/cn/65CF00.o(.data)
 .data          0x0000000080960010     0x1250 build/bin/cn/65CF00.o
                0x0000000080960010                _binary_bin_cn_65CF00_bin_start
                0x0000000080961260                _binary_bin_cn_65CF00_bin_end
                0x0000000080961260                _65CF00_DATA_END = .
                0x0000000000001250                _65CF00_DATA_SIZE = ABSOLUTE ((_65CF00_DATA_END - _65CF00_DATA_START))
                0x000000000065e150                __romPos = (__romPos + SIZEOF (._65CF00))
                0x000000000065e150                _65CF00_ROM_END = __romPos
                0x0000000080961260                _65CF00_VRAM_END = .

/DISCARD/
 *(*)
                0x00000000a4040000                SP_MEM_ADDR_REG = 0xa4040000
                0x00000000a4040004                SP_DRAM_ADDR_REG = 0xa4040004
                0x00000000a4040008                SP_RD_LEN_REG = 0xa4040008
                0x00000000a404000c                SP_WR_LEN_REG = 0xa404000c
                0x00000000a4040010                SP_STATUS_REG = 0xa4040010
                0x00000000a4040014                SP_DMA_FULL_REG = 0xa4040014
                0x00000000a4040018                SP_DMA_BUSY_REG = 0xa4040018
                0x00000000a404001c                SP_SEMAPHORE_REG = 0xa404001c
                0x00000000a4080000                SP_PC = 0xa4080000
                0x00000000a4100000                DPC_START_REG = 0xa4100000
                0x00000000a4100004                DPC_END_REG = 0xa4100004
                0x00000000a4100008                DPC_CURRENT_REG = 0xa4100008
                0x00000000a410000c                DPC_STATUS_REG = 0xa410000c
                0x00000000a4100010                DPC_CLOCK_REG = 0xa4100010
                0x00000000a4100014                DPC_BUFBUSY_REG = 0xa4100014
                0x00000000a4100018                DPC_PIPEBUSY_REG = 0xa4100018
                0x00000000a410001c                DPC_TMEM_REG = 0xa410001c
                0x00000000a4200000                DPS_TBIST_REG = 0xa4200000
                0x00000000a4200004                DPS_TEST_MODE_REG = 0xa4200004
                0x00000000a4200008                DPS_BUFTEST_ADDR_REG = 0xa4200008
                0x00000000a420000c                DPS_BUFTEST_DATA_REG = 0xa420000c
                0x00000000a4300000                MI_MODE_REG = 0xa4300000
                0x00000000a4300004                MI_VERSION_REG = 0xa4300004
                0x00000000a4300008                MI_INTR_REG = 0xa4300008
                0x00000000a430000c                MI_INTR_MASK_REG = 0xa430000c
                0x00000000a4300010                D_A4300010 = 0xa4300010
                0x00000000a4300014                MI_SK_EXCEPTION_REG = 0xa4300014
                0x00000000a4300018                MI_SK_WATCHDOG_TIMER = 0xa4300018
                0x00000000a4300028                D_A4300028 = 0xa4300028
                0x00000000a430002c                MI_RANDOM_BIT = 0xa430002c
                0x00000000a4300030                D_A4300030 = 0xa4300030
                0x00000000a4300038                MI_HW_INTR_REG = 0xa4300038
                0x00000000a430003c                MI_HW_INTR_MASK_REG = 0xa430003c
                0x00000000a4400000                VI_STATUS_REG = 0xa4400000
                0x00000000a4400004                VI_DRAM_ADDR_REG = 0xa4400004
                0x00000000a4400008                VI_WIDTH_REG = 0xa4400008
                0x00000000a440000c                VI_INTR_REG = 0xa440000c
                0x00000000a4400010                VI_CURRENT_REG = 0xa4400010
                0x00000000a4400014                VI_BURST_REG = 0xa4400014
                0x00000000a4400018                VI_V_SYNC_REG = 0xa4400018
                0x00000000a440001c                VI_H_SYNC_REG = 0xa440001c
                0x00000000a4400020                VI_LEAP_REG = 0xa4400020
                0x00000000a4400024                VI_H_START_REG = 0xa4400024
                0x00000000a4400028                VI_V_START_REG = 0xa4400028
                0x00000000a440002c                VI_V_BURST_REG = 0xa440002c
                0x00000000a4400030                VI_X_SCALE_REG = 0xa4400030
                0x00000000a4400034                VI_Y_SCALE_REG = 0xa4400034
                0x00000000a4500000                AI_DRAM_ADDR_REG = 0xa4500000
                0x00000000a4500004                AI_LEN_REG = 0xa4500004
                0x00000000a4500008                AI_CONTROL_REG = 0xa4500008
                0x00000000a450000c                AI_STATUS_REG = 0xa450000c
                0x00000000a4500010                AI_DACRATE_REG = 0xa4500010
                0x00000000a4500014                AI_BITRATE_REG = 0xa4500014
                0x00000000a4600000                PI_DRAM_ADDR_REG = 0xa4600000
                0x00000000a4600004                PI_CART_ADDR_REG = 0xa4600004
                0x00000000a4600008                PI_RD_LEN_REG = 0xa4600008
                0x00000000a460000c                PI_WR_LEN_REG = 0xa460000c
                0x00000000a4600010                PI_STATUS_REG = 0xa4600010
                0x00000000a4600014                PI_BSD_DOM1_LAT_REG = 0xa4600014
                0x00000000a4600018                PI_BSD_DOM1_PWD_REG = 0xa4600018
                0x00000000a460001c                PI_BSD_DOM1_PGS_REG = 0xa460001c
                0x00000000a4600020                PI_BSD_DOM1_RLS_REG = 0xa4600020
                0x00000000a4600024                PI_BSD_DOM2_LAT_REG = 0xa4600024
                0x00000000a4600028                PI_BSD_DOM2_LWD_REG = 0xa4600028
                0x00000000a460002c                PI_BSD_DOM2_PGS_REG = 0xa460002c
                0x00000000a4600030                PI_BSD_DOM2_RLS_REG = 0xa4600030
                0x00000000a4600038                PI_CARD_STATUS_REG = 0xa4600038
                0x00000000a4600040                PI_ATB_NEXT_CONFIG = 0xa4600040
                0x00000000a4600044                D_A4600044 = 0xa4600044
                0x00000000a4600048                PI_CARD_CNT_REG = 0xa4600048
                0x00000000a460004c                PI_CARD_CONFIG_REG = 0xa460004c
                0x00000000a4600050                PI_AES_CNT = 0xa4600050
                0x00000000a4600054                PI_ALLOWED_IO = 0xa4600054
                0x00000000a4600058                PI_EX_RD_LEN_REG = 0xa4600058
                0x00000000a460005c                PI_EX_WR_LEN_REG = 0xa460005c
                0x00000000a4600060                PI_MISC_REG = 0xa4600060
                0x00000000a4600064                D_A4600064 = 0xa4600064
                0x00000000a4600070                PI_CARD_BLK_OFFSET_REG = 0xa4600070
                0x00000000a4610000                PI_EX_DMA_BUF = 0xa4610000
                0x00000000a4610420                PI_AES_EXPANDED_KEY = 0xa4610420
                0x00000000a46104d0                PI_AES_IV = 0xa46104d0
                0x00000000a4610500                PI_ATB_ENTRY = 0xa4610500
                0x00000000a4620000                D_A4620000 = 0xa4620000
                0x00000000a46e0000                PI_RDB_REQ_HI_REG = 0xa46e0000
                0x00000000a46e0002                PI_RDB_REQ_LO_REG = 0xa46e0002
                0x00000000a46e0004                D_A46E0004 = 0xa46e0004
                0x00000000a46e0400                D_A46E0400 = 0xa46e0400
                0x00000000a46e0402                D_A46E0402 = 0xa46e0402
                0x00000000a46e8000                PI_RDB_STATUS_REG = 0xa46e8000
                0x00000000a4700000                RI_MODE_REG = 0xa4700000
                0x00000000a4700004                RI_CONFIG_REG = 0xa4700004
                0x00000000a4700008                RI_CURRENT_LOAD_REG = 0xa4700008
                0x00000000a470000c                RI_SELECT_REG = 0xa470000c
                0x00000000a4700010                RI_REFRESH_REG = 0xa4700010
                0x00000000a4700014                RI_LATENCY_REG = 0xa4700014
                0x00000000a4700018                RI_RERROR_REG = 0xa4700018
                0x00000000a470001c                RI_WERROR_REG = 0xa470001c
                0x00000000a4800000                SI_DRAM_ADDR_REG = 0xa4800000
                0x00000000a4800004                SI_PIF_ADDR_RD64B_REG = 0xa4800004
                0x00000000a4800008                D_A4800008 = 0xa4800008
                0x00000000a480000c                D_A480000C = 0xa480000c
                0x00000000a4800010                SI_PIF_ADDR_WR64B_REG = 0xa4800010
                0x00000000a4800014                D_A4800014 = 0xa4800014
                0x00000000a4800018                SI_STATUS_REG = 0xa4800018
                0x00000000a480001c                D_A480001C = 0xa480001c
                0x00000000a4900000                D_A4900000 = 0xa4900000
                0x00000000a4940010                USB0_STATUS_REG = 0xa4940010
                0x00000000a4a00000                D_A4A00000 = 0xa4a00000
                0x00000000a4a40010                USB1_STATUS_REG = 0xa4a40010
                0x00000000ef62a343                ROMHEADER_CHECKSUM1 = 0xef62a343
                0x0000000011e41e37                ROMHEADER_CHECKSUM2 = 0x11e41e37
                0x00000000800001a0                leoBootID = 0x800001a0
                0x0000000080000300                osTvType = 0x80000300
                0x0000000080000304                osRomType = 0x80000304
                0x0000000080000308                osRomBase = 0x80000308
                0x000000008000030c                osResetType = 0x8000030c
                0x0000000080000310                osCicId = 0x80000310
                0x0000000080000314                osVersion = 0x80000314
                0x0000000080000318                osMemSize = 0x80000318
                0x000000008000031c                osAppNMIBuffer = 0x8000031c
                0x000000008000035c                __osBbEepromAddress = 0x8000035c
                0x0000000080000360                __osBbEepromSize = 0x80000360
                0x0000000080000364                __osBbFlashAddress = 0x80000364
                0x0000000080000368                __osBbFlashSize = 0x80000368
                0x000000008000036c                __osBbSramAddress = 0x8000036c
                0x0000000080000370                __osBbSramSize = 0x80000370
                0x0000000080000374                __osBbPakAddress = 0x80000374
                0x0000000080000384                __osBbPakSize = 0x80000384
                0x0000000080000388                __osBbIsBb = 0x80000388
                0x000000008000038c                __osBbHackFlags = 0x8000038c
                0x0000000080000390                __osBbStashMagic = 0x80000390
                0x0000000080000394                __osBbPakBindings = 0x80000394
                0x00000000800003a4                __osBbStateName = 0x800003a4
                0x00000000800003b4                __osBbStateDirty = 0x800003b4
                0x00000000800003b8                __osBbAuxDataLimit = 0x800003b8
                0x0000000000008001                boot_BSS_START_HI = (boot_BSS_START >> 0x10)
                0x00000000000018e0                boot_BSS_START_LO = (boot_BSS_START & 0xffff)
                0x0000000000000001                boot_BSS_SIZE_HI = (boot_BSS_SIZE >> 0x10)
                0x0000000000008ed0                boot_BSS_SIZE_LO = (boot_BSS_SIZE & 0xffff)
                0x0000000000008000                bootproc_HI = (bootproc >> 0x10)
                0x00000000000004a8                bootproc_LO = (bootproc & 0xffff)
                0x0000000000008001                gBootThreadStack_HI = (gBootThreadStack >> 0x10)
                0x000000000000e418                gBootThreadStack_LO = (gBootThreadStack & 0xffff)
                0x0000000080020418                gBootThreadStackTop = (gBootThreadStack + 0x2000)
                0x0000000000008002                gBootThreadStackTop_HI = (gBootThreadStackTop >> 0x10)
                0x0000000000000418                gBootThreadStackTop_LO = (gBootThreadStackTop & 0xffff)
OUTPUT(build/drmario64.cn.elf elf32-tradbigmips)
